---
triple:          'arm64-apple-darwin'
binary-path:     '/Users/wangsw/webkong/TokenViewer/TokenViewerNew/dist/xcode-build/Build/Products/Release/TokenViewer.app/Contents/MacOS/TokenViewer'
relocations:
  - { offset: 0xB1061, size: 0x8, addend: 0x0, symName: __RINvMNtNtCs6sq8b9ugfBC_4core4cell4onceINtB3_8OnceCellINtNtB7_6result6ResultINtNtB7_6option6OptionINtNtCs8dnTdrJsiec_5alloc5boxed3BoxINtNtCs3S5NQbda6bJ_9addr2line4unit7DwoUnitINtNtNtCsixjwb4TfRM4_5gimli4read12endian_slice11EndianSliceNtNtB2T_9endianity12LittleEndianEEEENtB2R_5ErrorEE8try_initNCINvB2_11get_or_initNCNCNvMB29_INtB29_7ResUnitB2M_E14dwarf_and_units4_00E0zECsaLOjE9VYtxK_3std, symObjAddr: 0x0, symBinAddr: 0x100309F1C, symSize: 0x48 }
  - { offset: 0xB2294, size: 0x8, addend: 0x0, symName: __RNvXsR_NtCs6sq8b9ugfBC_4core6optionINtB5_6OptionINtNtCs8dnTdrJsiec_5alloc5boxed3BoxSmEENtNtB7_3fmt5Debug3fmtCsaLOjE9VYtxK_3std, symObjAddr: 0x467B8, symBinAddr: 0x1002431A8, symSize: 0x5C }
  - { offset: 0xB22AF, size: 0x8, addend: 0x0, symName: __RNvXsR_NtCs6sq8b9ugfBC_4core6optionINtB5_6OptionNtNtCsaLOjE9VYtxK_3std7process10ChildStdinENtNtB7_3fmt5Debug3fmtBO_, symObjAddr: 0x46814, symBinAddr: 0x100243204, symSize: 0x60 }
  - { offset: 0xB22CA, size: 0x8, addend: 0x0, symName: __RNvXsR_NtCs6sq8b9ugfBC_4core6optionINtB5_6OptionNtNtCsaLOjE9VYtxK_3std7process11ChildStderrENtNtB7_3fmt5Debug3fmtBO_, symObjAddr: 0x46874, symBinAddr: 0x100243264, symSize: 0x60 }
  - { offset: 0xB22E5, size: 0x8, addend: 0x0, symName: __RNvXsR_NtCs6sq8b9ugfBC_4core6optionINtB5_6OptionNtNtCsaLOjE9VYtxK_3std7process11ChildStdoutENtNtB7_3fmt5Debug3fmtBO_, symObjAddr: 0x468D4, symBinAddr: 0x1002432C4, symSize: 0x60 }
  - { offset: 0xB2300, size: 0x8, addend: 0x0, symName: __RNvXsR_NtCs6sq8b9ugfBC_4core6optionINtB5_6OptionNtNtNtCs8dnTdrJsiec_5alloc3ffi5c_str7CStringENtNtB7_3fmt5Debug3fmtCsaLOjE9VYtxK_3std, symObjAddr: 0x46934, symBinAddr: 0x100243324, symSize: 0x5C }
  - { offset: 0xB231B, size: 0x8, addend: 0x0, symName: __RNvXsR_NtCs6sq8b9ugfBC_4core6optionINtB5_6OptionNtNtNtNtNtCsaLOjE9VYtxK_3std3sys7process4unix6common5StdioENtNtB7_3fmt5Debug3fmtBU_, symObjAddr: 0x46990, symBinAddr: 0x100243380, symSize: 0x60 }
  - { offset: 0xB2336, size: 0x8, addend: 0x0, symName: __RNvXsR_NtCs6sq8b9ugfBC_4core6optionINtB5_6OptionReENtNtB7_3fmt5Debug3fmtCsaLOjE9VYtxK_3std, symObjAddr: 0x469F0, symBinAddr: 0x1002433E0, symSize: 0x5C }
  - { offset: 0xB2351, size: 0x8, addend: 0x0, symName: __RNvXsR_NtCs6sq8b9ugfBC_4core6optionINtB5_6OptionlENtNtB7_3fmt5Debug3fmtCsaLOjE9VYtxK_3std, symObjAddr: 0x46A4C, symBinAddr: 0x10024343C, symSize: 0x64 }
  - { offset: 0xB236C, size: 0x8, addend: 0x0, symName: __RNvXsR_NtCs6sq8b9ugfBC_4core6optionINtB5_6OptionmENtNtB7_3fmt5Debug3fmtCsaLOjE9VYtxK_3std, symObjAddr: 0x46AB0, symBinAddr: 0x1002434A0, symSize: 0x64 }
  - { offset: 0xB23B5, size: 0x8, addend: 0x0, symName: __RINvMNtNtCs6sq8b9ugfBC_4core4cell4onceINtB3_8OnceCellINtNtB7_6result6ResultINtNtB7_6option6OptionINtNtCs8dnTdrJsiec_5alloc5boxed3BoxINtNtCs3S5NQbda6bJ_9addr2line4unit7DwoUnitINtNtNtCsixjwb4TfRM4_5gimli4read12endian_slice11EndianSliceNtNtB2T_9endianity12LittleEndianEEEENtB2R_5ErrorEE8try_initNCINvB2_11get_or_initNCNCNvMB29_INtB29_7ResUnitB2M_E14dwarf_and_units4_00E0zECsaLOjE9VYtxK_3std, symObjAddr: 0x0, symBinAddr: 0x100309F1C, symSize: 0x48 }
  - { offset: 0xB23D4, size: 0x8, addend: 0x0, symName: __RINvMNtNtCs6sq8b9ugfBC_4core4cell4onceINtB3_8OnceCellINtNtB7_6result6ResultINtNtB7_6option6OptionINtNtCs8dnTdrJsiec_5alloc5boxed3BoxINtNtCs3S5NQbda6bJ_9addr2line4unit7DwoUnitINtNtNtCsixjwb4TfRM4_5gimli4read12endian_slice11EndianSliceNtNtB2T_9endianity12LittleEndianEEEENtB2R_5ErrorEE8try_initNCINvB2_11get_or_initNCNCNvMB29_INtB29_7ResUnitB2M_E14dwarf_and_units4_00E0zECsaLOjE9VYtxK_3std, symObjAddr: 0x0, symBinAddr: 0x100309F1C, symSize: 0x48 }
  - { offset: 0xB23EA, size: 0x8, addend: 0x0, symName: __RINvMNtNtCs6sq8b9ugfBC_4core4cell4onceINtB3_8OnceCellINtNtB7_6result6ResultINtNtB7_6option6OptionINtNtCs8dnTdrJsiec_5alloc5boxed3BoxINtNtCs3S5NQbda6bJ_9addr2line4unit7DwoUnitINtNtNtCsixjwb4TfRM4_5gimli4read12endian_slice11EndianSliceNtNtB2T_9endianity12LittleEndianEEEENtB2R_5ErrorEE8try_initNCINvB2_11get_or_initNCNCNvMB29_INtB29_7ResUnitB2M_E14dwarf_and_units4_00E0zECsaLOjE9VYtxK_3std, symObjAddr: 0x0, symBinAddr: 0x100309F1C, symSize: 0x48 }
  - { offset: 0xB23FF, size: 0x8, addend: 0x0, symName: __RINvMNtNtCs6sq8b9ugfBC_4core4cell4onceINtB3_8OnceCellINtNtB7_6result6ResultINtNtB7_6option6OptionINtNtCs8dnTdrJsiec_5alloc5boxed3BoxINtNtCs3S5NQbda6bJ_9addr2line4unit7DwoUnitINtNtNtCsixjwb4TfRM4_5gimli4read12endian_slice11EndianSliceNtNtB2T_9endianity12LittleEndianEEEENtB2R_5ErrorEE8try_initNCINvB2_11get_or_initNCNCNvMB29_INtB29_7ResUnitB2M_E14dwarf_and_units4_00E0zECsaLOjE9VYtxK_3std, symObjAddr: 0x0, symBinAddr: 0x100309F1C, symSize: 0x48 }
  - { offset: 0xB2442, size: 0x8, addend: 0x0, symName: __RINvMNtNtCs6sq8b9ugfBC_4core4cell4onceINtB3_8OnceCellINtNtB7_6result6ResultINtNtB7_6option6OptionINtNtCs8dnTdrJsiec_5alloc5boxed3BoxINtNtCs3S5NQbda6bJ_9addr2line4unit7DwoUnitINtNtNtCsixjwb4TfRM4_5gimli4read12endian_slice11EndianSliceNtNtB2T_9endianity12LittleEndianEEEENtB2R_5ErrorEE8try_initNCINvB2_11get_or_initNCNvMB29_INtB29_7ResUnitB2M_E14dwarf_and_units2_0E0zECsaLOjE9VYtxK_3std, symObjAddr: 0x48, symBinAddr: 0x100309F64, symSize: 0x68 }
  - { offset: 0xB24E5, size: 0x8, addend: 0x0, symName: __RINvMNtNtCs6sq8b9ugfBC_4core4cell4onceINtB3_8OnceCellINtNtB7_6result6ResultINtNtCs3S5NQbda6bJ_9addr2line8function8FunctionINtNtNtCsixjwb4TfRM4_5gimli4read12endian_slice11EndianSliceNtNtB23_9endianity12LittleEndianEENtB21_5ErrorEE8try_initNCINvB2_11get_or_initNCNvMs_B1e_INtB1e_12LazyFunctionB1W_E6borrow0E0zECsaLOjE9VYtxK_3std, symObjAddr: 0xB0, symBinAddr: 0x100309FCC, symSize: 0x62C }
  - { offset: 0xB3276, size: 0x8, addend: 0x0, symName: __RINvMNtNtCs6sq8b9ugfBC_4core4cell4onceINtB3_8OnceCellINtNtB7_6result6ResultINtNtCs3S5NQbda6bJ_9addr2line8function9FunctionsINtNtNtCsixjwb4TfRM4_5gimli4read12endian_slice11EndianSliceNtNtB24_9endianity12LittleEndianEENtB22_5ErrorEE8try_initNCINvB2_11get_or_initNCNvMB1e_INtB1e_13LazyFunctionsB1X_E6borrow0E0zECsaLOjE9VYtxK_3std, symObjAddr: 0x6DC, symBinAddr: 0x10030A5F8, symSize: 0xC08 }
  - { offset: 0xB4E81, size: 0x8, addend: 0x0, symName: __RINvMNtNtCs6sq8b9ugfBC_4core4cell4onceINtB3_8OnceCellINtNtB7_6result6ResultNtNtCs3S5NQbda6bJ_9addr2line4line5LinesNtNtCsixjwb4TfRM4_5gimli4read5ErrorEE8try_initNCINvB2_11get_or_initNCINvMB1d_NtB1d_9LazyLines6borrowINtNtB1Q_12endian_slice11EndianSliceNtNtB1S_9endianity12LittleEndianEE0E0zECsaLOjE9VYtxK_3std, symObjAddr: 0x12E4, symBinAddr: 0x10030B200, symSize: 0x1868 }
  - { offset: 0xB8A48, size: 0x8, addend: 0x0, symName: __RINvMNtNtCs6sq8b9ugfBC_4core4cell4onceINtB3_8OnceCellNtNtNtCsaLOjE9VYtxK_3std6thread6thread6ThreadE8try_initNCINvB2_11get_or_initNvNtBT_7current18current_or_unnamedE0zEBV_, symObjAddr: 0x2B4C, symBinAddr: 0x10030CA68, symSize: 0xFC }
  - { offset: 0xB94DB, size: 0x8, addend: 0x0, symName: __RNSNvYNCINvMs0_NtNtCsaLOjE9VYtxK_3std4sync4onceNtBd_4Once15call_once_forceNCINvMNtBf_9once_lockINtB1g_8OnceLockINtNtBf_14reentrant_lock13ReentrantLockINtNtCs6sq8b9ugfBC_4core4cell7RefCellINtNtNtNtBh_2io8buffered10linewriter10LineWriterNtNtB36_5stdio9StdoutRawEEEE10initializeNCINvB1f_11get_or_initNCNvB3N_6stdout0E0zE0E0INtNtNtB2t_3ops8function6FnOnceTRNtBd_9OnceStateEE9call_once6vtableBh_, symObjAddr: 0x15BA8, symBinAddr: 0x100214468, symSize: 0x70 }
  - { offset: 0xB9670, size: 0x8, addend: 0x0, symName: __RNSNvYNCINvMs0_NtNtCsaLOjE9VYtxK_3std4sync4onceNtBd_4Once15call_once_forceNCINvMNtBf_9once_lockINtB1g_8OnceLockINtNtBf_14reentrant_lock13ReentrantLockINtNtCs6sq8b9ugfBC_4core4cell7RefCellINtNtNtNtBh_2io8buffered10linewriter10LineWriterNtNtB36_5stdio9StdoutRawEEEE10initializeNCINvB1f_11get_or_initNCNvB3N_7cleanup0E0zE0E0INtNtNtB2t_3ops8function6FnOnceTRNtBd_9OnceStateEE9call_once6vtableBh_, symObjAddr: 0x15C18, symBinAddr: 0x1002144D8, symSize: 0x60 }
  - { offset: 0xB975D, size: 0x8, addend: 0x0, symName: __RNSNvYNCINvMs0_NtNtCsaLOjE9VYtxK_3std4sync4onceNtBd_4Once15call_once_forceNCINvMNtBf_9once_lockINtB1g_8OnceLockINtNtNtBf_6poison5mutex5MutexINtNtNtNtBh_2io8buffered9bufreader9BufReaderNtNtB2l_5stdio8StdinRawEEE10initializeNCINvB1f_11get_or_initNCNvB2Y_5stdin0E0zE0E0INtNtNtCs6sq8b9ugfBC_4core3ops8function6FnOnceTRNtBd_9OnceStateEE9call_once6vtableBh_, symObjAddr: 0x15C78, symBinAddr: 0x100214538, symSize: 0x6C }
  - { offset: 0xB98D4, size: 0x8, addend: 0x0, symName: __RNSNvYNCINvMs0_NtNtCsaLOjE9VYtxK_3std4sync4onceNtBd_4Once15call_once_forceNCNvMNtBf_9lazy_lockINtB1f_8LazyLockNtNtBh_9backtrace7CaptureNCNvNtB1M_6helper12lazy_resolve0E5force0E0INtNtNtCs6sq8b9ugfBC_4core3ops8function6FnOnceTRNtBd_9OnceStateEE9call_once6vtableBh_, symObjAddr: 0x15CE4, symBinAddr: 0x1002145A4, symSize: 0x28 }
  - { offset: 0xB9911, size: 0x8, addend: 0x0, symName: __RNSNvYNCINvMs0_NtNtCsaLOjE9VYtxK_3std4sync4onceNtBd_4Once9call_onceNCNvNtBh_2rt7cleanup0E0INtNtNtCs6sq8b9ugfBC_4core3ops8function6FnOnceTRNtBd_9OnceStateEE9call_once6vtableBh_, symObjAddr: 0x15D0C, symBinAddr: 0x1002145CC, symSize: 0x28 }
  - { offset: 0xB994E, size: 0x8, addend: 0x0, symName: __RNSNvYNCNCNvNtNtCsaLOjE9VYtxK_3std3sys9backtrace10__print_fmts_00INtNtNtCs6sq8b9ugfBC_4core3ops8function6FnOnceTRNtNtNtBe_12backtrace_rs9symbolize6SymbolEE9call_once6vtableBe_, symObjAddr: 0x15D34, symBinAddr: 0x1002145F4, symSize: 0x4 }
  - { offset: 0xB996C, size: 0x8, addend: 0x0, symName: __RNSNvYNCNCNvNtNtCsaLOjE9VYtxK_3std3sys9backtrace10__print_fmts_00INtNtNtCs6sq8b9ugfBC_4core3ops8function6FnOnceTRNtNtNtBe_12backtrace_rs9symbolize6SymbolEE9call_once6vtableBe_, symObjAddr: 0x15D34, symBinAddr: 0x1002145F4, symSize: 0x4 }
  - { offset: 0xB998B, size: 0x8, addend: 0x0, symName: __RNSNvYNCNCNvNtNtCsaLOjE9VYtxK_3std9backtrace6helper12lazy_resolve00INtNtNtCs6sq8b9ugfBC_4core3ops8function6FnOnceTRNtNtNtBe_12backtrace_rs9symbolize6SymbolEE9call_once6vtableBe_, symObjAddr: 0x15D38, symBinAddr: 0x1002145F8, symSize: 0x28 }
  - { offset: 0xB99C8, size: 0x8, addend: 0x0, symName: __RNSNvYNCNvMs2_NtCsaLOjE9VYtxK_3std9backtraceNtBc_9Backtrace6create0INtNtNtCs6sq8b9ugfBC_4core3ops8function6FnOnceTRNtNtNtBe_12backtrace_rs9backtrace5FrameEE9call_once6vtableBe_, symObjAddr: 0x15D60, symBinAddr: 0x100214620, symSize: 0x18 }
  - { offset: 0xB9A05, size: 0x8, addend: 0x0, symName: __RNSNvYNCNvNtNtCsaLOjE9VYtxK_3std3sys9backtrace10__print_fmt0INtNtNtCs6sq8b9ugfBC_4core3ops8function6FnOnceTQNtNtB13_3fmt9FormatterNtNtNtBc_12backtrace_rs5types17BytesOrWideStringEE9call_once6vtableBc_, symObjAddr: 0x15D78, symBinAddr: 0x100214638, symSize: 0xB0 }
  - { offset: 0xB9CA6, size: 0x8, addend: 0x0, symName: __RNSNvYNCNvNtNtCsaLOjE9VYtxK_3std3sys9backtrace10__print_fmts_0INtNtNtCs6sq8b9ugfBC_4core3ops8function6FnOnceTRNtNtNtBc_12backtrace_rs9backtrace5FrameEE9call_once6vtableBc_, symObjAddr: 0x15E28, symBinAddr: 0x1002146E8, symSize: 0x4 }
  - { offset: 0xB9CC4, size: 0x8, addend: 0x0, symName: __RNSNvYNCNvNtNtCsaLOjE9VYtxK_3std3sys9backtrace10__print_fmts_0INtNtNtCs6sq8b9ugfBC_4core3ops8function6FnOnceTRNtNtNtBc_12backtrace_rs9backtrace5FrameEE9call_once6vtableBc_, symObjAddr: 0x15E28, symBinAddr: 0x1002146E8, symSize: 0x4 }
  - { offset: 0xB9CE3, size: 0x8, addend: 0x0, symName: __RNSNvYNCNvNtNtNtCsaLOjE9VYtxK_3std3sys11personality3gcc14find_eh_action0INtNtNtCs6sq8b9ugfBC_4core3ops8function6FnOnceuE9call_once6vtableBe_, symObjAddr: 0x15E2C, symBinAddr: 0x1002146EC, symSize: 0xC }
  - { offset: 0xB9D36, size: 0x8, addend: 0x0, symName: __RNSNvYNCNvNtNtNtCsaLOjE9VYtxK_3std3sys11personality3gcc14find_eh_actions_0INtNtNtCs6sq8b9ugfBC_4core3ops8function6FnOnceuE9call_once6vtableBe_, symObjAddr: 0x15E38, symBinAddr: 0x1002146F8, symSize: 0xC }
  - { offset: 0xB9D89, size: 0x8, addend: 0x0, symName: __RNSNvYNCNvXs4_NtCsaLOjE9VYtxK_3std9backtraceNtBc_9BacktraceNtNtCs6sq8b9ugfBC_4core3fmt7Display3fmt0INtNtNtBZ_3ops8function6FnOnceTQNtBX_9FormatterNtNtNtBe_12backtrace_rs5types17BytesOrWideStringEE9call_once6vtableBe_, symObjAddr: 0x15E44, symBinAddr: 0x100214704, symSize: 0xB0 }
  - { offset: 0xB9F17, size: 0x8, addend: 0x0, symName: __RNSNvYNvNtCsaLOjE9VYtxK_3std9panicking12default_hookINtNtNtCs6sq8b9ugfBC_4core3ops8function6FnOnceTRNtNtB8_5panic13PanicHookInfoEE9call_once6vtableB8_, symObjAddr: 0x15EF4, symBinAddr: 0x1002147B4, symSize: 0x8 }
  - { offset: 0xBA108, size: 0x8, addend: 0x0, symName: __RNvYNvNtCsaLOjE9VYtxK_3std9panicking12default_hookINtNtNtCs6sq8b9ugfBC_4core3ops8function2FnTRNtNtB6_5panic13PanicHookInfoEE4callB6_, symObjAddr: 0x4E0E4, symBinAddr: 0x10024AAD4, symSize: 0x8 }
  - { offset: 0xBA122, size: 0x8, addend: 0x0, symName: __RNvYNvNtNtNtCsaLOjE9VYtxK_3std3sys2fs4unix12canonicalizeINtNtNtCs6sq8b9ugfBC_4core3ops8function2FnTRNtNtNtBZ_3ffi5c_str4CStrEE4callBa_, symObjAddr: 0x4E0F4, symBinAddr: 0x10024AAE4, symSize: 0x8 }
  - { offset: 0xBA136, size: 0x8, addend: 0x0, symName: __RNvYNvNtNtNtCsaLOjE9VYtxK_3std3sys2fs4unix4statINtNtNtCs6sq8b9ugfBC_4core3ops8function2FnTRNtNtNtBQ_3ffi5c_str4CStrEE4callBa_, symObjAddr: 0x4E0FC, symBinAddr: 0x10024AAEC, symSize: 0xAC }
  - { offset: 0xBA251, size: 0x8, addend: 0x0, symName: __RNvYNvNtNtNtCsaLOjE9VYtxK_3std3sys2fs4unix5lstatINtNtNtCs6sq8b9ugfBC_4core3ops8function2FnTRNtNtNtBR_3ffi5c_str4CStrEE4callBa_, symObjAddr: 0x4E1A8, symBinAddr: 0x10024AB98, symSize: 0xAC }
  - { offset: 0xBA36C, size: 0x8, addend: 0x0, symName: __RNvYNvNtNtNtCsaLOjE9VYtxK_3std3sys2fs4unix5rmdirINtNtNtCs6sq8b9ugfBC_4core3ops8function2FnTRNtNtNtBR_3ffi5c_str4CStrEE4callBa_, symObjAddr: 0x4E254, symBinAddr: 0x10024AC44, symSize: 0x38 }
  - { offset: 0xBA407, size: 0x8, addend: 0x0, symName: __RNvYNvNtNtNtCsaLOjE9VYtxK_3std3sys2fs4unix6unlinkINtNtNtCs6sq8b9ugfBC_4core3ops8function2FnTRNtNtNtBS_3ffi5c_str4CStrEE4callBa_, symObjAddr: 0x4E28C, symBinAddr: 0x10024AC7C, symSize: 0x38 }
  - { offset: 0xBA4A2, size: 0x8, addend: 0x0, symName: __RNvYNvNtNtNtCsaLOjE9VYtxK_3std3sys2fs4unix8readlinkINtNtNtCs6sq8b9ugfBC_4core3ops8function2FnTRNtNtNtBU_3ffi5c_str4CStrEE4callBa_, symObjAddr: 0x4E2C4, symBinAddr: 0x10024ACB4, symSize: 0x8 }
  - { offset: 0xBA4B6, size: 0x8, addend: 0x0, symName: __RNvYNvNtNtNtNtCsaLOjE9VYtxK_3std3sys2fs4unix15remove_dir_impl21remove_dir_all_modernINtNtNtCs6sq8b9ugfBC_4core3ops8function2FnTRNtNtNtB1r_3ffi5c_str4CStrEE4callBc_, symObjAddr: 0x4E2CC, symBinAddr: 0x10024ACBC, symSize: 0xA4 }
  - { offset: 0xBA688, size: 0x8, addend: 0x0, symName: __RNvYNvNtCsaLOjE9VYtxK_3std9panicking12default_hookINtNtNtCs6sq8b9ugfBC_4core3ops8function5FnMutTRNtNtB6_5panic13PanicHookInfoEE8call_mutB6_, symObjAddr: 0x4E0EC, symBinAddr: 0x10024AADC, symSize: 0x8 }
  - { offset: 0xBCF52, size: 0x8, addend: 0x0, symName: __RINvNtNtNtCs6sq8b9ugfBC_4core5slice4sort6stable14driftsort_mainNtNtCs3S5NQbda6bJ_9addr2line4line12LineSequenceNCINvMNtCs8dnTdrJsiec_5alloc5sliceSBZ_11sort_by_keyyNCINvMs_B11_NtB11_5Lines5parseINtNtNtCsixjwb4TfRM4_5gimli4read12endian_slice11EndianSliceNtNtB3b_9endianity12LittleEndianEEs_0E0INtNtB1S_3vec3VecBZ_EECsaLOjE9VYtxK_3std, symObjAddr: 0xAF00, symBinAddr: 0x10020A184, symSize: 0x128 }
  - { offset: 0xBD1FE, size: 0x8, addend: 0x0, symName: __RINvNtNtNtCs6sq8b9ugfBC_4core5slice4sort6stable14driftsort_mainNtNtCs3S5NQbda6bJ_9addr2line4unit9UnitRangeNCINvMNtCs8dnTdrJsiec_5alloc5sliceSBZ_11sort_by_keyyNCNvMs_B11_INtB11_8ResUnitsINtNtNtCsixjwb4TfRM4_5gimli4read12endian_slice11EndianSliceNtNtB34_9endianity12LittleEndianEE5parses2_0E0INtNtB1O_3vec3VecBZ_EECsaLOjE9VYtxK_3std, symObjAddr: 0xB028, symBinAddr: 0x10020A2AC, symSize: 0x124 }
  - { offset: 0xBD58C, size: 0x8, addend: 0x0, symName: __RINvNtNtNtCs6sq8b9ugfBC_4core5slice4sort6stable14driftsort_mainNtNtCs3S5NQbda6bJ_9addr2line8function15FunctionAddressNCINvMNtCs8dnTdrJsiec_5alloc5sliceSBZ_11sort_by_keyyNCNvMs0_B11_INtB11_9FunctionsINtNtNtCsixjwb4TfRM4_5gimli4read12endian_slice11EndianSliceNtNtB3h_9endianity12LittleEndianEE5parses_0E0INtNtB1Z_3vec3VecBZ_EECsaLOjE9VYtxK_3std, symObjAddr: 0xB14C, symBinAddr: 0x10020A3D0, symSize: 0x148 }
  - { offset: 0xBD8ED, size: 0x8, addend: 0x0, symName: __RINvNtNtNtCs6sq8b9ugfBC_4core5slice4sort6stable14driftsort_mainNtNtCs3S5NQbda6bJ_9addr2line8function22InlinedFunctionAddressNCINvMNtCs8dnTdrJsiec_5alloc5sliceSBZ_7sort_byNCNvMs1_B11_INtB11_8FunctionINtNtNtCsixjwb4TfRM4_5gimli4read12endian_slice11EndianSliceNtNtB3h_9endianity12LittleEndianEE5parse0E0INtNtB26_3vec3VecBZ_EECsaLOjE9VYtxK_3std, symObjAddr: 0xB294, symBinAddr: 0x10020A518, symSize: 0x124 }
  - { offset: 0xBDC7B, size: 0x8, addend: 0x0, symName: __RINvNtNtNtCs6sq8b9ugfBC_4core5slice4sort6stable14driftsort_mainNtNtCsgmVNXhSCXCV_6object4read14ObjectMapEntryNCINvMNtCs8dnTdrJsiec_5alloc5sliceSBZ_11sort_by_keyyNCNvMs7_B11_INtB11_9SymbolMapBZ_E3new0E0INtNtB1R_3vec3VecBZ_EECsaLOjE9VYtxK_3std, symObjAddr: 0xB3B8, symBinAddr: 0x10020A63C, symSize: 0x148 }
  - { offset: 0xBDFDC, size: 0x8, addend: 0x0, symName: __RINvNtNtNtCs6sq8b9ugfBC_4core5slice4sort6stable14driftsort_mainTNtNtCsixjwb4TfRM4_5gimli6common15DebugInfoOffsetNtB12_18DebugArangesOffsetENCINvMNtCs8dnTdrJsiec_5alloc5sliceSBZ_11sort_by_keyB10_NCNvMs_NtCs3S5NQbda6bJ_9addr2line4unitINtB3d_8ResUnitsINtNtNtB14_4read12endian_slice11EndianSliceNtNtB14_9endianity12LittleEndianEE5parse0E0INtNtB2l_3vec3VecBZ_EECsaLOjE9VYtxK_3std, symObjAddr: 0xB500, symBinAddr: 0x10020A784, symSize: 0x124 }
  - { offset: 0xBE55D, size: 0x8, addend: 0x0, symName: __RINvNtNtNtNtCs6sq8b9ugfBC_4core5slice4sort6stable5drift4sortNtNtCs3S5NQbda6bJ_9addr2line4line12LineSequenceNCINvMNtCs8dnTdrJsiec_5alloc5sliceSBW_11sort_by_keyyNCINvMs_BY_NtBY_5Lines5parseINtNtNtCsixjwb4TfRM4_5gimli4read12endian_slice11EndianSliceNtNtB36_9endianity12LittleEndianEEs_0E0ECsaLOjE9VYtxK_3std, symObjAddr: 0xD6C8, symBinAddr: 0x10020C370, symSize: 0x4EC }
  - { offset: 0xBEBE9, size: 0x8, addend: 0x0, symName: __RINvNtNtNtNtCs6sq8b9ugfBC_4core5slice4sort6stable5drift4sortNtNtCs3S5NQbda6bJ_9addr2line4unit9UnitRangeNCINvMNtCs8dnTdrJsiec_5alloc5sliceSBW_11sort_by_keyyNCNvMs_BY_INtBY_8ResUnitsINtNtNtCsixjwb4TfRM4_5gimli4read12endian_slice11EndianSliceNtNtB2Z_9endianity12LittleEndianEE5parses2_0E0ECsaLOjE9VYtxK_3std, symObjAddr: 0xDBB4, symBinAddr: 0x10020C85C, symSize: 0x4EC }
  - { offset: 0xBF275, size: 0x8, addend: 0x0, symName: __RINvNtNtNtNtCs6sq8b9ugfBC_4core5slice4sort6stable5drift4sortNtNtCs3S5NQbda6bJ_9addr2line8function15FunctionAddressNCINvMNtCs8dnTdrJsiec_5alloc5sliceSBW_11sort_by_keyyNCNvMs0_BY_INtBY_9FunctionsINtNtNtCsixjwb4TfRM4_5gimli4read12endian_slice11EndianSliceNtNtB3c_9endianity12LittleEndianEE5parses_0E0ECsaLOjE9VYtxK_3std, symObjAddr: 0xE0A0, symBinAddr: 0x10020CD48, symSize: 0x52C }
  - { offset: 0xBF8EC, size: 0x8, addend: 0x0, symName: __RINvNtNtNtNtCs6sq8b9ugfBC_4core5slice4sort6stable5drift4sortNtNtCs3S5NQbda6bJ_9addr2line8function22InlinedFunctionAddressNCINvMNtCs8dnTdrJsiec_5alloc5sliceSBW_7sort_byNCNvMs1_BY_INtBY_8FunctionINtNtNtCsixjwb4TfRM4_5gimli4read12endian_slice11EndianSliceNtNtB3c_9endianity12LittleEndianEE5parse0E0ECsaLOjE9VYtxK_3std, symObjAddr: 0xE5CC, symBinAddr: 0x10020D274, symSize: 0x5E0 }
  - { offset: 0xBFFBD, size: 0x8, addend: 0x0, symName: __RINvNtNtNtNtCs6sq8b9ugfBC_4core5slice4sort6stable5drift4sortNtNtCsgmVNXhSCXCV_6object4read14ObjectMapEntryNCINvMNtCs8dnTdrJsiec_5alloc5sliceSBW_11sort_by_keyyNCNvMs7_BY_INtBY_9SymbolMapBW_E3new0E0ECsaLOjE9VYtxK_3std, symObjAddr: 0xEBAC, symBinAddr: 0x10020D854, symSize: 0x534 }
  - { offset: 0xC065E, size: 0x8, addend: 0x0, symName: __RINvNtNtNtNtCs6sq8b9ugfBC_4core5slice4sort6stable5drift4sortTNtNtCsixjwb4TfRM4_5gimli6common15DebugInfoOffsetNtBZ_18DebugArangesOffsetENCINvMNtCs8dnTdrJsiec_5alloc5sliceSBW_11sort_by_keyBX_NCNvMs_NtCs3S5NQbda6bJ_9addr2line4unitINtB38_8ResUnitsINtNtNtB11_4read12endian_slice11EndianSliceNtNtB11_9endianity12LittleEndianEE5parse0E0ECsaLOjE9VYtxK_3std, symObjAddr: 0xF0E0, symBinAddr: 0x10020DD88, symSize: 0x574 }
  - { offset: 0xC0E56, size: 0x8, addend: 0x0, symName: __RINvNtNtNtNtCs6sq8b9ugfBC_4core5slice4sort6stable9quicksort9quicksortNtNtCs3S5NQbda6bJ_9addr2line4line12LineSequenceNCINvMNtCs8dnTdrJsiec_5alloc5sliceSB15_11sort_by_keyyNCINvMs_B17_NtB17_5Lines5parseINtNtNtCsixjwb4TfRM4_5gimli4read12endian_slice11EndianSliceNtNtB3i_9endianity12LittleEndianEEs_0E0ECsaLOjE9VYtxK_3std, symObjAddr: 0xF654, symBinAddr: 0x10020E2FC, symSize: 0x6AC }
  - { offset: 0xC196A, size: 0x8, addend: 0x0, symName: __RINvNtNtNtNtCs6sq8b9ugfBC_4core5slice4sort6stable9quicksort9quicksortNtNtCs3S5NQbda6bJ_9addr2line4unit9UnitRangeNCINvMNtCs8dnTdrJsiec_5alloc5sliceSB15_11sort_by_keyyNCNvMs_B17_INtB17_8ResUnitsINtNtNtCsixjwb4TfRM4_5gimli4read12endian_slice11EndianSliceNtNtB3b_9endianity12LittleEndianEE5parses2_0E0ECsaLOjE9VYtxK_3std, symObjAddr: 0xFD00, symBinAddr: 0x10020E9A8, symSize: 0x6B4 }
  - { offset: 0xC247E, size: 0x8, addend: 0x0, symName: __RINvNtNtNtNtCs6sq8b9ugfBC_4core5slice4sort6stable9quicksort9quicksortNtNtCs3S5NQbda6bJ_9addr2line8function15FunctionAddressNCINvMNtCs8dnTdrJsiec_5alloc5sliceSB15_11sort_by_keyyNCNvMs0_B17_INtB17_9FunctionsINtNtNtCsixjwb4TfRM4_5gimli4read12endian_slice11EndianSliceNtNtB3o_9endianity12LittleEndianEE5parses_0E0ECsaLOjE9VYtxK_3std, symObjAddr: 0x103B4, symBinAddr: 0x10020F05C, symSize: 0x7E4 }
  - { offset: 0xC3093, size: 0x8, addend: 0x0, symName: __RINvNtNtNtNtCs6sq8b9ugfBC_4core5slice4sort6stable9quicksort9quicksortNtNtCs3S5NQbda6bJ_9addr2line8function22InlinedFunctionAddressNCINvMNtCs8dnTdrJsiec_5alloc5sliceSB15_7sort_byNCNvMs1_B17_INtB17_8FunctionINtNtNtCsixjwb4TfRM4_5gimli4read12endian_slice11EndianSliceNtNtB3o_9endianity12LittleEndianEE5parse0E0ECsaLOjE9VYtxK_3std, symObjAddr: 0x10B98, symBinAddr: 0x10020F840, symSize: 0x718 }
  - { offset: 0xC37FF, size: 0x8, addend: 0x0, symName: __RINvNtNtNtNtCs6sq8b9ugfBC_4core5slice4sort6stable9quicksort9quicksortNtNtCsgmVNXhSCXCV_6object4read14ObjectMapEntryNCINvMNtCs8dnTdrJsiec_5alloc5sliceSB15_11sort_by_keyyNCNvMs7_B17_INtB17_9SymbolMapB15_E3new0E0ECsaLOjE9VYtxK_3std, symObjAddr: 0x112B0, symBinAddr: 0x10020FF58, symSize: 0x800 }
  - { offset: 0xC4421, size: 0x8, addend: 0x0, symName: __RINvNtNtNtNtCs6sq8b9ugfBC_4core5slice4sort6stable9quicksort9quicksortTNtNtCsixjwb4TfRM4_5gimli6common15DebugInfoOffsetNtB18_18DebugArangesOffsetENCINvMNtCs8dnTdrJsiec_5alloc5sliceSB15_11sort_by_keyB16_NCNvMs_NtCs3S5NQbda6bJ_9addr2line4unitINtB3k_8ResUnitsINtNtNtB1a_4read12endian_slice11EndianSliceNtNtB1a_9endianity12LittleEndianEE5parse0E0ECsaLOjE9VYtxK_3std, symObjAddr: 0x11AB0, symBinAddr: 0x100210758, symSize: 0x7F4 }
  - { offset: 0xC5490, size: 0x8, addend: 0x0, symName: __RINvNtNtNtNtCs6sq8b9ugfBC_4core5slice4sort6shared9smallsort12sort4_stableNtNtCs3S5NQbda6bJ_9addr2line8function22InlinedFunctionAddressNCINvMNtCs8dnTdrJsiec_5alloc5sliceSB19_7sort_byNCNvMs1_B1b_INtB1b_8FunctionINtNtNtCsixjwb4TfRM4_5gimli4read12endian_slice11EndianSliceNtNtB3s_9endianity12LittleEndianEE5parse0E0ECsaLOjE9VYtxK_3std, symObjAddr: 0xC5B4, symBinAddr: 0x10020B25C, symSize: 0x17C }
  - { offset: 0xC564C, size: 0x8, addend: 0x0, symName: __RINvNtNtNtNtCs6sq8b9ugfBC_4core5slice4sort6shared9smallsort12sort4_stableTRShyENCINvMB8_SB19_20sort_unstable_by_keyB1a_NCNvMs_NtNtNtNtCsaLOjE9VYtxK_3std12backtrace_rs9symbolize5gimli5machoNtB20_6Object5parses_0E0EB28_, symObjAddr: 0xC730, symBinAddr: 0x10020B3D8, symSize: 0x180 }
  - { offset: 0xC5A9B, size: 0x8, addend: 0x0, symName: __RINvNtNtNtNtCs6sq8b9ugfBC_4core5slice4sort6shared9smallsort12sort8_stableTNtNtCsixjwb4TfRM4_5gimli6common15DebugInfoOffsetNtB1c_18DebugArangesOffsetENCINvMNtCs8dnTdrJsiec_5alloc5sliceSB19_11sort_by_keyB1a_NCNvMs_NtCs3S5NQbda6bJ_9addr2line4unitINtB3o_8ResUnitsINtNtNtB1e_4read12endian_slice11EndianSliceNtNtB1e_9endianity12LittleEndianEE5parse0E0ECsaLOjE9VYtxK_3std, symObjAddr: 0xC8B0, symBinAddr: 0x10020B558, symSize: 0x2B8 }
  - { offset: 0xC5FB8, size: 0x8, addend: 0x0, symName: __RINvNtNtNtNtCs6sq8b9ugfBC_4core5slice4sort6shared9smallsort18small_sort_generalTRShyENCINvMB8_SB1f_20sort_unstable_by_keyB1g_NCNvMs_NtNtNtNtCsaLOjE9VYtxK_3std12backtrace_rs9symbolize5gimli5machoNtB26_6Object5parses_0E0EB2e_, symObjAddr: 0xCB68, symBinAddr: 0x10020B810, symSize: 0x3E8 }
  - { offset: 0xC656F, size: 0x8, addend: 0x0, symName: __RINvNtNtNtNtCs6sq8b9ugfBC_4core5slice4sort6shared9smallsort18small_sort_generalTRShyENCINvMB8_SB1f_20sort_unstable_by_keyyNCNvMs_NtNtNtNtCsaLOjE9VYtxK_3std12backtrace_rs9symbolize5gimli5machoNtB23_6Object5parses0_0E0EB2b_, symObjAddr: 0xCF50, symBinAddr: 0x10020BBF8, symSize: 0x490 }
  - { offset: 0xC6CA8, size: 0x8, addend: 0x0, symName: __RINvNtNtNtNtCs6sq8b9ugfBC_4core5slice4sort6shared9smallsort25insertion_sort_shift_leftNtNtCs3S5NQbda6bJ_9addr2line4line12LineSequenceNCINvMNtCs8dnTdrJsiec_5alloc5sliceSB1m_11sort_by_keyyNCINvMs_B1o_NtB1o_5Lines5parseINtNtNtCsixjwb4TfRM4_5gimli4read12endian_slice11EndianSliceNtNtB3z_9endianity12LittleEndianEEs_0E0ECsaLOjE9VYtxK_3std, symObjAddr: 0xD3E0, symBinAddr: 0x10020C088, symSize: 0x94 }
  - { offset: 0xC6D87, size: 0x8, addend: 0x0, symName: __RINvNtNtNtNtCs6sq8b9ugfBC_4core5slice4sort6shared9smallsort25insertion_sort_shift_leftNtNtCs3S5NQbda6bJ_9addr2line8function22InlinedFunctionAddressNCINvMNtCs8dnTdrJsiec_5alloc5sliceSB1m_7sort_byNCNvMs1_B1o_INtB1o_8FunctionINtNtNtCsixjwb4TfRM4_5gimli4read12endian_slice11EndianSliceNtNtB3F_9endianity12LittleEndianEE5parse0E0ECsaLOjE9VYtxK_3std, symObjAddr: 0xD474, symBinAddr: 0x10020C11C, symSize: 0xB8 }
  - { offset: 0xC6EC0, size: 0x8, addend: 0x0, symName: __RINvNtNtNtNtCs6sq8b9ugfBC_4core5slice4sort6shared9smallsort25insertion_sort_shift_leftNtNtCsgmVNXhSCXCV_6object4read14ObjectMapEntryNCINvMNtCs8dnTdrJsiec_5alloc5sliceSB1m_11sort_by_keyyNCNvMs7_B1o_INtB1o_9SymbolMapB1m_E3new0E0ECsaLOjE9VYtxK_3std, symObjAddr: 0xD52C, symBinAddr: 0x10020C1D4, symSize: 0xA8 }
  - { offset: 0xC6F91, size: 0x8, addend: 0x0, symName: __RINvNtNtNtNtCs6sq8b9ugfBC_4core5slice4sort6shared9smallsort25insertion_sort_shift_leftTRShyENCINvMB8_SB1m_20sort_unstable_by_keyB1n_NCNvMs_NtNtNtNtCsaLOjE9VYtxK_3std12backtrace_rs9symbolize5gimli5machoNtB2d_6Object5parses_0E0EB2l_, symObjAddr: 0xD5D4, symBinAddr: 0x10020C27C, symSize: 0xF4 }
  - { offset: 0xC73BF, size: 0x8, addend: 0x0, symName: __RINvNtNtNtNtCs6sq8b9ugfBC_4core5slice4sort6shared5pivot11median3_recNtNtCs3S5NQbda6bJ_9addr2line4line12LineSequenceNCINvMNtCs8dnTdrJsiec_5alloc5sliceSB14_11sort_by_keyyNCINvMs_B16_NtB16_5Lines5parseINtNtNtCsixjwb4TfRM4_5gimli4read12endian_slice11EndianSliceNtNtB3h_9endianity12LittleEndianEEs_0E0ECsaLOjE9VYtxK_3std, symObjAddr: 0xBE94, symBinAddr: 0x10020AB3C, symSize: 0xCC }
  - { offset: 0xC74C1, size: 0x8, addend: 0x0, symName: __RINvNtNtNtNtCs6sq8b9ugfBC_4core5slice4sort6shared5pivot11median3_recNtNtCs3S5NQbda6bJ_9addr2line4unit9UnitRangeNCINvMNtCs8dnTdrJsiec_5alloc5sliceSB14_11sort_by_keyyNCNvMs_B16_INtB16_8ResUnitsINtNtNtCsixjwb4TfRM4_5gimli4read12endian_slice11EndianSliceNtNtB3a_9endianity12LittleEndianEE5parses2_0E0ECsaLOjE9VYtxK_3std, symObjAddr: 0xBF60, symBinAddr: 0x10020AC08, symSize: 0xCC }
  - { offset: 0xC75C3, size: 0x8, addend: 0x0, symName: __RINvNtNtNtNtCs6sq8b9ugfBC_4core5slice4sort6shared5pivot11median3_recNtNtCs3S5NQbda6bJ_9addr2line8function15FunctionAddressNCINvMNtCs8dnTdrJsiec_5alloc5sliceSB14_11sort_by_keyyNCNvMs0_B16_INtB16_9FunctionsINtNtNtCsixjwb4TfRM4_5gimli4read12endian_slice11EndianSliceNtNtB3n_9endianity12LittleEndianEE5parses_0E0ECsaLOjE9VYtxK_3std, symObjAddr: 0xC02C, symBinAddr: 0x10020ACD4, symSize: 0xD0 }
  - { offset: 0xC76C5, size: 0x8, addend: 0x0, symName: __RINvNtNtNtNtCs6sq8b9ugfBC_4core5slice4sort6shared5pivot11median3_recNtNtCs3S5NQbda6bJ_9addr2line8function22InlinedFunctionAddressNCINvMNtCs8dnTdrJsiec_5alloc5sliceSB14_7sort_byNCNvMs1_B16_INtB16_8FunctionINtNtNtCsixjwb4TfRM4_5gimli4read12endian_slice11EndianSliceNtNtB3n_9endianity12LittleEndianEE5parse0E0ECsaLOjE9VYtxK_3std, symObjAddr: 0xC0FC, symBinAddr: 0x10020ADA4, symSize: 0x118 }
  - { offset: 0xC77CA, size: 0x8, addend: 0x0, symName: __RINvNtNtNtNtCs6sq8b9ugfBC_4core5slice4sort6shared5pivot11median3_recNtNtCsgmVNXhSCXCV_6object4read14ObjectMapEntryNCINvMNtCs8dnTdrJsiec_5alloc5sliceSB14_11sort_by_keyyNCNvMs7_B16_INtB16_9SymbolMapB14_E3new0E0ECsaLOjE9VYtxK_3std, symObjAddr: 0xC214, symBinAddr: 0x10020AEBC, symSize: 0xD0 }
  - { offset: 0xC78CC, size: 0x8, addend: 0x0, symName: __RINvNtNtNtNtCs6sq8b9ugfBC_4core5slice4sort6shared5pivot11median3_recTNtNtCsixjwb4TfRM4_5gimli6common15DebugInfoOffsetNtB17_18DebugArangesOffsetENCINvMNtCs8dnTdrJsiec_5alloc5sliceSB14_11sort_by_keyB15_NCNvMs_NtCs3S5NQbda6bJ_9addr2line4unitINtB3j_8ResUnitsINtNtNtB19_4read12endian_slice11EndianSliceNtNtB19_9endianity12LittleEndianEE5parse0E0ECsaLOjE9VYtxK_3std, symObjAddr: 0xC2E4, symBinAddr: 0x10020AF8C, symSize: 0xCC }
  - { offset: 0xC79FC, size: 0x8, addend: 0x0, symName: __RINvNtNtNtNtCs6sq8b9ugfBC_4core5slice4sort6shared5pivot11median3_recTRShyENCINvMB8_SB14_20sort_unstable_by_keyB15_NCNvMs_NtNtNtNtCsaLOjE9VYtxK_3std12backtrace_rs9symbolize5gimli5machoNtB1V_6Object5parses_0E0EB23_, symObjAddr: 0xC3B0, symBinAddr: 0x10020B058, symSize: 0x134 }
  - { offset: 0xC7C3A, size: 0x8, addend: 0x0, symName: __RINvNtNtNtNtCs6sq8b9ugfBC_4core5slice4sort6shared5pivot11median3_recTRShyENCINvMB8_SB14_20sort_unstable_by_keyyNCNvMs_NtNtNtNtCsaLOjE9VYtxK_3std12backtrace_rs9symbolize5gimli5machoNtB1S_6Object5parses0_0E0EB20_, symObjAddr: 0xC4E4, symBinAddr: 0x10020B18C, symSize: 0xD0 }
  - { offset: 0xC7DEF, size: 0x8, addend: 0x0, symName: __RINvNtNtNtCs6sq8b9ugfBC_4core5slice4sort8unstable7ipnsortTRShyENCINvMB6_SBT_20sort_unstable_by_keyBU_NCNvMs_NtNtNtNtCsaLOjE9VYtxK_3std12backtrace_rs9symbolize5gimli5machoNtB1I_6Object5parses_0E0EB1Q_, symObjAddr: 0xB624, symBinAddr: 0x10020A8A8, symSize: 0x1A8 }
  - { offset: 0xC80D1, size: 0x8, addend: 0x0, symName: __RINvNtNtNtCs6sq8b9ugfBC_4core5slice4sort8unstable7ipnsortTRShyENCINvMB6_SBT_20sort_unstable_by_keyyNCNvMs_NtNtNtNtCsaLOjE9VYtxK_3std12backtrace_rs9symbolize5gimli5machoNtB1G_6Object5parses0_0E0EB1O_, symObjAddr: 0xB7CC, symBinAddr: 0x10020AA50, symSize: 0xEC }
  - { offset: 0xC8233, size: 0x8, addend: 0x0, symName: __RINvNtNtNtNtCs6sq8b9ugfBC_4core5slice4sort8unstable8heapsort8heapsortTRShyENCINvMB8_SB15_20sort_unstable_by_keyB16_NCNvMs_NtNtNtNtCsaLOjE9VYtxK_3std12backtrace_rs9symbolize5gimli5machoNtB1W_6Object5parses_0E0EB24_, symObjAddr: 0x122A4, symBinAddr: 0x100210F4C, symSize: 0x160 }
  - { offset: 0xC854D, size: 0x8, addend: 0x0, symName: __RINvNtNtNtNtCs6sq8b9ugfBC_4core5slice4sort8unstable8heapsort8heapsortTRShyENCINvMB8_SB15_20sort_unstable_by_keyyNCNvMs_NtNtNtNtCsaLOjE9VYtxK_3std12backtrace_rs9symbolize5gimli5machoNtB1T_6Object5parses0_0E0EB21_, symObjAddr: 0x12404, symBinAddr: 0x1002110AC, symSize: 0x100 }
  - { offset: 0xC8805, size: 0x8, addend: 0x0, symName: __RINvNtNtNtNtCs6sq8b9ugfBC_4core5slice4sort8unstable9quicksort9quicksortTRShyENCINvMB8_SB17_20sort_unstable_by_keyB18_NCNvMs_NtNtNtNtCsaLOjE9VYtxK_3std12backtrace_rs9symbolize5gimli5machoNtB1Y_6Object5parses_0E0EB26_, symObjAddr: 0x12504, symBinAddr: 0x1002111AC, symSize: 0x510 }
  - { offset: 0xC92BF, size: 0x8, addend: 0x0, symName: __RINvNtNtNtNtCs6sq8b9ugfBC_4core5slice4sort8unstable9quicksort9quicksortTRShyENCINvMB8_SB17_20sort_unstable_by_keyyNCNvMs_NtNtNtNtCsaLOjE9VYtxK_3std12backtrace_rs9symbolize5gimli5machoNtB1V_6Object5parses0_0E0EB23_, symObjAddr: 0x12A14, symBinAddr: 0x1002116BC, symSize: 0x3D8 }
  - { offset: 0xCC00E, size: 0x8, addend: 0x0, symName: __RINvNtCs6sq8b9ugfBC_4core3ptr13drop_in_placeINtCs3S5NQbda6bJ_9addr2line7ContextINtNtNtCsixjwb4TfRM4_5gimli4read12endian_slice11EndianSliceNtNtB1m_9endianity12LittleEndianEEECsaLOjE9VYtxK_3std, symObjAddr: 0x58DC, symBinAddr: 0x100204E18, symSize: 0x70 }
  - { offset: 0xCC0C0, size: 0x8, addend: 0x0, symName: __RINvNtCs6sq8b9ugfBC_4core3ptr13drop_in_placeINtNtB4_3pin3PinINtNtCs8dnTdrJsiec_5alloc5boxed3BoxNtNtNtNtNtNtCsaLOjE9VYtxK_3std3sys3pal4unix4sync5mutex5MutexEEEB1H_, symObjAddr: 0x594C, symBinAddr: 0x100204E88, symSize: 0x2C }
  - { offset: 0xCC198, size: 0x8, addend: 0x0, symName: __RINvNtCs6sq8b9ugfBC_4core3ptr13drop_in_placeINtNtB4_6option6OptionINtNtCs8dnTdrJsiec_5alloc5boxed3BoxSmEEECsaLOjE9VYtxK_3std, symObjAddr: 0x5978, symBinAddr: 0x100204EB4, symSize: 0x24 }
  - { offset: 0xCC261, size: 0x8, addend: 0x0, symName: __RINvNtCs6sq8b9ugfBC_4core3ptr13drop_in_placeINtNtB4_6option6OptionINtNtNtCsixjwb4TfRM4_5gimli4read4line21IncompleteLineProgramINtNtB17_12endian_slice11EndianSliceNtNtB19_9endianity12LittleEndianEjEEECsaLOjE9VYtxK_3std, symObjAddr: 0x599C, symBinAddr: 0x100204ED8, symSize: 0x98 }
  - { offset: 0xCC5BA, size: 0x8, addend: 0x0, symName: __RINvNtCs6sq8b9ugfBC_4core3ptr13drop_in_placeINtNtB4_6option6OptionNtNtCsaLOjE9VYtxK_3std7process10ChildStdinEEB16_, symObjAddr: 0x5A34, symBinAddr: 0x100204F70, symSize: 0x14 }
  - { offset: 0xCC67E, size: 0x8, addend: 0x0, symName: __RINvNtCs6sq8b9ugfBC_4core3ptr13drop_in_placeINtNtB4_6option6OptionNtNtCsgmVNXhSCXCV_6object4read9ObjectMapEECsaLOjE9VYtxK_3std, symObjAddr: 0x5A48, symBinAddr: 0x100204F84, symSize: 0x64 }
  - { offset: 0xCC84B, size: 0x8, addend: 0x0, symName: __RINvNtCs6sq8b9ugfBC_4core3ptr13drop_in_placeINtNtB4_6option6OptionNtNtNtCs8dnTdrJsiec_5alloc3ffi5c_str7CStringEECsaLOjE9VYtxK_3std, symObjAddr: 0x5AAC, symBinAddr: 0x100204FE8, symSize: 0x24 }
  - { offset: 0xCC931, size: 0x8, addend: 0x0, symName: __RINvNtCs6sq8b9ugfBC_4core3ptr13drop_in_placeINtNtB4_6option6OptionNtNtNtNtCsaLOjE9VYtxK_3std12backtrace_rs9symbolize5gimli7MappingEEB1a_, symObjAddr: 0x5AD0, symBinAddr: 0x10020500C, symSize: 0x6C }
  - { offset: 0xCC9C5, size: 0x8, addend: 0x0, symName: __RINvNtCs6sq8b9ugfBC_4core3ptr13drop_in_placeINtNtB4_6option6OptionNtNtNtNtNtCsaLOjE9VYtxK_3std3sys7process4unix6common5StdioEEB1c_, symObjAddr: 0x5B3C, symBinAddr: 0x100205078, symSize: 0x18 }
  - { offset: 0xCCA7B, size: 0x8, addend: 0x0, symName: __RINvNtCs6sq8b9ugfBC_4core3ptr13drop_in_placeINtNtB4_6result6ResultINtNtB4_6option6OptionINtNtCs8dnTdrJsiec_5alloc5boxed3BoxINtNtCs3S5NQbda6bJ_9addr2line4unit7DwoUnitINtNtNtCsixjwb4TfRM4_5gimli4read12endian_slice11EndianSliceNtNtB2K_9endianity12LittleEndianEEEENtB2I_5ErrorEECsaLOjE9VYtxK_3std, symObjAddr: 0x5B54, symBinAddr: 0x100205090, symSize: 0xD4 }
  - { offset: 0xCCD19, size: 0x8, addend: 0x0, symName: __RINvNtCs6sq8b9ugfBC_4core3ptr13drop_in_placeINtNtB4_6result6ResultINtNtCs3S5NQbda6bJ_9addr2line5frame9FrameIterINtNtNtCsixjwb4TfRM4_5gimli4read12endian_slice11EndianSliceNtNtB1S_9endianity12LittleEndianEENtB1Q_5ErrorEECsaLOjE9VYtxK_3std, symObjAddr: 0x5C28, symBinAddr: 0x100205164, symSize: 0x2C }
  - { offset: 0xCCE91, size: 0x8, addend: 0x0, symName: __RINvNtCs6sq8b9ugfBC_4core3ptr13drop_in_placeINtNtB4_6result6ResultINtNtCs3S5NQbda6bJ_9addr2line8function9FunctionsINtNtNtCsixjwb4TfRM4_5gimli4read12endian_slice11EndianSliceNtNtB1V_9endianity12LittleEndianEENtB1T_5ErrorEECsaLOjE9VYtxK_3std, symObjAddr: 0x5C54, symBinAddr: 0x100205190, symSize: 0xD8 }
  - { offset: 0xCD1F5, size: 0x8, addend: 0x0, symName: __RINvNtCs6sq8b9ugfBC_4core3ptr13drop_in_placeINtNtB4_6result6ResultINtNtNtNtCsaLOjE9VYtxK_3std4sync6poison5mutex10MutexGuarduEINtB17_11PoisonErrorB12_EEEB1b_, symObjAddr: 0x5D2C, symBinAddr: 0x100205268, symSize: 0x4C }
  - { offset: 0xCD233, size: 0x8, addend: 0x0, symName: __RINvNtCs6sq8b9ugfBC_4core3ptr13drop_in_placeINtNtB4_6result6ResultNtNtCs3S5NQbda6bJ_9addr2line4line5LinesNtNtCsixjwb4TfRM4_5gimli4read5ErrorEECsaLOjE9VYtxK_3std, symObjAddr: 0x5D78, symBinAddr: 0x1002052B4, symSize: 0xE4 }
  - { offset: 0xCD574, size: 0x8, addend: 0x0, symName: __RINvNtCs6sq8b9ugfBC_4core3ptr13drop_in_placeINtNtB4_6result6ResultNtNtCsaLOjE9VYtxK_3std4path7PathBufNtNtNtB16_2io5error5ErrorEEB16_, symObjAddr: 0x5E5C, symBinAddr: 0x100205398, symSize: 0x2C }
  - { offset: 0xCD680, size: 0x8, addend: 0x0, symName: __RINvNtCs6sq8b9ugfBC_4core3ptr13drop_in_placeINtNtB4_6result6ResultRIBH_INtNtB4_6option6OptionINtNtCs8dnTdrJsiec_5alloc5boxed3BoxINtNtCs3S5NQbda6bJ_9addr2line4unit7DwoUnitINtNtNtCsixjwb4TfRM4_5gimli4read12endian_slice11EndianSliceNtNtB2P_9endianity12LittleEndianEEEENtB2N_5ErrorETB12_B13_EEECsaLOjE9VYtxK_3std, symObjAddr: 0x5E88, symBinAddr: 0x1002053C4, symSize: 0x14 }
  - { offset: 0xCD6C0, size: 0x8, addend: 0x0, symName: __RINvNtCs6sq8b9ugfBC_4core3ptr13drop_in_placeINtNtB4_6result6ResultRIBH_INtNtCs3S5NQbda6bJ_9addr2line8function8FunctionINtNtNtCsixjwb4TfRM4_5gimli4read12endian_slice11EndianSliceNtNtB1Z_9endianity12LittleEndianEENtB1X_5ErrorETB12_B13_EEECsaLOjE9VYtxK_3std, symObjAddr: 0x5E9C, symBinAddr: 0x1002053D8, symSize: 0x64 }
  - { offset: 0xCD887, size: 0x8, addend: 0x0, symName: __RINvNtCs6sq8b9ugfBC_4core3ptr13drop_in_placeINtNtB4_6result6ResultRIBH_INtNtCs3S5NQbda6bJ_9addr2line8function9FunctionsINtNtNtCsixjwb4TfRM4_5gimli4read12endian_slice11EndianSliceNtNtB20_9endianity12LittleEndianEENtB1Y_5ErrorETB12_B13_EEECsaLOjE9VYtxK_3std, symObjAddr: 0x5F00, symBinAddr: 0x10020543C, symSize: 0x10 }
  - { offset: 0xCD8C7, size: 0x8, addend: 0x0, symName: __RINvNtCs6sq8b9ugfBC_4core3ptr13drop_in_placeINtNtB4_6result6ResultRIBH_NtNtCs3S5NQbda6bJ_9addr2line4line5LinesNtNtCsixjwb4TfRM4_5gimli4read5ErrorETB12_B13_EEECsaLOjE9VYtxK_3std, symObjAddr: 0x5F10, symBinAddr: 0x10020544C, symSize: 0x10 }
  - { offset: 0xCD931, size: 0x8, addend: 0x0, symName: __RINvNtCs6sq8b9ugfBC_4core3ptr13drop_in_placeINtNtB4_6result6ResultRNtNtNtCsaLOjE9VYtxK_3std6thread6thread6ThreadTB12_B13_EEEB19_, symObjAddr: 0x5F20, symBinAddr: 0x10020545C, symSize: 0x28 }
  - { offset: 0xCDA2F, size: 0x8, addend: 0x0, symName: __RINvNtCs6sq8b9ugfBC_4core3ptr13drop_in_placeINtNtB4_6result6ResultjNtNtNtCsaLOjE9VYtxK_3std2io5error5ErrorEEB19_, symObjAddr: 0x5F48, symBinAddr: 0x100205484, symSize: 0x10 }
  - { offset: 0xCDA43, size: 0x8, addend: 0x0, symName: __RINvNtCs6sq8b9ugfBC_4core3ptr13drop_in_placeINtNtB4_6result6ResultuNtNtNtCsaLOjE9VYtxK_3std2io5error5ErrorEEB19_, symObjAddr: 0x5F58, symBinAddr: 0x100205494, symSize: 0x10 }
  - { offset: 0xCDAF1, size: 0x8, addend: 0x0, symName: __RINvNtCs6sq8b9ugfBC_4core3ptr13drop_in_placeINtNtCs3S5NQbda6bJ_9addr2line4unit7ResUnitINtNtNtCsixjwb4TfRM4_5gimli4read12endian_slice11EndianSliceNtNtB1t_9endianity12LittleEndianEEECsaLOjE9VYtxK_3std, symObjAddr: 0x5F68, symBinAddr: 0x1002054A4, symSize: 0xE4 }
  - { offset: 0xCDD2D, size: 0x8, addend: 0x0, symName: __RINvNtCs6sq8b9ugfBC_4core3ptr13drop_in_placeINtNtCs3S5NQbda6bJ_9addr2line4unit7SupUnitINtNtNtCsixjwb4TfRM4_5gimli4read12endian_slice11EndianSliceNtNtB1t_9endianity12LittleEndianEEECsaLOjE9VYtxK_3std, symObjAddr: 0x604C, symBinAddr: 0x100205588, symSize: 0x54 }
  - { offset: 0xCDE10, size: 0x8, addend: 0x0, symName: __RINvNtCs6sq8b9ugfBC_4core3ptr13drop_in_placeINtNtCs3S5NQbda6bJ_9addr2line4unit8ResUnitsINtNtNtCsixjwb4TfRM4_5gimli4read12endian_slice11EndianSliceNtNtB1u_9endianity12LittleEndianEEECsaLOjE9VYtxK_3std, symObjAddr: 0x60A0, symBinAddr: 0x1002055DC, symSize: 0xD0 }
  - { offset: 0xCE051, size: 0x8, addend: 0x0, symName: __RINvNtCs6sq8b9ugfBC_4core3ptr13drop_in_placeINtNtCs3S5NQbda6bJ_9addr2line4unit8SupUnitsINtNtNtCsixjwb4TfRM4_5gimli4read12endian_slice11EndianSliceNtNtB1u_9endianity12LittleEndianEEECsaLOjE9VYtxK_3std, symObjAddr: 0x6170, symBinAddr: 0x1002056AC, symSize: 0xE4 }
  - { offset: 0xCE27E, size: 0x8, addend: 0x0, symName: __RINvNtCs6sq8b9ugfBC_4core3ptr13drop_in_placeINtNtCs8dnTdrJsiec_5alloc3vec3VecINtNtB4_6option6OptionIB1e_NtNtNtNtCsaLOjE9VYtxK_3std12backtrace_rs9symbolize5gimli7MappingEEEEB1M_, symObjAddr: 0x62B8, symBinAddr: 0x100205790, symSize: 0x78 }
  - { offset: 0xCE44F, size: 0x8, addend: 0x0, symName: __RINvNtCs6sq8b9ugfBC_4core3ptr13drop_in_placeINtNtCs8dnTdrJsiec_5alloc3vec3VecINtNtBL_5boxed3BoxDINtNtNtB4_3ops8function6FnOnceuEp6OutputuNtNtB4_6marker4SendEL_EEECsaLOjE9VYtxK_3std, symObjAddr: 0x6330, symBinAddr: 0x100205808, symSize: 0x70 }
  - { offset: 0xCE627, size: 0x8, addend: 0x0, symName: __RINvNtCs6sq8b9ugfBC_4core3ptr13drop_in_placeINtNtCs8dnTdrJsiec_5alloc3vec3VecINtNtCs3S5NQbda6bJ_9addr2line4unit7ResUnitINtNtNtCsixjwb4TfRM4_5gimli4read12endian_slice11EndianSliceNtNtB20_9endianity12LittleEndianEEEECsaLOjE9VYtxK_3std, symObjAddr: 0x63A0, symBinAddr: 0x100205878, symSize: 0xC4 }
  - { offset: 0xCE7FF, size: 0x8, addend: 0x0, symName: __RINvNtCs6sq8b9ugfBC_4core3ptr13drop_in_placeINtNtCs8dnTdrJsiec_5alloc3vec3VecINtNtCs3S5NQbda6bJ_9addr2line4unit7SupUnitINtNtNtCsixjwb4TfRM4_5gimli4read12endian_slice11EndianSliceNtNtB20_9endianity12LittleEndianEEEECsaLOjE9VYtxK_3std, symObjAddr: 0x6464, symBinAddr: 0x10020593C, symSize: 0xF4 }
  - { offset: 0xCEA7C, size: 0x8, addend: 0x0, symName: __RINvNtCs6sq8b9ugfBC_4core3ptr13drop_in_placeINtNtCs8dnTdrJsiec_5alloc3vec3VecINtNtCs3S5NQbda6bJ_9addr2line8function12LazyFunctionINtNtNtCsixjwb4TfRM4_5gimli4read12endian_slice11EndianSliceNtNtB2a_9endianity12LittleEndianEEEECsaLOjE9VYtxK_3std, symObjAddr: 0x6558, symBinAddr: 0x100205A30, symSize: 0xAC }
  - { offset: 0xCED4D, size: 0x8, addend: 0x0, symName: __RINvNtCs6sq8b9ugfBC_4core3ptr13drop_in_placeINtNtCs8dnTdrJsiec_5alloc3vec3VecNtNtCs3S5NQbda6bJ_9addr2line4line12LineSequenceEECsaLOjE9VYtxK_3std, symObjAddr: 0x6684, symBinAddr: 0x100205ADC, symSize: 0x84 }
  - { offset: 0xCEF55, size: 0x8, addend: 0x0, symName: __RINvNtCs6sq8b9ugfBC_4core3ptr13drop_in_placeINtNtCs8dnTdrJsiec_5alloc3vec3VecTNtNtNtCsaLOjE9VYtxK_3std3ffi6os_str8OsStringB1e_EEEB1k_, symObjAddr: 0x6788, symBinAddr: 0x100205B60, symSize: 0x94 }
  - { offset: 0xCF20E, size: 0x8, addend: 0x0, symName: __RINvNtCs6sq8b9ugfBC_4core3ptr13drop_in_placeINtNtCs8dnTdrJsiec_5alloc3vec3VechEECsaLOjE9VYtxK_3std, symObjAddr: 0x681C, symBinAddr: 0x100205BF4, symSize: 0x18 }
  - { offset: 0xCF2C0, size: 0x8, addend: 0x0, symName: __RINvNtCs6sq8b9ugfBC_4core3ptr13drop_in_placeINtNtCs8dnTdrJsiec_5alloc4sync3ArcINtNtNtNtCsaLOjE9VYtxK_3std4sync6poison5mutex5MutexINtNtBL_3vec3VechEEEEB1n_, symObjAddr: 0x6834, symBinAddr: 0x100205C0C, symSize: 0x20 }
  - { offset: 0xCF2D8, size: 0x8, addend: 0x0, symName: __RINvNtCs6sq8b9ugfBC_4core3ptr13drop_in_placeINtNtCs8dnTdrJsiec_5alloc4sync3ArcINtNtNtNtCsaLOjE9VYtxK_3std4sync6poison5mutex5MutexINtNtBL_3vec3VechEEEEB1n_, symObjAddr: 0x6834, symBinAddr: 0x100205C0C, symSize: 0x20 }
  - { offset: 0xCF2EE, size: 0x8, addend: 0x0, symName: __RINvNtCs6sq8b9ugfBC_4core3ptr13drop_in_placeINtNtCs8dnTdrJsiec_5alloc4sync3ArcINtNtNtNtCsaLOjE9VYtxK_3std4sync6poison5mutex5MutexINtNtBL_3vec3VechEEEEB1n_, symObjAddr: 0x6834, symBinAddr: 0x100205C0C, symSize: 0x20 }
  - { offset: 0xCF304, size: 0x8, addend: 0x0, symName: __RINvNtCs6sq8b9ugfBC_4core3ptr13drop_in_placeINtNtCs8dnTdrJsiec_5alloc4sync3ArcINtNtNtNtCsaLOjE9VYtxK_3std4sync6poison5mutex5MutexINtNtBL_3vec3VechEEEEB1n_, symObjAddr: 0x6834, symBinAddr: 0x100205C0C, symSize: 0x20 }
  - { offset: 0xCF35B, size: 0x8, addend: 0x0, symName: __RINvNtCs6sq8b9ugfBC_4core3ptr13drop_in_placeINtNtCs8dnTdrJsiec_5alloc4sync3ArcNtNtNtCsaLOjE9VYtxK_3std6thread9spawnhook9SpawnHookEEB1k_, symObjAddr: 0x6854, symBinAddr: 0x100205C2C, symSize: 0x20 }
  - { offset: 0xCF373, size: 0x8, addend: 0x0, symName: __RINvNtCs6sq8b9ugfBC_4core3ptr13drop_in_placeINtNtCs8dnTdrJsiec_5alloc4sync3ArcNtNtNtCsaLOjE9VYtxK_3std6thread9spawnhook9SpawnHookEEB1k_, symObjAddr: 0x6854, symBinAddr: 0x100205C2C, symSize: 0x20 }
  - { offset: 0xCF389, size: 0x8, addend: 0x0, symName: __RINvNtCs6sq8b9ugfBC_4core3ptr13drop_in_placeINtNtCs8dnTdrJsiec_5alloc4sync3ArcNtNtNtCsaLOjE9VYtxK_3std6thread9spawnhook9SpawnHookEEB1k_, symObjAddr: 0x6854, symBinAddr: 0x100205C2C, symSize: 0x20 }
  - { offset: 0xCF39F, size: 0x8, addend: 0x0, symName: __RINvNtCs6sq8b9ugfBC_4core3ptr13drop_in_placeINtNtCs8dnTdrJsiec_5alloc4sync3ArcNtNtNtCsaLOjE9VYtxK_3std6thread9spawnhook9SpawnHookEEB1k_, symObjAddr: 0x6854, symBinAddr: 0x100205C2C, symSize: 0x20 }
  - { offset: 0xCF412, size: 0x8, addend: 0x0, symName: __RINvNtCs6sq8b9ugfBC_4core3ptr13drop_in_placeINtNtCs8dnTdrJsiec_5alloc4sync8ArcInnerINtNtNtCsixjwb4TfRM4_5gimli4read5dwarf5DwarfINtNtB1o_12endian_slice11EndianSliceNtNtB1q_9endianity12LittleEndianEEEECsaLOjE9VYtxK_3std, symObjAddr: 0x6874, symBinAddr: 0x100205C4C, symSize: 0x5C }
  - { offset: 0xCF4D0, size: 0x8, addend: 0x0, symName: __RINvNtCs6sq8b9ugfBC_4core3ptr13drop_in_placeINtNtCs8dnTdrJsiec_5alloc4sync8ArcInnerNtNtNtNtCsaLOjE9VYtxK_3std3sys2fs4unix12InnerReadDirEEB1r_, symObjAddr: 0x68D0, symBinAddr: 0x100205CA8, symSize: 0x60 }
  - { offset: 0xCF6E3, size: 0x8, addend: 0x0, symName: __RINvNtCs6sq8b9ugfBC_4core3ptr13drop_in_placeINtNtCs8dnTdrJsiec_5alloc5boxed3BoxDG0_INtNtNtB4_3ops8function2FnTRL1_INtNtCsaLOjE9VYtxK_3std5panic13PanicHookInfoL0_EEEp6OutputuNtNtB4_6marker4SyncNtB2N_4SendEL_EEB1T_, symObjAddr: 0x6930, symBinAddr: 0x100205D08, symSize: 0x78 }
  - { offset: 0xCF894, size: 0x8, addend: 0x0, symName: __RINvNtCs6sq8b9ugfBC_4core3ptr13drop_in_placeINtNtCs8dnTdrJsiec_5alloc5boxed3BoxNtNtNtCsaLOjE9VYtxK_3std6thread9lifecycle10ThreadInitEEB1l_, symObjAddr: 0x69A8, symBinAddr: 0x100205D80, symSize: 0xAC }
  - { offset: 0xCFC17, size: 0x8, addend: 0x0, symName: __RINvNtCs6sq8b9ugfBC_4core3ptr13drop_in_placeINtNtCs8dnTdrJsiec_5alloc5boxed3BoxSINtNtB4_6option6OptionIB1h_NtNtNtNtCsaLOjE9VYtxK_3std12backtrace_rs9symbolize5gimli7MappingEEEEB1P_, symObjAddr: 0x6A54, symBinAddr: 0x100205E2C, symSize: 0xF8 }
  - { offset: 0xCFD99, size: 0x8, addend: 0x0, symName: __RINvNtCs6sq8b9ugfBC_4core3ptr13drop_in_placeINtNtCs8dnTdrJsiec_5alloc5boxed3BoxSINtNtCs3S5NQbda6bJ_9addr2line8function12LazyFunctionINtNtNtCsixjwb4TfRM4_5gimli4read12endian_slice11EndianSliceNtNtB2d_9endianity12LittleEndianEEEECsaLOjE9VYtxK_3std, symObjAddr: 0x6B4C, symBinAddr: 0x100205F24, symSize: 0x9C }
  - { offset: 0xCFDB1, size: 0x8, addend: 0x0, symName: __RINvNtCs6sq8b9ugfBC_4core3ptr13drop_in_placeINtNtCs8dnTdrJsiec_5alloc5boxed3BoxSINtNtCs3S5NQbda6bJ_9addr2line8function12LazyFunctionINtNtNtCsixjwb4TfRM4_5gimli4read12endian_slice11EndianSliceNtNtB2d_9endianity12LittleEndianEEEECsaLOjE9VYtxK_3std, symObjAddr: 0x6B4C, symBinAddr: 0x100205F24, symSize: 0x9C }
  - { offset: 0xD0024, size: 0x8, addend: 0x0, symName: __RINvNtCs6sq8b9ugfBC_4core3ptr13drop_in_placeINtNtCs8dnTdrJsiec_5alloc5boxed3BoxSNtNtBL_6string6StringEECsaLOjE9VYtxK_3std, symObjAddr: 0x6BE8, symBinAddr: 0x100205FC0, symSize: 0x70 }
  - { offset: 0xD003C, size: 0x8, addend: 0x0, symName: __RINvNtCs6sq8b9ugfBC_4core3ptr13drop_in_placeINtNtCs8dnTdrJsiec_5alloc5boxed3BoxSNtNtBL_6string6StringEECsaLOjE9VYtxK_3std, symObjAddr: 0x6BE8, symBinAddr: 0x100205FC0, symSize: 0x70 }
  - { offset: 0xD01A0, size: 0x8, addend: 0x0, symName: __RINvNtCs6sq8b9ugfBC_4core3ptr13drop_in_placeINtNtNtB4_3mem10drop_guard9DropGuardQINtNtBL_12maybe_uninit11MaybeUninitNtNtNtNtNtNtNtCs90KNAEDKYN5_4libc3new5apple10libpthread3sys8__pthread14__pthread_types14pthread_attr_tENCNvMs0_NtNtNtCsaLOjE9VYtxK_3std3sys6thread4unixNtB3D_6Thread3new0EEB3J_, symObjAddr: 0x6C58, symBinAddr: 0x100206030, symSize: 0x44 }
  - { offset: 0xD01DF, size: 0x8, addend: 0x0, symName: __RINvNtCs6sq8b9ugfBC_4core3ptr13drop_in_placeINtNtNtCs8dnTdrJsiec_5alloc3vec9into_iter8IntoIterINtNtBN_5boxed3BoxDINtNtNtB4_3ops8function6FnOnceuEp6OutputuNtNtB4_6marker4SendEL_EEECsaLOjE9VYtxK_3std, symObjAddr: 0x6C9C, symBinAddr: 0x100206074, symSize: 0x74 }
  - { offset: 0xD0480, size: 0x8, addend: 0x0, symName: __RINvNtCs6sq8b9ugfBC_4core3ptr13drop_in_placeINtNtNtCsixjwb4TfRM4_5gimli4read4line8LineRowsINtNtBL_12endian_slice11EndianSliceNtNtBN_9endianity12LittleEndianEINtBJ_21IncompleteLineProgramB1q_jEjEECsaLOjE9VYtxK_3std, symObjAddr: 0x6D10, symBinAddr: 0x1002060E8, symSize: 0x8C }
  - { offset: 0xD07AF, size: 0x8, addend: 0x0, symName: __RINvNtCs6sq8b9ugfBC_4core3ptr13drop_in_placeINtNtNtCsixjwb4TfRM4_5gimli4read5dwarf4UnitINtNtBL_12endian_slice11EndianSliceNtNtBN_9endianity12LittleEndianEjEECsaLOjE9VYtxK_3std, symObjAddr: 0x6D9C, symBinAddr: 0x100206174, symSize: 0x54 }
  - { offset: 0xD0851, size: 0x8, addend: 0x0, symName: __RINvNtCs6sq8b9ugfBC_4core3ptr13drop_in_placeINtNtNtCsixjwb4TfRM4_5gimli4read5dwarf5DwarfINtNtBL_12endian_slice11EndianSliceNtNtBN_9endianity12LittleEndianEEECsaLOjE9VYtxK_3std, symObjAddr: 0x6DF0, symBinAddr: 0x1002061C8, symSize: 0x58 }
  - { offset: 0xD0917, size: 0x8, addend: 0x0, symName: __RINvNtCs6sq8b9ugfBC_4core3ptr13drop_in_placeINtNtNtNtCs8dnTdrJsiec_5alloc11collections5btree3map8BTreeMapNtNtNtCsaLOjE9VYtxK_3std3ffi6os_str8OsStringB1F_EEB1L_, symObjAddr: 0x6E48, symBinAddr: 0x100206220, symSize: 0xB8 }
  - { offset: 0xD0BF0, size: 0x8, addend: 0x0, symName: __RINvNtCs6sq8b9ugfBC_4core3ptr13drop_in_placeINtNtNtNtCs8dnTdrJsiec_5alloc11collections5btree3map8BTreeMapNtNtNtCsaLOjE9VYtxK_3std3ffi6os_str8OsStringINtNtB4_6option6OptionB1F_EEEB1L_, symObjAddr: 0x6F00, symBinAddr: 0x1002062D8, symSize: 0xBC }
  - { offset: 0xD0EB2, size: 0x8, addend: 0x0, symName: __RINvNtCs6sq8b9ugfBC_4core3ptr13drop_in_placeINtNtNtNtCs8dnTdrJsiec_5alloc11collections5btree3map8IntoIterNtNtNtCsaLOjE9VYtxK_3std3ffi6os_str8OsStringB1F_EEB1L_, symObjAddr: 0x6FBC, symBinAddr: 0x100206394, symSize: 0x90 }
  - { offset: 0xD1111, size: 0x8, addend: 0x0, symName: __RINvNtCs6sq8b9ugfBC_4core3ptr13drop_in_placeINtNtNtNtCsaLOjE9VYtxK_3std2io8buffered10linewriter10LineWriterNtNtBN_5stdio9StdoutRawEEBP_, symObjAddr: 0x704C, symBinAddr: 0x100206424, symSize: 0x84 }
  - { offset: 0xD12CA, size: 0x8, addend: 0x0, symName: __RINvNtCs6sq8b9ugfBC_4core3ptr13drop_in_placeINtNtNtNtCsaLOjE9VYtxK_3std3sys16platform_version6darwin8DeferredNCNvBJ_18string_version_key0EEBP_, symObjAddr: 0x70D0, symBinAddr: 0x1002064A8, symSize: 0x7C }
  - { offset: 0xD1396, size: 0x8, addend: 0x0, symName: __RINvNtCs6sq8b9ugfBC_4core3ptr13drop_in_placeINtNtNtNtCsaLOjE9VYtxK_3std4sync6poison5mutex10MutexGuardINtNtCs8dnTdrJsiec_5alloc3vec3VechEEEBP_, symObjAddr: 0x714C, symBinAddr: 0x100206524, symSize: 0x54 }
  - { offset: 0xD13AE, size: 0x8, addend: 0x0, symName: __RINvNtCs6sq8b9ugfBC_4core3ptr13drop_in_placeINtNtNtNtCsaLOjE9VYtxK_3std4sync6poison5mutex10MutexGuardINtNtCs8dnTdrJsiec_5alloc3vec3VechEEEBP_, symObjAddr: 0x714C, symBinAddr: 0x100206524, symSize: 0x54 }
  - { offset: 0xD149B, size: 0x8, addend: 0x0, symName: __RINvNtCs6sq8b9ugfBC_4core3ptr13drop_in_placeINtNtNtNtCsaLOjE9VYtxK_3std4sync6poison6rwlock15RwLockReadGuarduEEBP_, symObjAddr: 0x71A0, symBinAddr: 0x100206578, symSize: 0x58 }
  - { offset: 0xD153D, size: 0x8, addend: 0x0, symName: __RINvNtCs6sq8b9ugfBC_4core3ptr13drop_in_placeINtNvNtCsaLOjE9VYtxK_3std2io17default_write_fmt7AdapterINtNtBL_6cursor6CursorQShEEEBN_, symObjAddr: 0x71F8, symBinAddr: 0x1002065D0, symSize: 0x10 }
  - { offset: 0xD1555, size: 0x8, addend: 0x0, symName: __RINvNtCs6sq8b9ugfBC_4core3ptr13drop_in_placeINtNvNtCsaLOjE9VYtxK_3std2io17default_write_fmt7AdapterINtNtBL_6cursor6CursorQShEEEBN_, symObjAddr: 0x71F8, symBinAddr: 0x1002065D0, symSize: 0x10 }
  - { offset: 0xD1584, size: 0x8, addend: 0x0, symName: __RINvNtCs6sq8b9ugfBC_4core3ptr13drop_in_placeINtNvXsy_NtNtNtCs8dnTdrJsiec_5alloc11collections5btree3mapINtBP_8IntoIterpppENtNtNtB4_3ops4drop4Drop4drop9DropGuardyINtNtB4_6result6ResultINtNtBV_4sync3ArcNtNtNtCsixjwb4TfRM4_5gimli4read6abbrev13AbbreviationsENtB3f_5ErrorENtNtBV_5alloc6GlobalEECsaLOjE9VYtxK_3std, symObjAddr: 0x7208, symBinAddr: 0x1002065E0, symSize: 0x84 }
  - { offset: 0xD1703, size: 0x8, addend: 0x0, symName: __RINvNtCs6sq8b9ugfBC_4core3ptr13drop_in_placeNCNvNtNtCsaLOjE9VYtxK_3std3sys9backtrace10__print_fmt0EBO_, symObjAddr: 0x728C, symBinAddr: 0x100206664, symSize: 0x1C }
  - { offset: 0xD1830, size: 0x8, addend: 0x0, symName: __RINvNtCs6sq8b9ugfBC_4core3ptr13drop_in_placeNCNvXs4_NtCsaLOjE9VYtxK_3std9backtraceNtBO_9BacktraceNtNtB4_3fmt7Display3fmt0EBQ_, symObjAddr: 0x72A8, symBinAddr: 0x100206680, symSize: 0x2C }
  - { offset: 0xD1848, size: 0x8, addend: 0x0, symName: __RINvNtCs6sq8b9ugfBC_4core3ptr13drop_in_placeNCNvXs4_NtCsaLOjE9VYtxK_3std9backtraceNtBO_9BacktraceNtNtB4_3fmt7Display3fmt0EBQ_, symObjAddr: 0x72A8, symBinAddr: 0x100206680, symSize: 0x2C }
  - { offset: 0xD1945, size: 0x8, addend: 0x0, symName: __RINvNtCs6sq8b9ugfBC_4core3ptr13drop_in_placeNtNtCs8dnTdrJsiec_5alloc6string6StringECsaLOjE9VYtxK_3std, symObjAddr: 0x72D4, symBinAddr: 0x1002066AC, symSize: 0x18 }
  - { offset: 0xD195D, size: 0x8, addend: 0x0, symName: __RINvNtCs6sq8b9ugfBC_4core3ptr13drop_in_placeNtNtCs8dnTdrJsiec_5alloc6string6StringECsaLOjE9VYtxK_3std, symObjAddr: 0x72D4, symBinAddr: 0x1002066AC, symSize: 0x18 }
  - { offset: 0xD1A38, size: 0x8, addend: 0x0, symName: __RINvNtCs6sq8b9ugfBC_4core3ptr13drop_in_placeNtNtCsaLOjE9VYtxK_3std3env6VarsOsEBK_, symObjAddr: 0x72EC, symBinAddr: 0x1002066C4, symSize: 0xAC }
  - { offset: 0xD1D34, size: 0x8, addend: 0x0, symName: __RINvNtCs6sq8b9ugfBC_4core3ptr13drop_in_placeNtNtCsaLOjE9VYtxK_3std4path7PathBufEBK_, symObjAddr: 0x7398, symBinAddr: 0x100206770, symSize: 0x18 }
  - { offset: 0xD1D4C, size: 0x8, addend: 0x0, symName: __RINvNtCs6sq8b9ugfBC_4core3ptr13drop_in_placeNtNtCsaLOjE9VYtxK_3std4path7PathBufEBK_, symObjAddr: 0x7398, symBinAddr: 0x100206770, symSize: 0x18 }
  - { offset: 0xD1E29, size: 0x8, addend: 0x0, symName: __RINvNtCs6sq8b9ugfBC_4core3ptr13drop_in_placeNtNtCsaLOjE9VYtxK_3std7process10StdioPipesEBK_, symObjAddr: 0x73B0, symBinAddr: 0x100206788, symSize: 0x54 }
  - { offset: 0xD1F95, size: 0x8, addend: 0x0, symName: __RINvNtCs6sq8b9ugfBC_4core3ptr13drop_in_placeNtNtCsaLOjE9VYtxK_3std7process5ChildEBK_, symObjAddr: 0x7404, symBinAddr: 0x1002067DC, symSize: 0x54 }
  - { offset: 0xD217E, size: 0x8, addend: 0x0, symName: __RINvNtCs6sq8b9ugfBC_4core3ptr13drop_in_placeNtNtCsaLOjE9VYtxK_3std9backtrace14BacktraceFrameEBK_, symObjAddr: 0x7458, symBinAddr: 0x100206830, symSize: 0xC0 }
  - { offset: 0xD250C, size: 0x8, addend: 0x0, symName: __RINvNtCs6sq8b9ugfBC_4core3ptr13drop_in_placeNtNtCsaLOjE9VYtxK_3std9backtrace15BacktraceSymbolEBK_, symObjAddr: 0x7518, symBinAddr: 0x1002068F0, symSize: 0x78 }
  - { offset: 0xD27A5, size: 0x8, addend: 0x0, symName: __RINvNtCs6sq8b9ugfBC_4core3ptr13drop_in_placeNtNtCsaLOjE9VYtxK_3std9backtrace7CaptureEBK_, symObjAddr: 0x7590, symBinAddr: 0x100206968, symSize: 0x6C }
  - { offset: 0xD28DF, size: 0x8, addend: 0x0, symName: __RINvNtCs6sq8b9ugfBC_4core3ptr13drop_in_placeNtNtCsaLOjE9VYtxK_3std9panicking4HookEBK_, symObjAddr: 0x75FC, symBinAddr: 0x1002069D4, symSize: 0x7C }
  - { offset: 0xD2A83, size: 0x8, addend: 0x0, symName: __RINvNtCs6sq8b9ugfBC_4core3ptr13drop_in_placeNtNtCsgmVNXhSCXCV_6object4read9ObjectMapECsaLOjE9VYtxK_3std, symObjAddr: 0x7678, symBinAddr: 0x100206A50, symSize: 0x58 }
  - { offset: 0xD2C1D, size: 0x8, addend: 0x0, symName: __RINvNtCs6sq8b9ugfBC_4core3ptr13drop_in_placeNtNtNtCs8dnTdrJsiec_5alloc3ffi5c_str7CStringECsaLOjE9VYtxK_3std, symObjAddr: 0x76D0, symBinAddr: 0x100206AA8, symSize: 0x20 }
  - { offset: 0xD2CD0, size: 0x8, addend: 0x0, symName: __RINvNtCs6sq8b9ugfBC_4core3ptr13drop_in_placeNtNtNtCs8dnTdrJsiec_5alloc3ffi5c_str8NulErrorECsaLOjE9VYtxK_3std, symObjAddr: 0x76F0, symBinAddr: 0x100206AC8, symSize: 0x18 }
  - { offset: 0xD2CE8, size: 0x8, addend: 0x0, symName: __RINvNtCs6sq8b9ugfBC_4core3ptr13drop_in_placeNtNtNtCs8dnTdrJsiec_5alloc3ffi5c_str8NulErrorECsaLOjE9VYtxK_3std, symObjAddr: 0x76F0, symBinAddr: 0x100206AC8, symSize: 0x18 }
  - { offset: 0xD2DDF, size: 0x8, addend: 0x0, symName: __RINvNtCs6sq8b9ugfBC_4core3ptr13drop_in_placeNtNtNtCsaLOjE9VYtxK_3std2io5error5ErrorEBM_, symObjAddr: 0x7708, symBinAddr: 0x100206AE0, symSize: 0xB4 }
  - { offset: 0xD30DB, size: 0x8, addend: 0x0, symName: __RINvNtCs6sq8b9ugfBC_4core3ptr13drop_in_placeNtNtNtCsaLOjE9VYtxK_3std3ffi6os_str8OsStringEBM_, symObjAddr: 0x77BC, symBinAddr: 0x100206B94, symSize: 0x18 }
  - { offset: 0xD31AB, size: 0x8, addend: 0x0, symName: __RINvNtCs6sq8b9ugfBC_4core3ptr13drop_in_placeNtNtNtCsaLOjE9VYtxK_3std6thread6thread6ThreadEBM_, symObjAddr: 0x77D4, symBinAddr: 0x100206BAC, symSize: 0x20 }
  - { offset: 0xD31C3, size: 0x8, addend: 0x0, symName: __RINvNtCs6sq8b9ugfBC_4core3ptr13drop_in_placeNtNtNtCsaLOjE9VYtxK_3std6thread6thread6ThreadEBM_, symObjAddr: 0x77D4, symBinAddr: 0x100206BAC, symSize: 0x20 }
  - { offset: 0xD31D9, size: 0x8, addend: 0x0, symName: __RINvNtCs6sq8b9ugfBC_4core3ptr13drop_in_placeNtNtNtCsaLOjE9VYtxK_3std6thread6thread6ThreadEBM_, symObjAddr: 0x77D4, symBinAddr: 0x100206BAC, symSize: 0x20 }
  - { offset: 0xD31EF, size: 0x8, addend: 0x0, symName: __RINvNtCs6sq8b9ugfBC_4core3ptr13drop_in_placeNtNtNtCsaLOjE9VYtxK_3std6thread6thread6ThreadEBM_, symObjAddr: 0x77D4, symBinAddr: 0x100206BAC, symSize: 0x20 }
  - { offset: 0xD3205, size: 0x8, addend: 0x0, symName: __RINvNtCs6sq8b9ugfBC_4core3ptr13drop_in_placeNtNtNtCsaLOjE9VYtxK_3std6thread6thread6ThreadEBM_, symObjAddr: 0x77D4, symBinAddr: 0x100206BAC, symSize: 0x20 }
  - { offset: 0xD321B, size: 0x8, addend: 0x0, symName: __RINvNtCs6sq8b9ugfBC_4core3ptr13drop_in_placeNtNtNtCsaLOjE9VYtxK_3std6thread6thread6ThreadEBM_, symObjAddr: 0x77D4, symBinAddr: 0x100206BAC, symSize: 0x20 }
  - { offset: 0xD3290, size: 0x8, addend: 0x0, symName: __RINvNtCs6sq8b9ugfBC_4core3ptr13drop_in_placeNtNtNtCsaLOjE9VYtxK_3std6thread9spawnhook10SpawnHooksEBM_, symObjAddr: 0x77F4, symBinAddr: 0x100206BCC, symSize: 0x80 }
  - { offset: 0xD33C1, size: 0x8, addend: 0x0, symName: __RINvNtCs6sq8b9ugfBC_4core3ptr13drop_in_placeNtNtNtCsaLOjE9VYtxK_3std6thread9spawnhook9SpawnHookEBM_, symObjAddr: 0x7874, symBinAddr: 0x100206C4C, symSize: 0xB4 }
  - { offset: 0xD36A3, size: 0x8, addend: 0x0, symName: __RINvNtCs6sq8b9ugfBC_4core3ptr13drop_in_placeNtNtNtCsixjwb4TfRM4_5gimli4read6abbrev13AbbreviationsECsaLOjE9VYtxK_3std, symObjAddr: 0x7928, symBinAddr: 0x100206D00, symSize: 0x118 }
  - { offset: 0xD3AD2, size: 0x8, addend: 0x0, symName: __RINvNtCs6sq8b9ugfBC_4core3ptr13drop_in_placeNtNtNtCsixjwb4TfRM4_5gimli4read6abbrev18AbbreviationsCacheECsaLOjE9VYtxK_3std, symObjAddr: 0x7A40, symBinAddr: 0x100206E18, symSize: 0xCC }
  - { offset: 0xD3C90, size: 0x8, addend: 0x0, symName: __RINvNtCs6sq8b9ugfBC_4core3ptr13drop_in_placeNtNtNtNtCsaLOjE9VYtxK_3std12backtrace_rs9backtrace9libunwind4BombEBO_, symObjAddr: 0x7B0C, symBinAddr: 0x100206EE4, symSize: 0x28 }
  - { offset: 0xD3D00, size: 0x8, addend: 0x0, symName: __RINvNtCs6sq8b9ugfBC_4core3ptr13drop_in_placeNtNtNtNtCsaLOjE9VYtxK_3std12backtrace_rs9symbolize5gimli7ContextEBO_, symObjAddr: 0x7B34, symBinAddr: 0x100206F0C, symSize: 0xE8 }
  - { offset: 0xD403D, size: 0x8, addend: 0x0, symName: __RINvNtCs6sq8b9ugfBC_4core3ptr13drop_in_placeNtNtNtNtCsaLOjE9VYtxK_3std3sys2fd4unix8FileDescEBO_, symObjAddr: 0x7C1C, symBinAddr: 0x100206FF4, symSize: 0x8 }
  - { offset: 0xD407F, size: 0x8, addend: 0x0, symName: __RINvNtCs6sq8b9ugfBC_4core3ptr13drop_in_placeNtNtNtNtCsaLOjE9VYtxK_3std3sys3env6common3EnvEBO_, symObjAddr: 0x7C24, symBinAddr: 0x100206FFC, symSize: 0xAC }
  - { offset: 0xD4380, size: 0x8, addend: 0x0, symName: __RINvNtCs6sq8b9ugfBC_4core3ptr13drop_in_placeNtNtNtNtCsaLOjE9VYtxK_3std3sys4args6common4ArgsEBO_, symObjAddr: 0x7CD0, symBinAddr: 0x1002070A8, symSize: 0x98 }
  - { offset: 0xD4599, size: 0x8, addend: 0x0, symName: __RINvNtCs6sq8b9ugfBC_4core3ptr13drop_in_placeNtNtNtNtCsaLOjE9VYtxK_3std3sys7process3env10CommandEnvEBO_, symObjAddr: 0x7D68, symBinAddr: 0x100207140, symSize: 0xBC }
  - { offset: 0xD4887, size: 0x8, addend: 0x0, symName: __RINvNtCs6sq8b9ugfBC_4core3ptr13drop_in_placeNtNtNtNtNtCsaLOjE9VYtxK_3std12backtrace_rs9symbolize5gimli5macho6ObjectEBQ_, symObjAddr: 0x7E24, symBinAddr: 0x1002071FC, symSize: 0xD8 }
  - { offset: 0xD4CC3, size: 0x8, addend: 0x0, symName: __RINvNtCs6sq8b9ugfBC_4core3ptr13drop_in_placeNtNtNtNtNtCsaLOjE9VYtxK_3std12backtrace_rs9symbolize5gimli5stash5StashEBQ_, symObjAddr: 0x7EFC, symBinAddr: 0x1002072D4, symSize: 0xB8 }
  - { offset: 0xD5000, size: 0x8, addend: 0x0, symName: __RINvNtCs6sq8b9ugfBC_4core3ptr13drop_in_placeNtNtNtNtNtCsaLOjE9VYtxK_3std3sys3pal4unix14stack_overflow7HandlerEBQ_, symObjAddr: 0x7FB4, symBinAddr: 0x10020738C, symSize: 0x4 }
  - { offset: 0xD5018, size: 0x8, addend: 0x0, symName: __RINvNtCs6sq8b9ugfBC_4core3ptr13drop_in_placeNtNtNtNtNtCsaLOjE9VYtxK_3std3sys3pal4unix14stack_overflow7HandlerEBQ_, symObjAddr: 0x7FB4, symBinAddr: 0x10020738C, symSize: 0x4 }
  - { offset: 0xD502B, size: 0x8, addend: 0x0, symName: __RINvNtCs6sq8b9ugfBC_4core3ptr13drop_in_placeNtNtNtNtNtCsaLOjE9VYtxK_3std3sys4sync4once5queue11WaiterQueueEBQ_, symObjAddr: 0x7FB8, symBinAddr: 0x100207390, symSize: 0xD4 }
  - { offset: 0xD5236, size: 0x8, addend: 0x0, symName: __RINvNtCs6sq8b9ugfBC_4core3ptr13drop_in_placeNtNtNtNtNtCsaLOjE9VYtxK_3std3sys7process4unix6common10ChildPipesEBQ_, symObjAddr: 0x808C, symBinAddr: 0x100207464, symSize: 0x78 }
  - { offset: 0xD5344, size: 0x8, addend: 0x0, symName: __RINvNtCs6sq8b9ugfBC_4core3ptr13drop_in_placeNtNtNtNtNtNtCsaLOjE9VYtxK_3std3sys3pal4unix4sync5mutex9AttrGuardEBS_, symObjAddr: 0x8104, symBinAddr: 0x1002074DC, symSize: 0x44 }
  - { offset: 0xD5383, size: 0x8, addend: 0x0, symName: __RINvNtCs6sq8b9ugfBC_4core3ptr13drop_in_placeNtNtNtNtNtNtCsaLOjE9VYtxK_3std3sys7process4unix6common13cstring_array12CStringArrayEBS_, symObjAddr: 0x8148, symBinAddr: 0x100207520, symSize: 0xD4 }
  - { offset: 0xD579D, size: 0x8, addend: 0x0, symName: __RINvNtCs6sq8b9ugfBC_4core3ptr13drop_in_placeNtNvMs_NtNtNtCsaLOjE9VYtxK_3std2io8buffered9bufwriterINtBN_9BufWriterpE9flush_buf8BufGuardEBT_, symObjAddr: 0x821C, symBinAddr: 0x1002075F4, symSize: 0x5C }
  - { offset: 0xD5928, size: 0x8, addend: 0x0, symName: __RINvNtCs6sq8b9ugfBC_4core3ptr13drop_in_placeNtNvNtCsaLOjE9VYtxK_3std9panicking13resume_unwind9RewrapBoxEBM_, symObjAddr: 0x8278, symBinAddr: 0x100207650, symSize: 0x7C }
  - { offset: 0xD5AC4, size: 0x8, addend: 0x0, symName: __RINvNtCs6sq8b9ugfBC_4core3ptr13drop_in_placeNtNvXsf_NtNtCs8dnTdrJsiec_5alloc5boxed7convertINtBQ_3BoxDNtNtB4_5error5ErrorNtNtB4_6marker4SyncNtB1W_4SendEL_EINtNtB4_7convert4FromNtNtBS_6string6StringE4from11StringErrorECsaLOjE9VYtxK_3std, symObjAddr: 0x82F4, symBinAddr: 0x1002076CC, symSize: 0x18 }
  - { offset: 0xD5ADC, size: 0x8, addend: 0x0, symName: __RINvNtCs6sq8b9ugfBC_4core3ptr13drop_in_placeNtNvXsf_NtNtCs8dnTdrJsiec_5alloc5boxed7convertINtBQ_3BoxDNtNtB4_5error5ErrorNtNtB4_6marker4SyncNtB1W_4SendEL_EINtNtB4_7convert4FromNtNtBS_6string6StringE4from11StringErrorECsaLOjE9VYtxK_3std, symObjAddr: 0x82F4, symBinAddr: 0x1002076CC, symSize: 0x18 }
  - { offset: 0xD5AF2, size: 0x8, addend: 0x0, symName: __RINvNtCs6sq8b9ugfBC_4core3ptr13drop_in_placeNtNvXsf_NtNtCs8dnTdrJsiec_5alloc5boxed7convertINtBQ_3BoxDNtNtB4_5error5ErrorNtNtB4_6marker4SyncNtB1W_4SendEL_EINtNtB4_7convert4FromNtNtBS_6string6StringE4from11StringErrorECsaLOjE9VYtxK_3std, symObjAddr: 0x82F4, symBinAddr: 0x1002076CC, symSize: 0x18 }
  - { offset: 0xD5BB2, size: 0x8, addend: 0x0, symName: __RINvNtCs6sq8b9ugfBC_4core3ptr13drop_in_placeSINtNtB4_6option6OptionIBI_NtNtNtNtCsaLOjE9VYtxK_3std12backtrace_rs9symbolize5gimli7MappingEEEB1f_, symObjAddr: 0x830C, symBinAddr: 0x1002076E4, symSize: 0xD0 }
  - { offset: 0xD5C64, size: 0x8, addend: 0x0, symName: __RINvNtCs6sq8b9ugfBC_4core3ptr13drop_in_placeSINtNtCs8dnTdrJsiec_5alloc5boxed3BoxDINtNtNtB4_3ops8function6FnOnceuEp6OutputuNtNtB4_6marker4SendEL_EECsaLOjE9VYtxK_3std, symObjAddr: 0x83DC, symBinAddr: 0x1002077B4, symSize: 0xAC }
  - { offset: 0xD5E0F, size: 0x8, addend: 0x0, symName: __RINvNtCs6sq8b9ugfBC_4core3ptr13drop_in_placeTNtNtNtCsaLOjE9VYtxK_3std3ffi6os_str8OsStringINtNtB4_6option6OptionBH_EEEBN_, symObjAddr: 0x84D4, symBinAddr: 0x100207860, symSize: 0x50 }
  - { offset: 0xD8568, size: 0x8, addend: 0x0, symName: __RNvXsF_NtNtCs6sq8b9ugfBC_4core3num7nonzeroINtB5_7NonZerolENtNtB9_3fmt5Debug3fmtCsaLOjE9VYtxK_3std, symObjAddr: 0x46670, symBinAddr: 0x100243060, symSize: 0x48 }
  - { offset: 0xD88D6, size: 0x8, addend: 0x0, symName: __RNvXs5_NtNtCs6sq8b9ugfBC_4core3num5errorNtB5_15TryFromIntErrorNtNtB9_3fmt5Debug3fmt, symObjAddr: 0x43AD4, symBinAddr: 0x1002404C4, symSize: 0x40 }
  - { offset: 0xDE304, size: 0x8, addend: 0x0, symName: __RNvXsa_NtCs6sq8b9ugfBC_4core5arrayAhj8_NtNtB7_3fmt5Debug3fmtCsaLOjE9VYtxK_3std, symObjAddr: 0x48C18, symBinAddr: 0x100245608, symSize: 0xFC }
  - { offset: 0xDEDDD, size: 0x8, addend: 0x0, symName: __RNvXsu_NtNtCs6sq8b9ugfBC_4core3ffi5c_strNtB5_22FromBytesUntilNulErrorNtNtB9_3fmt5Debug3fmt, symObjAddr: 0x4CD1C, symBinAddr: 0x10024970C, symSize: 0x40 }
  - { offset: 0xDEE00, size: 0x8, addend: 0x0, symName: __RINvNtCs6sq8b9ugfBC_4core9panicking13assert_failedAhj4_RShECsaLOjE9VYtxK_3std, symObjAddr: 0x8524, symBinAddr: 0x10030CE18, symSize: 0x38 }
  - { offset: 0xDEE1B, size: 0x8, addend: 0x0, symName: __RINvNtCs6sq8b9ugfBC_4core9panicking13assert_failedINtNtB4_6option6OptionhEBM_ECsaLOjE9VYtxK_3std, symObjAddr: 0x855C, symBinAddr: 0x10030CE50, symSize: 0x28 }
  - { offset: 0xDEE36, size: 0x8, addend: 0x0, symName: __RINvNtCs6sq8b9ugfBC_4core9panicking13assert_failedhhECsaLOjE9VYtxK_3std, symObjAddr: 0x8584, symBinAddr: 0x10030CE78, symSize: 0x28 }
  - { offset: 0xDEE51, size: 0x8, addend: 0x0, symName: __RINvNtCs6sq8b9ugfBC_4core9panicking13assert_failedllECsaLOjE9VYtxK_3std, symObjAddr: 0x85AC, symBinAddr: 0x10030CEA0, symSize: 0x28 }
  - { offset: 0xDF0C8, size: 0x8, addend: 0x0, symName: __RNvXs1i_NtCs6sq8b9ugfBC_4core3fmtRNtNtNtB8_5panic8location8LocationNtB6_7Display3fmtCsaLOjE9VYtxK_3std, symObjAddr: 0x40E98, symBinAddr: 0x10023D888, symSize: 0x60 }
  - { offset: 0xDF140, size: 0x8, addend: 0x0, symName: __RNvXs1i_NtCs6sq8b9ugfBC_4core3fmtReNtB6_7Display3fmtCsaLOjE9VYtxK_3std, symObjAddr: 0x40EF8, symBinAddr: 0x10023D8E8, symSize: 0x10 }
  - { offset: 0xDF170, size: 0x8, addend: 0x0, symName: __RNvXs1G_NtCs6sq8b9ugfBC_4core3fmtTRNtNtNtCsaLOjE9VYtxK_3std3ffi6os_str8OsStringRINtNtB8_6option6OptionBx_EENtB6_5Debug3fmtBD_, symObjAddr: 0x3F89C, symBinAddr: 0x10023C28C, symSize: 0x74 }
  - { offset: 0xDF1ED, size: 0x8, addend: 0x0, symName: __RNvXs1g_NtCs6sq8b9ugfBC_4core3fmtRAhj4_NtB6_5Debug3fmtCsaLOjE9VYtxK_3std, symObjAddr: 0x4032C, symBinAddr: 0x10023CD1C, symSize: 0x9C }
  - { offset: 0xDF282, size: 0x8, addend: 0x0, symName: __RNvXs1g_NtCs6sq8b9ugfBC_4core3fmtRINtNtB8_6option6OptionNtNtNtCsaLOjE9VYtxK_3std3ffi6os_str8OsStringENtB6_5Debug3fmtBY_, symObjAddr: 0x403C8, symBinAddr: 0x10023CDB8, symSize: 0x68 }
  - { offset: 0xDF2AD, size: 0x8, addend: 0x0, symName: __RNvXs1g_NtCs6sq8b9ugfBC_4core3fmtRINtNtB8_6option6OptionhENtB6_5Debug3fmtCsaLOjE9VYtxK_3std, symObjAddr: 0x40430, symBinAddr: 0x10023CE20, symSize: 0x64 }
  - { offset: 0xDF2D7, size: 0x8, addend: 0x0, symName: __RNvXs1g_NtCs6sq8b9ugfBC_4core3fmtRINtNtCs8dnTdrJsiec_5alloc3vec3VechENtB6_5Debug3fmtCsaLOjE9VYtxK_3std, symObjAddr: 0x40494, symBinAddr: 0x10023CE84, symSize: 0x70 }
  - { offset: 0xDF3FB, size: 0x8, addend: 0x0, symName: __RNvXs1g_NtCs6sq8b9ugfBC_4core3fmtRINtNtCs8dnTdrJsiec_5alloc5boxed3BoxDNtNtB8_5error5ErrorNtNtB8_6marker4SyncNtB1r_4SendEL_ENtB6_5Debug3fmtCsaLOjE9VYtxK_3std, symObjAddr: 0x40504, symBinAddr: 0x10023CEF4, symSize: 0x10 }
  - { offset: 0xDF42D, size: 0x8, addend: 0x0, symName: __RNvXs1g_NtCs6sq8b9ugfBC_4core3fmtRINtNtCs8dnTdrJsiec_5alloc5boxed3BoxSmENtB6_5Debug3fmtCsaLOjE9VYtxK_3std, symObjAddr: 0x40514, symBinAddr: 0x10023CF04, symSize: 0x74 }
  - { offset: 0xDF4C8, size: 0x8, addend: 0x0, symName: __RNvXs1g_NtCs6sq8b9ugfBC_4core3fmtRINtNtNtB8_3num7nonzero7NonZeroyENtB6_5Debug3fmtCsaLOjE9VYtxK_3std, symObjAddr: 0x40588, symBinAddr: 0x10023CF78, symSize: 0x4C }
  - { offset: 0xDF53C, size: 0x8, addend: 0x0, symName: __RNvXs1g_NtCs6sq8b9ugfBC_4core3fmtRINtNtNtNtCs8dnTdrJsiec_5alloc11collections5btree3map4IterNtNtNtCsaLOjE9VYtxK_3std3ffi6os_str8OsStringINtNtB8_6option6OptionB1r_EENtB6_5Debug3fmtB1x_, symObjAddr: 0x405D4, symBinAddr: 0x10023CFC4, symSize: 0x14C }
  - { offset: 0xDF83D, size: 0x8, addend: 0x0, symName: __RNvXs1g_NtCs6sq8b9ugfBC_4core3fmtRNtNtCsaLOjE9VYtxK_3std4path15PrefixComponentNtB6_5Debug3fmtBA_, symObjAddr: 0x40720, symBinAddr: 0x10023D110, symSize: 0x70 }
  - { offset: 0xDF86F, size: 0x8, addend: 0x0, symName: __RNvXs1g_NtCs6sq8b9ugfBC_4core3fmtRNtNtCsaLOjE9VYtxK_3std4path6PrefixNtB6_5Debug3fmtBA_, symObjAddr: 0x40790, symBinAddr: 0x10023D180, symSize: 0x144 }
  - { offset: 0xDF8A1, size: 0x8, addend: 0x0, symName: __RNvXs1g_NtCs6sq8b9ugfBC_4core3fmtRNtNtCsaLOjE9VYtxK_3std7process10ChildStdinNtB6_5Debug3fmtBA_, symObjAddr: 0x408D4, symBinAddr: 0x10023D2C4, symSize: 0x38 }
  - { offset: 0xDF8D3, size: 0x8, addend: 0x0, symName: __RNvXs1g_NtCs6sq8b9ugfBC_4core3fmtRNtNtCsaLOjE9VYtxK_3std7process11ChildStderrNtB6_5Debug3fmtBA_, symObjAddr: 0x4090C, symBinAddr: 0x10023D2FC, symSize: 0x38 }
  - { offset: 0xDF905, size: 0x8, addend: 0x0, symName: __RNvXs1g_NtCs6sq8b9ugfBC_4core3fmtRNtNtCsaLOjE9VYtxK_3std7process11ChildStdoutNtB6_5Debug3fmtBA_, symObjAddr: 0x40944, symBinAddr: 0x10023D334, symSize: 0x38 }
  - { offset: 0xDF937, size: 0x8, addend: 0x0, symName: __RNvXs1g_NtCs6sq8b9ugfBC_4core3fmtRNtNtCsaLOjE9VYtxK_3std9backtrace11BytesOrWideNtB6_5Debug3fmtBA_, symObjAddr: 0x4097C, symBinAddr: 0x10023D36C, symSize: 0x8 }
  - { offset: 0xDF952, size: 0x8, addend: 0x0, symName: __RNvXs1g_NtCs6sq8b9ugfBC_4core3fmtRNtNtCsaLOjE9VYtxK_3std9backtrace15BacktraceSymbolNtB6_5Debug3fmtBA_, symObjAddr: 0x40984, symBinAddr: 0x10023D374, symSize: 0x8 }
  - { offset: 0xDF96D, size: 0x8, addend: 0x0, symName: __RNvXs1g_NtCs6sq8b9ugfBC_4core3fmtRNtNtNtB8_3ffi5c_str4CStrNtB6_5Debug3fmtCsaLOjE9VYtxK_3std, symObjAddr: 0x4098C, symBinAddr: 0x10023D37C, symSize: 0x10 }
  - { offset: 0xDF988, size: 0x8, addend: 0x0, symName: __RNvXs1g_NtCs6sq8b9ugfBC_4core3fmtRNtNtNtCs8dnTdrJsiec_5alloc3ffi5c_str7CStringNtB6_5Debug3fmtCsaLOjE9VYtxK_3std, symObjAddr: 0x4099C, symBinAddr: 0x10023D38C, symSize: 0x8 }
  - { offset: 0xDF9A3, size: 0x8, addend: 0x0, symName: __RNvXs1g_NtCs6sq8b9ugfBC_4core3fmtRNtNtNtCsaLOjE9VYtxK_3std3ffi6os_str8OsStringNtB6_5Debug3fmtBC_, symObjAddr: 0x409A4, symBinAddr: 0x10023D394, symSize: 0x2C }
  - { offset: 0xDFAC8, size: 0x8, addend: 0x0, symName: __RNvXs1g_NtCs6sq8b9ugfBC_4core3fmtRNtNtNtNtCsaLOjE9VYtxK_3std2os2fd5owned10BorrowedFdNtB6_5Debug3fmtBE_, symObjAddr: 0x409D0, symBinAddr: 0x10023D3C0, symSize: 0x64 }
  - { offset: 0xDFAFA, size: 0x8, addend: 0x0, symName: __RNvXs1g_NtCs6sq8b9ugfBC_4core3fmtRNtNtNtNtCsaLOjE9VYtxK_3std2os2fd5owned7OwnedFdNtB6_5Debug3fmtBE_, symObjAddr: 0x40A34, symBinAddr: 0x10023D424, symSize: 0x64 }
  - { offset: 0xDFB2C, size: 0x8, addend: 0x0, symName: __RNvXs1g_NtCs6sq8b9ugfBC_4core3fmtRNtNtNtNtCsaLOjE9VYtxK_3std3sys2fd4unix8FileDescNtB6_5Debug3fmtBE_, symObjAddr: 0x40A98, symBinAddr: 0x10023D488, symSize: 0x44 }
  - { offset: 0xDFB5E, size: 0x8, addend: 0x0, symName: __RNvXs1g_NtCs6sq8b9ugfBC_4core3fmtRNtNtNtNtCsaLOjE9VYtxK_3std3sys2fs4unix15FilePermissionsNtB6_5Debug3fmtBE_, symObjAddr: 0x40ADC, symBinAddr: 0x10023D4CC, symSize: 0x6C }
  - { offset: 0xDFB90, size: 0x8, addend: 0x0, symName: __RNvXs1g_NtCs6sq8b9ugfBC_4core3fmtRNtNtNtNtNtCsaLOjE9VYtxK_3std3sys7process4unix4unix10ExitStatusNtB6_5Debug3fmtBG_, symObjAddr: 0x40B48, symBinAddr: 0x10023D538, symSize: 0x58 }
  - { offset: 0xDFBC2, size: 0x8, addend: 0x0, symName: __RNvXs1g_NtCs6sq8b9ugfBC_4core3fmtRNtNtNtNtNtCsaLOjE9VYtxK_3std3sys7process4unix6common5StdioNtB6_5Debug3fmtBG_, symObjAddr: 0x40BA0, symBinAddr: 0x10023D590, symSize: 0xC4 }
  - { offset: 0xDFBFA, size: 0x8, addend: 0x0, symName: __RNvXs1g_NtCs6sq8b9ugfBC_4core3fmtRRINtNtB8_6option6OptionNtNtNtCsaLOjE9VYtxK_3std3ffi6os_str8OsStringENtB6_5Debug3fmtBZ_, symObjAddr: 0x40C64, symBinAddr: 0x10023D654, symSize: 0x6C }
  - { offset: 0xDFC51, size: 0x8, addend: 0x0, symName: __RNvXs1g_NtCs6sq8b9ugfBC_4core3fmtRRNtNtNtCsaLOjE9VYtxK_3std3ffi6os_str5OsStrNtB6_5Debug3fmtBD_, symObjAddr: 0x40CD0, symBinAddr: 0x10023D6C0, symSize: 0x2C }
  - { offset: 0xDFCD5, size: 0x8, addend: 0x0, symName: __RNvXs1g_NtCs6sq8b9ugfBC_4core3fmtRRNtNtNtCsaLOjE9VYtxK_3std3ffi6os_str8OsStringNtB6_5Debug3fmtBD_, symObjAddr: 0x40CFC, symBinAddr: 0x10023D6EC, symSize: 0x30 }
  - { offset: 0xDFE26, size: 0x8, addend: 0x0, symName: __RNvXs1g_NtCs6sq8b9ugfBC_4core3fmtRRShNtB6_5Debug3fmtCsaLOjE9VYtxK_3std, symObjAddr: 0x40D2C, symBinAddr: 0x10023D71C, symSize: 0x70 }
  - { offset: 0xDFECF, size: 0x8, addend: 0x0, symName: __RNvXs1g_NtCs6sq8b9ugfBC_4core3fmtRReNtB6_5Debug3fmtCsaLOjE9VYtxK_3std, symObjAddr: 0x40D9C, symBinAddr: 0x10023D78C, symSize: 0x10 }
  - { offset: 0xDFF01, size: 0x8, addend: 0x0, symName: __RNvXs1g_NtCs6sq8b9ugfBC_4core3fmtRTNtNtNtCsaLOjE9VYtxK_3std3ffi6os_str8OsStringBx_ENtB6_5Debug3fmtBD_, symObjAddr: 0x40DAC, symBinAddr: 0x10023D79C, symSize: 0x74 }
  - { offset: 0xDFF33, size: 0x8, addend: 0x0, symName: __RNvXs1g_NtCs6sq8b9ugfBC_4core3fmtReNtB6_5Debug3fmtCsaLOjE9VYtxK_3std, symObjAddr: 0x40E20, symBinAddr: 0x10023D810, symSize: 0x10 }
  - { offset: 0xDFF47, size: 0x8, addend: 0x0, symName: __RNvXs1g_NtCs6sq8b9ugfBC_4core3fmtRhNtB6_5Debug3fmtCsaLOjE9VYtxK_3std, symObjAddr: 0x40E30, symBinAddr: 0x10023D820, symSize: 0x1C }
  - { offset: 0xDFF90, size: 0x8, addend: 0x0, symName: __RNvXs1g_NtCs6sq8b9ugfBC_4core3fmtRlNtB6_5Debug3fmtCsaLOjE9VYtxK_3std, symObjAddr: 0x40E4C, symBinAddr: 0x10023D83C, symSize: 0x1C }
  - { offset: 0xDFFD9, size: 0x8, addend: 0x0, symName: __RNvXs1g_NtCs6sq8b9ugfBC_4core3fmtRmNtB6_5Debug3fmtCsaLOjE9VYtxK_3std, symObjAddr: 0x40E68, symBinAddr: 0x10023D858, symSize: 0x1C }
  - { offset: 0xE0022, size: 0x8, addend: 0x0, symName: __RNvXs1g_NtCs6sq8b9ugfBC_4core3fmtRuNtB6_5Debug3fmtCsaLOjE9VYtxK_3std, symObjAddr: 0x40E84, symBinAddr: 0x10023D874, symSize: 0x14 }
  - { offset: 0xE008B, size: 0x8, addend: 0x0, symName: __RNvXsX_NtNtCs6sq8b9ugfBC_4core3fmt3numyNtB7_5Debug3fmt, symObjAddr: 0x46B9C, symBinAddr: 0x10024358C, symSize: 0x18 }
  - { offset: 0xE00A3, size: 0x8, addend: 0x0, symName: __RNvXsX_NtNtCs6sq8b9ugfBC_4core3fmt3numyNtB7_5Debug3fmt, symObjAddr: 0x46B9C, symBinAddr: 0x10024358C, symSize: 0x18 }
  - { offset: 0xE00CB, size: 0x8, addend: 0x0, symName: __RNvXsU_NtNtCs6sq8b9ugfBC_4core3fmt3numhNtB7_5Debug3fmt, symObjAddr: 0x46B6C, symBinAddr: 0x10024355C, symSize: 0x18 }
  - { offset: 0xE00E3, size: 0x8, addend: 0x0, symName: __RNvXsU_NtNtCs6sq8b9ugfBC_4core3fmt3numhNtB7_5Debug3fmt, symObjAddr: 0x46B6C, symBinAddr: 0x10024355C, symSize: 0x18 }
  - { offset: 0xE010B, size: 0x8, addend: 0x0, symName: __RNvXsQ_NtNtCs6sq8b9ugfBC_4core3fmt3numlNtB7_5Debug3fmt, symObjAddr: 0x46790, symBinAddr: 0x100243180, symSize: 0x18 }
  - { offset: 0xE0123, size: 0x8, addend: 0x0, symName: __RNvXsQ_NtNtCs6sq8b9ugfBC_4core3fmt3numlNtB7_5Debug3fmt, symObjAddr: 0x46790, symBinAddr: 0x100243180, symSize: 0x18 }
  - { offset: 0xE014B, size: 0x8, addend: 0x0, symName: __RNvXsW_NtNtCs6sq8b9ugfBC_4core3fmt3nummNtB7_5Debug3fmt, symObjAddr: 0x46B84, symBinAddr: 0x100243574, symSize: 0x18 }
  - { offset: 0xE0163, size: 0x8, addend: 0x0, symName: __RNvXsW_NtNtCs6sq8b9ugfBC_4core3fmt3nummNtB7_5Debug3fmt, symObjAddr: 0x46B84, symBinAddr: 0x100243574, symSize: 0x18 }
  - { offset: 0xE017D, size: 0x8, addend: 0x0, symName: __RNvXsR_NtNtCs6sq8b9ugfBC_4core3fmt3numxNtB7_5Debug3fmt, symObjAddr: 0x46B14, symBinAddr: 0x100243504, symSize: 0x18 }
  - { offset: 0xE019C, size: 0x8, addend: 0x0, symName: __RNvXsR_NtNtCs6sq8b9ugfBC_4core3fmt3numxNtB7_5Debug3fmt, symObjAddr: 0x46B14, symBinAddr: 0x100243504, symSize: 0x18 }
  - { offset: 0xE01B6, size: 0x8, addend: 0x0, symName: __RNvXsZ_NtNtCs6sq8b9ugfBC_4core3fmt3numjNtB7_5Debug3fmt, symObjAddr: 0x46DA0, symBinAddr: 0x100243790, symSize: 0x18 }
  - { offset: 0xE01CE, size: 0x8, addend: 0x0, symName: __RNvXsZ_NtNtCs6sq8b9ugfBC_4core3fmt3numjNtB7_5Debug3fmt, symObjAddr: 0x46DA0, symBinAddr: 0x100243790, symSize: 0x18 }
  - { offset: 0xE0205, size: 0x8, addend: 0x0, symName: __RNvXss_NtCs6sq8b9ugfBC_4core3fmtuNtB5_5Debug3fmt, symObjAddr: 0x4C37C, symBinAddr: 0x100248D6C, symSize: 0x14 }
  - { offset: 0xE0220, size: 0x8, addend: 0x0, symName: __RNvXs1j_NtCs6sq8b9ugfBC_4core3fmtQDNtNtB8_5panic12PanicPayloadEL_NtB6_7Display3fmtCsaLOjE9VYtxK_3std, symObjAddr: 0x40F08, symBinAddr: 0x10023D8F8, symSize: 0x10 }
  - { offset: 0xE0242, size: 0x8, addend: 0x0, symName: __RNvXsf_NtCs6sq8b9ugfBC_4core3fmtbNtB5_5Debug3fmt, symObjAddr: 0x4A20C, symBinAddr: 0x100246BFC, symSize: 0x4 }
  - { offset: 0xE028E, size: 0x8, addend: 0x0, symName: __RNvXsq_NtCs6sq8b9ugfBC_4core3fmtONtNtB7_3ffi6c_voidNtB5_5Debug3fmtCsaLOjE9VYtxK_3std, symObjAddr: 0x4BF44, symBinAddr: 0x100248934, symSize: 0x8 }
  - { offset: 0xE02AD, size: 0x8, addend: 0x0, symName: __RNvXsq_NtCs6sq8b9ugfBC_4core3fmtONtNtB7_3ffi6c_voidNtB5_5Debug3fmtCsaLOjE9VYtxK_3std, symObjAddr: 0x4BF44, symBinAddr: 0x100248934, symSize: 0x8 }
  - { offset: 0xE02DE, size: 0x8, addend: 0x0, symName: __RNvYINtNvNtCsaLOjE9VYtxK_3std2io17default_write_fmt7AdapterINtNtB7_6cursor6CursorQShEENtNtCs6sq8b9ugfBC_4core3fmt5Write10write_charB9_, symObjAddr: 0x4D6C0, symBinAddr: 0x10024A0B0, symSize: 0x138 }
  - { offset: 0xE04E4, size: 0x8, addend: 0x0, symName: __RNvYINtNvNtCsaLOjE9VYtxK_3std2io17default_write_fmt7AdapterINtNtB7_6cursor6CursorQShEENtNtCs6sq8b9ugfBC_4core3fmt5Write9write_fmtB9_, symObjAddr: 0x4D7F8, symBinAddr: 0x10024A1E8, symSize: 0x14 }
  - { offset: 0xE0514, size: 0x8, addend: 0x0, symName: __RNvYINtNvNtCsaLOjE9VYtxK_3std2io17default_write_fmt7AdapterINtNtCs8dnTdrJsiec_5alloc3vec3VechEENtNtCs6sq8b9ugfBC_4core3fmt5Write10write_charB9_, symObjAddr: 0x4D80C, symBinAddr: 0x10024A1FC, symSize: 0x110 }
  - { offset: 0xE06DE, size: 0x8, addend: 0x0, symName: __RNvYINtNvNtCsaLOjE9VYtxK_3std2io17default_write_fmt7AdapterINtNtCs8dnTdrJsiec_5alloc3vec3VechEENtNtCs6sq8b9ugfBC_4core3fmt5Write9write_fmtB9_, symObjAddr: 0x4D91C, symBinAddr: 0x10024A30C, symSize: 0x14 }
  - { offset: 0xE070E, size: 0x8, addend: 0x0, symName: __RNvYINtNvNtCsaLOjE9VYtxK_3std2io17default_write_fmt7AdapterNtNtB7_5stdio10StderrLockENtNtCs6sq8b9ugfBC_4core3fmt5Write10write_charB9_, symObjAddr: 0x4D930, symBinAddr: 0x10024A320, symSize: 0x130 }
  - { offset: 0xE095B, size: 0x8, addend: 0x0, symName: __RNvYINtNvNtCsaLOjE9VYtxK_3std2io17default_write_fmt7AdapterNtNtB7_5stdio10StderrLockENtNtCs6sq8b9ugfBC_4core3fmt5Write9write_fmtB9_, symObjAddr: 0x4DA60, symBinAddr: 0x10024A450, symSize: 0x14 }
  - { offset: 0xE098B, size: 0x8, addend: 0x0, symName: __RNvYINtNvNtCsaLOjE9VYtxK_3std2io17default_write_fmt7AdapterNtNtB7_5stdio10StdoutLockENtNtCs6sq8b9ugfBC_4core3fmt5Write10write_charB9_, symObjAddr: 0x4DA74, symBinAddr: 0x10024A464, symSize: 0x128 }
  - { offset: 0xE0A0B, size: 0x8, addend: 0x0, symName: __RNvYINtNvNtCsaLOjE9VYtxK_3std2io17default_write_fmt7AdapterNtNtB7_5stdio10StdoutLockENtNtCs6sq8b9ugfBC_4core3fmt5Write9write_fmtB9_, symObjAddr: 0x4DB9C, symBinAddr: 0x10024A58C, symSize: 0x14 }
  - { offset: 0xE0A3B, size: 0x8, addend: 0x0, symName: __RNvYINtNvNtCsaLOjE9VYtxK_3std2io17default_write_fmt7AdapterNtNtNtNtB9_3sys5stdio4unix6StderrENtNtCs6sq8b9ugfBC_4core3fmt5Write10write_charB9_, symObjAddr: 0x4DBB0, symBinAddr: 0x10024A5A0, symSize: 0xB0 }
  - { offset: 0xE0AAF, size: 0x8, addend: 0x0, symName: __RNvYINtNvNtCsaLOjE9VYtxK_3std2io17default_write_fmt7AdapterNtNtNtNtB9_3sys5stdio4unix6StderrENtNtCs6sq8b9ugfBC_4core3fmt5Write9write_fmtB9_, symObjAddr: 0x4DC60, symBinAddr: 0x10024A650, symSize: 0x14 }
  - { offset: 0xE0ADF, size: 0x8, addend: 0x0, symName: __RNvYINtNvNtCsaLOjE9VYtxK_3std2io17default_write_fmt7AdapterNtNtNtNtB9_3sys5stdio4unix6StdoutENtNtCs6sq8b9ugfBC_4core3fmt5Write10write_charB9_, symObjAddr: 0x4DC74, symBinAddr: 0x10024A664, symSize: 0xB0 }
  - { offset: 0xE0B53, size: 0x8, addend: 0x0, symName: __RNvYINtNvNtCsaLOjE9VYtxK_3std2io17default_write_fmt7AdapterNtNtNtNtB9_3sys5stdio4unix6StdoutENtNtCs6sq8b9ugfBC_4core3fmt5Write9write_fmtB9_, symObjAddr: 0x4DD24, symBinAddr: 0x10024A714, symSize: 0x14 }
  - { offset: 0xE0B83, size: 0x8, addend: 0x0, symName: __RNvYNtNtCs8dnTdrJsiec_5alloc6string6StringNtNtCs6sq8b9ugfBC_4core3fmt5Write9write_fmtCsaLOjE9VYtxK_3std, symObjAddr: 0x4DD40, symBinAddr: 0x10024A730, symSize: 0x14 }
  - { offset: 0xE0C8B, size: 0x8, addend: 0x0, symName: __RNvXst_NtNtCs6sq8b9ugfBC_4core3str7patternReNtB5_7Pattern15is_contained_in, symObjAddr: 0x4C4B0, symBinAddr: 0x100248EA0, symSize: 0x760 }
  - { offset: 0xE159B, size: 0x8, addend: 0x0, symName: __RNvYINtNvNtCsaLOjE9VYtxK_3std9panicking11begin_panic7PayloadReENtNtCs6sq8b9ugfBC_4core5panic12PanicPayload6as_strB9_, symObjAddr: 0x4DD38, symBinAddr: 0x10024A728, symSize: 0x8 }
  - { offset: 0xE19AA, size: 0x8, addend: 0x0, symName: __RNvXNtCs6sq8b9ugfBC_4core3anyNtNtCs8dnTdrJsiec_5alloc6string6StringNtB2_3Any7type_idCsaLOjE9VYtxK_3std, symObjAddr: 0x3C904, symBinAddr: 0x100239384, symSize: 0x14 }
  - { offset: 0xE19C9, size: 0x8, addend: 0x0, symName: __RNvXNtCs6sq8b9ugfBC_4core3anyNtNtCs8dnTdrJsiec_5alloc6string6StringNtB2_3Any7type_idCsaLOjE9VYtxK_3std, symObjAddr: 0x3C904, symBinAddr: 0x100239384, symSize: 0x14 }
  - { offset: 0xE19DC, size: 0x8, addend: 0x0, symName: __RNvXNtCs6sq8b9ugfBC_4core3anyReNtB2_3Any7type_idCsaLOjE9VYtxK_3std, symObjAddr: 0x3C918, symBinAddr: 0x100239398, symSize: 0x14 }
  - { offset: 0xE19FB, size: 0x8, addend: 0x0, symName: __RNvXNtCs6sq8b9ugfBC_4core3anyReNtB2_3Any7type_idCsaLOjE9VYtxK_3std, symObjAddr: 0x3C918, symBinAddr: 0x100239398, symSize: 0x14 }
  - { offset: 0xE1A0E, size: 0x8, addend: 0x0, symName: __RNvXNtCs6sq8b9ugfBC_4core3anyuNtB2_3Any7type_idCsaLOjE9VYtxK_3std, symObjAddr: 0x3C92C, symBinAddr: 0x1002393AC, symSize: 0x14 }
  - { offset: 0xE1A2D, size: 0x8, addend: 0x0, symName: __RNvXNtCs6sq8b9ugfBC_4core3anyuNtB2_3Any7type_idCsaLOjE9VYtxK_3std, symObjAddr: 0x3C92C, symBinAddr: 0x1002393AC, symSize: 0x14 }
  - { offset: 0xE1ADD, size: 0x8, addend: 0x0, symName: __RNvYNtNtNtCs6sq8b9ugfBC_4core3num5error15TryFromIntErrorNtNtB8_5error5Error11descriptionCsaLOjE9VYtxK_3std, symObjAddr: 0x4DD54, symBinAddr: 0x10024A744, symSize: 0x10 }
  - { offset: 0xE1AF8, size: 0x8, addend: 0x0, symName: __RNvYNtNtNtCs6sq8b9ugfBC_4core3num5error15TryFromIntErrorNtNtB8_5error5Error5causeCsaLOjE9VYtxK_3std, symObjAddr: 0x4DD64, symBinAddr: 0x10024A754, symSize: 0x8 }
  - { offset: 0xE1B13, size: 0x8, addend: 0x0, symName: __RNvYNtNtNtCs6sq8b9ugfBC_4core3num5error15TryFromIntErrorNtNtB8_5error5Error7provideCsaLOjE9VYtxK_3std, symObjAddr: 0x4DD6C, symBinAddr: 0x10024A75C, symSize: 0x4 }
  - { offset: 0xE1B2F, size: 0x8, addend: 0x0, symName: __RNvYNtNtNtCs6sq8b9ugfBC_4core3num5error15TryFromIntErrorNtNtB8_5error5Error7type_idCsaLOjE9VYtxK_3std, symObjAddr: 0x4DD70, symBinAddr: 0x10024A760, symSize: 0x14 }
  - { offset: 0xE1B4E, size: 0x8, addend: 0x0, symName: __RNvYNtNtNtCs6sq8b9ugfBC_4core3num5error15TryFromIntErrorNtNtB8_5error5Error7type_idCsaLOjE9VYtxK_3std, symObjAddr: 0x4DD70, symBinAddr: 0x10024A760, symSize: 0x14 }
  - { offset: 0xE1B61, size: 0x8, addend: 0x0, symName: __RNvYNtNvXsf_NtNtCs8dnTdrJsiec_5alloc5boxed7convertINtBc_3BoxDNtNtCs6sq8b9ugfBC_4core5error5ErrorNtNtB11_6marker4SyncNtB1y_4SendEL_EINtNtB11_7convert4FromNtNtBe_6string6StringE4from11StringErrorBX_11descriptionCsaLOjE9VYtxK_3std, symObjAddr: 0x4E0B4, symBinAddr: 0x10024AAA4, symSize: 0x10 }
  - { offset: 0xE1B7C, size: 0x8, addend: 0x0, symName: __RNvYNtNvXsf_NtNtCs8dnTdrJsiec_5alloc5boxed7convertINtBc_3BoxDNtNtCs6sq8b9ugfBC_4core5error5ErrorNtNtB11_6marker4SyncNtB1y_4SendEL_EINtNtB11_7convert4FromNtNtBe_6string6StringE4from11StringErrorBX_5causeCsaLOjE9VYtxK_3std, symObjAddr: 0x4E0C4, symBinAddr: 0x10024AAB4, symSize: 0x8 }
  - { offset: 0xE1B97, size: 0x8, addend: 0x0, symName: __RNvYNtNvXsf_NtNtCs8dnTdrJsiec_5alloc5boxed7convertINtBc_3BoxDNtNtCs6sq8b9ugfBC_4core5error5ErrorNtNtB11_6marker4SyncNtB1y_4SendEL_EINtNtB11_7convert4FromNtNtBe_6string6StringE4from11StringErrorBX_7provideCsaLOjE9VYtxK_3std, symObjAddr: 0x4E0CC, symBinAddr: 0x10024AABC, symSize: 0x4 }
  - { offset: 0xE1BB3, size: 0x8, addend: 0x0, symName: __RNvYNtNvXsf_NtNtCs8dnTdrJsiec_5alloc5boxed7convertINtBc_3BoxDNtNtCs6sq8b9ugfBC_4core5error5ErrorNtNtB11_6marker4SyncNtB1y_4SendEL_EINtNtB11_7convert4FromNtNtBe_6string6StringE4from11StringErrorBX_7type_idCsaLOjE9VYtxK_3std, symObjAddr: 0x4E0D0, symBinAddr: 0x10024AAC0, symSize: 0x14 }
  - { offset: 0xE1BD2, size: 0x8, addend: 0x0, symName: __RNvYNtNvXsf_NtNtCs8dnTdrJsiec_5alloc5boxed7convertINtBc_3BoxDNtNtCs6sq8b9ugfBC_4core5error5ErrorNtNtB11_6marker4SyncNtB1y_4SendEL_EINtNtB11_7convert4FromNtNtBe_6string6StringE4from11StringErrorBX_7type_idCsaLOjE9VYtxK_3std, symObjAddr: 0x4E0D0, symBinAddr: 0x10024AAC0, symSize: 0x14 }
  - { offset: 0xE1C30, size: 0x8, addend: 0x0, symName: __RNvMs1_NtCs3S5NQbda6bJ_9addr2line8functionINtB5_8FunctionINtNtNtCsixjwb4TfRM4_5gimli4read12endian_slice11EndianSliceNtNtB10_9endianity12LittleEndianEE14parse_childrenCsaLOjE9VYtxK_3std, symObjAddr: 0x1D75C, symBinAddr: 0x10021BA80, symSize: 0xEA8 }
  - { offset: 0xE359C, size: 0x8, addend: 0x0, symName: __RINvNtCs3S5NQbda6bJ_9addr2line8function10name_entryINtNtNtCsixjwb4TfRM4_5gimli4read12endian_slice11EndianSliceNtNtBU_9endianity12LittleEndianEECsaLOjE9VYtxK_3std, symObjAddr: 0x53B8, symBinAddr: 0x1002048F4, symSize: 0x364 }
  - { offset: 0xE3A81, size: 0x8, addend: 0x0, symName: __RINvNtCs3S5NQbda6bJ_9addr2line8function9name_attrINtNtNtCsixjwb4TfRM4_5gimli4read12endian_slice11EndianSliceNtNtBS_9endianity12LittleEndianEECsaLOjE9VYtxK_3std, symObjAddr: 0x571C, symBinAddr: 0x100204C58, symSize: 0x1C0 }
  - { offset: 0xE3DF9, size: 0x8, addend: 0x0, symName: __RINvNtCs3S5NQbda6bJ_9addr2line4line11render_fileINtNtNtCsixjwb4TfRM4_5gimli4read12endian_slice11EndianSliceNtNtBR_9endianity12LittleEndianEECsaLOjE9VYtxK_3std, symObjAddr: 0x4F30, symBinAddr: 0x10020446C, symSize: 0x488 }
  - { offset: 0xE4862, size: 0x8, addend: 0x0, symName: __RNvMs0_Cs3S5NQbda6bJ_9addr2lineINtB5_7ContextINtNtNtCsixjwb4TfRM4_5gimli4read12endian_slice11EndianSliceNtNtBO_9endianity12LittleEndianEE9find_unitCsaLOjE9VYtxK_3std, symObjAddr: 0x1A3B8, symBinAddr: 0x1002186DC, symSize: 0x15C }
  - { offset: 0xE4B03, size: 0x8, addend: 0x0, symName: __RNvMNtCs3S5NQbda6bJ_9addr2line4unitINtB2_7ResUnitINtNtNtCsixjwb4TfRM4_5gimli4read12endian_slice11EndianSliceNtNtBS_9endianity12LittleEndianEE25find_function_or_locationCsaLOjE9VYtxK_3std, symObjAddr: 0x162E0, symBinAddr: 0x100214B34, symSize: 0x380 }
  - { offset: 0xE5028, size: 0x8, addend: 0x0, symName: __RNCNvMNtCs3S5NQbda6bJ_9addr2line4unitINtB4_7ResUnitINtNtNtCsixjwb4TfRM4_5gimli4read12endian_slice11EndianSliceNtNtBU_9endianity12LittleEndianEE25find_function_or_location0CsaLOjE9VYtxK_3std, symObjAddr: 0x1420C, symBinAddr: 0x100212CC8, symSize: 0x328 }
  - { offset: 0xE54AC, size: 0x8, addend: 0x0, symName: __RNvMs2_NtCs3S5NQbda6bJ_9addr2line6lookupINtB5_13LoopingLookupINtNtCs6sq8b9ugfBC_4core6result6ResultINtNtB7_5frame9FrameIterINtNtNtCsixjwb4TfRM4_5gimli4read12endian_slice11EndianSliceNtNtB24_9endianity12LittleEndianEENtB22_5ErrorEINtB5_12MappedLookupIBY_TINtNtB12_6option6OptionRINtNtB7_8function8FunctionB1X_EEIB45_NtB1C_8LocationEEB3s_EINtB5_12SimpleLookupIBY_TNtB7_9DebugFileINtNtB22_5dwarf7UnitRefB1X_EEB3s_EB1X_NCNvMNtB7_4unitINtB6K_7ResUnitB1X_E14dwarf_and_units4_0ENCNvB6J_25find_function_or_location0ENCNvMs_B7_INtB7_7ContextB1X_E11find_frames0E10new_lookupCsaLOjE9VYtxK_3std, symObjAddr: 0x1ED58, symBinAddr: 0x10021CD04, symSize: 0x44C }
  - { offset: 0xE5A4E, size: 0x8, addend: 0x0, symName: __RNvMNtCs3S5NQbda6bJ_9addr2line5frameINtB2_9FrameIterINtNtNtCsixjwb4TfRM4_5gimli4read12endian_slice11EndianSliceNtNtBV_9endianity12LittleEndianEE4nextCsaLOjE9VYtxK_3std, symObjAddr: 0x16660, symBinAddr: 0x100214EB4, symSize: 0x2C0 }
  - { offset: 0xE62F2, size: 0x8, addend: 0x0, symName: __RNvMsb_NtNtCsixjwb4TfRM4_5gimli4read4unitINtB5_9AttributeINtNtB7_12endian_slice11EndianSliceNtNtB9_9endianity12LittleEndianEE5valueCsaLOjE9VYtxK_3std, symObjAddr: 0x2A794, symBinAddr: 0x100227EF4, symSize: 0x654 }
  - { offset: 0xE66CB, size: 0x8, addend: 0x0, symName: __RNvXsJ_NtNtCsixjwb4TfRM4_5gimli4read4unitINtB5_14AttributeValueINtNtB7_12endian_slice11EndianSliceNtNtB9_9endianity12LittleEndianEjENtNtCs6sq8b9ugfBC_4core5clone5Clone5cloneCsaLOjE9VYtxK_3std, symObjAddr: 0x466B8, symBinAddr: 0x1002430A8, symSize: 0x68 }
  - { offset: 0xE673A, size: 0x8, addend: 0x0, symName: __RNvMsc_NtNtCsixjwb4TfRM4_5gimli4read4unitINtB5_14AttributeValueINtNtB7_12endian_slice11EndianSliceNtNtB9_9endianity12LittleEndianEjE8u8_valueCsaLOjE9VYtxK_3std, symObjAddr: 0x2ADE8, symBinAddr: 0x100228548, symSize: 0x94 }
  - { offset: 0xE6772, size: 0x8, addend: 0x0, symName: __RNvMsc_NtNtCsixjwb4TfRM4_5gimli4read4unitINtB5_14AttributeValueINtNtB7_12endian_slice11EndianSliceNtNtB9_9endianity12LittleEndianEjE9u16_valueCsaLOjE9VYtxK_3std, symObjAddr: 0x2AE7C, symBinAddr: 0x1002285DC, symSize: 0x94 }
  - { offset: 0xE67E3, size: 0x8, addend: 0x0, symName: __RINvNtNtCsixjwb4TfRM4_5gimli4read4unit15parse_attributeINtNtB4_12endian_slice11EndianSliceNtNtB6_9endianity12LittleEndianEECsaLOjE9VYtxK_3std, symObjAddr: 0x9B2C, symBinAddr: 0x100208DB0, symSize: 0xF34 }
  - { offset: 0xE90C1, size: 0x8, addend: 0x0, symName: __RINvNtNtCsixjwb4TfRM4_5gimli4read4unit15skip_attributesINtNtB4_12endian_slice11EndianSliceNtNtB6_9endianity12LittleEndianEECsaLOjE9VYtxK_3std, symObjAddr: 0xAA60, symBinAddr: 0x100209CE4, symSize: 0x4A0 }
  - { offset: 0xE998E, size: 0x8, addend: 0x0, symName: __RNvMsf_NtNtCsixjwb4TfRM4_5gimli4read4unitINtB5_13EntriesCursorINtNtB7_12endian_slice11EndianSliceNtNtB9_9endianity12LittleEndianEE10next_entryCsaLOjE9VYtxK_3std, symObjAddr: 0x2BDD8, symBinAddr: 0x100229538, symSize: 0x2B8 }
  - { offset: 0xEA002, size: 0x8, addend: 0x0, symName: __RNvMs6_NtNtCsixjwb4TfRM4_5gimli4read4unitINtB5_24DebugInfoUnitHeadersIterINtNtB7_12endian_slice11EndianSliceNtNtB9_9endianity12LittleEndianEE4nextCsaLOjE9VYtxK_3std, symObjAddr: 0x22598, symBinAddr: 0x10021FE84, symSize: 0x434 }
  - { offset: 0xEB089, size: 0x8, addend: 0x0, symName: __RNvMs4_NtNtCsixjwb4TfRM4_5gimli4read5dwarfINtB5_4UnitINtNtB7_12endian_slice11EndianSliceNtNtB9_9endianity12LittleEndianEjE3newCsaLOjE9VYtxK_3std, symObjAddr: 0x20438, symBinAddr: 0x10021DD24, symSize: 0x1B88 }
  - { offset: 0xEEBCF, size: 0x8, addend: 0x0, symName: __RNvMs0_NtNtCsixjwb4TfRM4_5gimli4read5dwarfINtB5_5DwarfINtNtB7_12endian_slice11EndianSliceNtNtB9_9endianity12LittleEndianEE11attr_stringCsaLOjE9VYtxK_3std, symObjAddr: 0x1A710, symBinAddr: 0x100218A34, symSize: 0x220 }
  - { offset: 0xEF569, size: 0x8, addend: 0x0, symName: __RNvYINtNtNtCsixjwb4TfRM4_5gimli4read12endian_slice11EndianSliceNtNtB9_9endianity12LittleEndianENtNtB7_6reader6Reader11read_offsetCsaLOjE9VYtxK_3std, symObjAddr: 0x4D224, symBinAddr: 0x100249C14, symSize: 0x88 }
  - { offset: 0xEF785, size: 0x8, addend: 0x0, symName: __RNvYINtNtNtCsixjwb4TfRM4_5gimli4read12endian_slice11EndianSliceNtNtB9_9endianity12LittleEndianENtNtB7_6reader6Reader12read_sleb128CsaLOjE9VYtxK_3std, symObjAddr: 0x4D2AC, symBinAddr: 0x100249C9C, symSize: 0x23C }
  - { offset: 0xEF85D, size: 0x8, addend: 0x0, symName: __RNvYINtNtNtCsixjwb4TfRM4_5gimli4read12endian_slice11EndianSliceNtNtB9_9endianity12LittleEndianENtNtB7_6reader6Reader12read_uleb128CsaLOjE9VYtxK_3std, symObjAddr: 0x4D4E8, symBinAddr: 0x100249ED8, symSize: 0xB8 }
  - { offset: 0xEF922, size: 0x8, addend: 0x0, symName: __RNvYINtNtNtCsixjwb4TfRM4_5gimli4read12endian_slice11EndianSliceNtNtB9_9endianity12LittleEndianENtNtB7_6reader6Reader17read_sized_offsetCsaLOjE9VYtxK_3std, symObjAddr: 0x4D5A0, symBinAddr: 0x100249F90, symSize: 0x120 }
  - { offset: 0xEFFAD, size: 0x8, addend: 0x0, symName: __RNvMsc_NtNtCsixjwb4TfRM4_5gimli4read8rnglistsINtB5_11RngListIterINtNtB7_12endian_slice11EndianSliceNtNtB9_9endianity12LittleEndianEE4nextCsaLOjE9VYtxK_3std, symObjAddr: 0x2AF10, symBinAddr: 0x100228670, symSize: 0xCAC }
  - { offset: 0xF2A5F, size: 0x8, addend: 0x0, symName: __RNvMsd_NtNtCsixjwb4TfRM4_5gimli4read4lineINtB5_9FileEntryINtNtB7_12endian_slice11EndianSliceNtNtB9_9endianity12LittleEndianEjE5parseCsaLOjE9VYtxK_3std, symObjAddr: 0x2BBBC, symBinAddr: 0x10022931C, symSize: 0x21C }
  - { offset: 0xF2D09, size: 0x8, addend: 0x0, symName: __RINvMse_NtNtCsixjwb4TfRM4_5gimli4read4lineNtB6_15FileEntryFormat5parseINtNtB8_12endian_slice11EndianSliceNtNtBa_9endianity12LittleEndianEECsaLOjE9VYtxK_3std, symObjAddr: 0x4A1C, symBinAddr: 0x100203F58, symSize: 0x368 }
  - { offset: 0xF34E7, size: 0x8, addend: 0x0, symName: __RINvNtNtCsixjwb4TfRM4_5gimli4read4line13parse_file_v5INtNtB4_12endian_slice11EndianSliceNtNtB6_9endianity12LittleEndianEECsaLOjE9VYtxK_3std, symObjAddr: 0x8FA0, symBinAddr: 0x100208224, symSize: 0x2A8 }
  - { offset: 0xF3688, size: 0x8, addend: 0x0, symName: __RINvNtNtCsixjwb4TfRM4_5gimli4read4line15parse_attributeINtNtB4_12endian_slice11EndianSliceNtNtB6_9endianity12LittleEndianEECsaLOjE9VYtxK_3std, symObjAddr: 0x9248, symBinAddr: 0x1002084CC, symSize: 0x800 }
  - { offset: 0xF4B40, size: 0x8, addend: 0x0, symName: __RINvNtNtCsixjwb4TfRM4_5gimli4read4line18parse_directory_v5INtNtB4_12endian_slice11EndianSliceNtNtB6_9endianity12LittleEndianEECsaLOjE9VYtxK_3std, symObjAddr: 0x9A48, symBinAddr: 0x100208CCC, symSize: 0xE4 }
  - { offset: 0xF4C08, size: 0x8, addend: 0x0, symName: __RNvXs11_NtNtCsixjwb4TfRM4_5gimli4read4lineINtB6_9FileEntryINtNtB8_12endian_slice11EndianSliceNtNtBa_9endianity12LittleEndianEjENtNtCs6sq8b9ugfBC_4core5clone5Clone5cloneCsaLOjE9VYtxK_3std, symObjAddr: 0x3F6A0, symBinAddr: 0x10023C090, symSize: 0x1D4 }
  - { offset: 0xF4CDF, size: 0x8, addend: 0x0, symName: __RNvMs4_NtNtCsixjwb4TfRM4_5gimli4read7arangesINtB5_12ArangeHeaderINtNtB7_12endian_slice11EndianSliceNtNtB9_9endianity12LittleEndianEjE5parseCsaLOjE9VYtxK_3std, symObjAddr: 0x21FC0, symBinAddr: 0x10021F8AC, symSize: 0x2BC }
  - { offset: 0xF4D0A, size: 0x8, addend: 0x0, symName: __RNvMs4_NtNtCsixjwb4TfRM4_5gimli4read7arangesINtB5_12ArangeHeaderINtNtB7_12endian_slice11EndianSliceNtNtB9_9endianity12LittleEndianEjE5parseCsaLOjE9VYtxK_3std, symObjAddr: 0x21FC0, symBinAddr: 0x10021F8AC, symSize: 0x2BC }
  - { offset: 0xF4D20, size: 0x8, addend: 0x0, symName: __RNvMs4_NtNtCsixjwb4TfRM4_5gimli4read7arangesINtB5_12ArangeHeaderINtNtB7_12endian_slice11EndianSliceNtNtB9_9endianity12LittleEndianEjE5parseCsaLOjE9VYtxK_3std, symObjAddr: 0x21FC0, symBinAddr: 0x10021F8AC, symSize: 0x2BC }
  - { offset: 0xF4D36, size: 0x8, addend: 0x0, symName: __RNvMs4_NtNtCsixjwb4TfRM4_5gimli4read7arangesINtB5_12ArangeHeaderINtNtB7_12endian_slice11EndianSliceNtNtB9_9endianity12LittleEndianEjE5parseCsaLOjE9VYtxK_3std, symObjAddr: 0x21FC0, symBinAddr: 0x10021F8AC, symSize: 0x2BC }
  - { offset: 0xF5495, size: 0x8, addend: 0x0, symName: __RNvMs8_NtNtCsixjwb4TfRM4_5gimli4read5indexINtB5_9UnitIndexINtNtB7_12endian_slice11EndianSliceNtNtB9_9endianity12LittleEndianEE5parseCsaLOjE9VYtxK_3std, symObjAddr: 0x22FEC, symBinAddr: 0x1002208D8, symSize: 0x7D0 }
  - { offset: 0xF60DE, size: 0x8, addend: 0x0, symName: __RNvMsn_NtCs8dnTdrJsiec_5alloc4syncINtB5_3ArcINtNtNtCs6sq8b9ugfBC_4core3mem12maybe_uninit11MaybeUninitNtNtNtCsaLOjE9VYtxK_3std6thread6thread5InnerENtNtB1H_5alloc6SystemE9drop_slowB1H_, symObjAddr: 0x2E450, symBinAddr: 0x10022BBB0, symSize: 0x2C }
  - { offset: 0xF61C4, size: 0x8, addend: 0x0, symName: __RNvMsn_NtCs8dnTdrJsiec_5alloc4syncINtB5_3ArcINtNtNtCsixjwb4TfRM4_5gimli4read5dwarf5DwarfINtNtBL_12endian_slice11EndianSliceNtNtBN_9endianity12LittleEndianEEE9drop_slowCsaLOjE9VYtxK_3std, symObjAddr: 0x2E47C, symBinAddr: 0x10022BBDC, symSize: 0xD0 }
  - { offset: 0xF644E, size: 0x8, addend: 0x0, symName: __RNvMsn_NtCs8dnTdrJsiec_5alloc4syncINtB5_3ArcINtNtNtNtCsaLOjE9VYtxK_3std4sync6poison5mutex5MutexINtNtB7_3vec3VechEEE9drop_slowBP_, symObjAddr: 0x2E54C, symBinAddr: 0x10022BCAC, symSize: 0xA0 }
  - { offset: 0xF67F2, size: 0x8, addend: 0x0, symName: __RNvMsn_NtCs8dnTdrJsiec_5alloc4syncINtB5_3ArcNtNtNtCsaLOjE9VYtxK_3std6thread6thread5InnerNtNtBM_5alloc6SystemE9drop_slowBM_, symObjAddr: 0x2E5EC, symBinAddr: 0x10022BD4C, symSize: 0x70 }
  - { offset: 0xF69FF, size: 0x8, addend: 0x0, symName: __RNvMsn_NtCs8dnTdrJsiec_5alloc4syncINtB5_3ArcNtNtNtCsaLOjE9VYtxK_3std6thread9spawnhook9SpawnHookE9drop_slowBM_, symObjAddr: 0x2E65C, symBinAddr: 0x10022BDBC, symSize: 0x98 }
  - { offset: 0xF6C0B, size: 0x8, addend: 0x0, symName: __RNvMsn_NtCs8dnTdrJsiec_5alloc4syncINtB5_3ArcNtNtNtCsixjwb4TfRM4_5gimli4read6abbrev13AbbreviationsE9drop_slowCsaLOjE9VYtxK_3std, symObjAddr: 0x2E6F4, symBinAddr: 0x10022BE54, symSize: 0x98 }
  - { offset: 0xF6E17, size: 0x8, addend: 0x0, symName: __RNvMsn_NtCs8dnTdrJsiec_5alloc4syncINtB5_3ArcNtNtNtNtCsaLOjE9VYtxK_3std3sys2fs4unix12InnerReadDirE9drop_slowBO_, symObjAddr: 0x2E78C, symBinAddr: 0x10022BEEC, symSize: 0xC0 }
  - { offset: 0xF932A, size: 0x8, addend: 0x0, symName: __RNvXNtNtCs8dnTdrJsiec_5alloc3vec21spec_from_iter_nestedINtB4_3VecNtNtNtCs6sq8b9ugfBC_4core3net11socket_addr10SocketAddrEINtB2_18SpecFromIterNestedB11_NtNtNtNtNtCsaLOjE9VYtxK_3std3sys3net10connection6socket10LookupHostE9from_iterB2y_, symObjAddr: 0x3CD3C, symBinAddr: 0x1002397BC, symSize: 0x190 }
  - { offset: 0xF97CB, size: 0x8, addend: 0x0, symName: __RNvXsq_NtCs8dnTdrJsiec_5alloc3vecINtB5_3VechENtNtCs6sq8b9ugfBC_4core3fmt5Debug3fmtCsaLOjE9VYtxK_3std, symObjAddr: 0x4BF4C, symBinAddr: 0x10024893C, symSize: 0x6C }
  - { offset: 0xF9EFE, size: 0x8, addend: 0x0, symName: __RNvMs4_NtCs8dnTdrJsiec_5alloc7raw_vecINtB5_11RawVecInnerNtNtCsaLOjE9VYtxK_3std5alloc6SystemE11finish_growBW_, symObjAddr: 0x20280, symBinAddr: 0x10030E444, symSize: 0x94 }
  - { offset: 0xFA01E, size: 0x8, addend: 0x0, symName: __RNvMs4_NtCs8dnTdrJsiec_5alloc7raw_vecINtB5_11RawVecInnerNtNtCsaLOjE9VYtxK_3std5alloc6SystemE14grow_amortizedBW_, symObjAddr: 0x20314, symBinAddr: 0x10030E4D8, symSize: 0x70 }
  - { offset: 0xFAE58, size: 0x8, addend: 0x0, symName: __RNvMs3_NtCs8dnTdrJsiec_5alloc7raw_vecINtB5_6RawVecINtNtB7_5boxed3BoxDINtNtNtCs6sq8b9ugfBC_4core3ops8function5FnMutuEp6OutputINtNtB1c_6result6ResultuNtNtNtCsaLOjE9VYtxK_3std2io5error5ErrorENtNtB1c_6marker4SyncNtB32_4SendEL_EE8grow_oneB2s_, symObjAddr: 0x1FA64, symBinAddr: 0x10030DF3C, symSize: 0x68 }
  - { offset: 0xFAEE1, size: 0x8, addend: 0x0, symName: __RNvMs3_NtCs8dnTdrJsiec_5alloc7raw_vecINtB5_6RawVecINtNtCs3S5NQbda6bJ_9addr2line4unit7ResUnitINtNtNtCsixjwb4TfRM4_5gimli4read12endian_slice11EndianSliceNtNtB1z_9endianity12LittleEndianEEE8grow_oneCsaLOjE9VYtxK_3std, symObjAddr: 0x1FACC, symBinAddr: 0x10030DFA4, symSize: 0x68 }
  - { offset: 0xFAF6A, size: 0x8, addend: 0x0, symName: __RNvMs3_NtCs8dnTdrJsiec_5alloc7raw_vecINtB5_6RawVecINtNtCs3S5NQbda6bJ_9addr2line4unit7SupUnitINtNtNtCsixjwb4TfRM4_5gimli4read12endian_slice11EndianSliceNtNtB1z_9endianity12LittleEndianEEE8grow_oneCsaLOjE9VYtxK_3std, symObjAddr: 0x1FB34, symBinAddr: 0x10030E00C, symSize: 0x68 }
  - { offset: 0xFAFF3, size: 0x8, addend: 0x0, symName: __RNvMs3_NtCs8dnTdrJsiec_5alloc7raw_vecINtB5_6RawVecINtNtCs3S5NQbda6bJ_9addr2line8function12LazyFunctionINtNtNtCsixjwb4TfRM4_5gimli4read12endian_slice11EndianSliceNtNtB1J_9endianity12LittleEndianEEE8grow_oneCsaLOjE9VYtxK_3std, symObjAddr: 0x1FB9C, symBinAddr: 0x10030E074, symSize: 0x68 }
  - { offset: 0xFB07C, size: 0x8, addend: 0x0, symName: __RNvMs3_NtCs8dnTdrJsiec_5alloc7raw_vecINtB5_6RawVecINtNtCs3S5NQbda6bJ_9addr2line8function15InlinedFunctionINtNtNtCsixjwb4TfRM4_5gimli4read12endian_slice11EndianSliceNtNtB1M_9endianity12LittleEndianEEE8grow_oneCsaLOjE9VYtxK_3std, symObjAddr: 0x1FC04, symBinAddr: 0x10030E0DC, symSize: 0x68 }
  - { offset: 0xFB105, size: 0x8, addend: 0x0, symName: __RNvMs3_NtCs8dnTdrJsiec_5alloc7raw_vecINtB5_6RawVecINtNtNtCsixjwb4TfRM4_5gimli4read4line9FileEntryINtNtBR_12endian_slice11EndianSliceNtNtBT_9endianity12LittleEndianEjEE8grow_oneCsaLOjE9VYtxK_3std, symObjAddr: 0x1FC6C, symBinAddr: 0x10030E144, symSize: 0x68 }
  - { offset: 0xFB18E, size: 0x8, addend: 0x0, symName: __RNvMs3_NtCs8dnTdrJsiec_5alloc7raw_vecINtB5_6RawVecINtNtNtCsixjwb4TfRM4_5gimli4read4unit14AttributeValueINtNtBR_12endian_slice11EndianSliceNtNtBT_9endianity12LittleEndianEjEE8grow_oneCsaLOjE9VYtxK_3std, symObjAddr: 0x1FCD4, symBinAddr: 0x10030E1AC, symSize: 0x68 }
  - { offset: 0xFB217, size: 0x8, addend: 0x0, symName: __RNvMs3_NtCs8dnTdrJsiec_5alloc7raw_vecINtB5_6RawVecNtNtCs3S5NQbda6bJ_9addr2line4line12LineSequenceE8grow_oneCsaLOjE9VYtxK_3std, symObjAddr: 0x1FD3C, symBinAddr: 0x10030E214, symSize: 0x68 }
  - { offset: 0xFB2A0, size: 0x8, addend: 0x0, symName: __RNvMs3_NtCs8dnTdrJsiec_5alloc7raw_vecINtB5_6RawVecNtNtCsaLOjE9VYtxK_3std9backtrace14BacktraceFrameE8grow_oneBQ_, symObjAddr: 0x1FDA4, symBinAddr: 0x10030E27C, symSize: 0x68 }
  - { offset: 0xFB329, size: 0x8, addend: 0x0, symName: __RNvMs3_NtCs8dnTdrJsiec_5alloc7raw_vecINtB5_6RawVecNtNtCsgmVNXhSCXCV_6object4read14ObjectMapEntryE8grow_oneCsaLOjE9VYtxK_3std, symObjAddr: 0x1FE0C, symBinAddr: 0x10030E2E4, symSize: 0x68 }
  - { offset: 0xFB3B2, size: 0x8, addend: 0x0, symName: __RNvMs3_NtCs8dnTdrJsiec_5alloc7raw_vecINtB5_6RawVecNtNtNtCsixjwb4TfRM4_5gimli4read4line15FileEntryFormatE8grow_oneCsaLOjE9VYtxK_3std, symObjAddr: 0x1FE74, symBinAddr: 0x10030E34C, symSize: 0x68 }
  - { offset: 0xFB43B, size: 0x8, addend: 0x0, symName: __RNvMs3_NtCs8dnTdrJsiec_5alloc7raw_vecINtB5_6RawVecPaE8grow_oneCsaLOjE9VYtxK_3std, symObjAddr: 0x1FEDC, symBinAddr: 0x10030E3B4, symSize: 0x68 }
  - { offset: 0xFB4C4, size: 0x8, addend: 0x0, symName: __RNvMs3_NtCs8dnTdrJsiec_5alloc7raw_vecINtB5_6RawVecTOhFUKCBN_EuENtNtCsaLOjE9VYtxK_3std5alloc6SystemE8grow_oneB13_, symObjAddr: 0x1FF44, symBinAddr: 0x10030E41C, symSize: 0x28 }
  - { offset: 0xFBE22, size: 0x8, addend: 0x0, symName: __RNvMsi_NtNtNtCs8dnTdrJsiec_5alloc11collections5btree3mapINtB5_8BTreeMapNtNtNtCsaLOjE9VYtxK_3std3ffi6os_str8OsStringB17_E6insertB1d_, symObjAddr: 0x2C090, symBinAddr: 0x1002297F0, symSize: 0xB28 }
  - { offset: 0xFE229, size: 0x8, addend: 0x0, symName: __RNvMsi_NtNtNtCs8dnTdrJsiec_5alloc11collections5btree3mapINtB5_8BTreeMapNtNtNtCsaLOjE9VYtxK_3std3ffi6os_str8OsStringINtNtCs6sq8b9ugfBC_4core6option6OptionB17_EE6insertB1d_, symObjAddr: 0x2CBB8, symBinAddr: 0x10022A318, symSize: 0xB58 }
  - { offset: 0x1008B8, size: 0x8, addend: 0x0, symName: __RNvXsk_NtNtNtCs8dnTdrJsiec_5alloc11collections5btree3mapINtB5_4IterNtNtNtCsaLOjE9VYtxK_3std3ffi6os_str8OsStringINtNtCs6sq8b9ugfBC_4core6option6OptionB13_EENtNtNtNtB1Q_4iter6traits8iterator8Iterator4nextB19_, symObjAddr: 0x4B380, symBinAddr: 0x100247D70, symSize: 0x108 }
  - { offset: 0x100BC2, size: 0x8, addend: 0x0, symName: __RNvMsz_NtNtNtCs8dnTdrJsiec_5alloc11collections5btree3mapINtB5_8IntoIterNtNtNtCsaLOjE9VYtxK_3std3ffi6os_str8OsStringB17_E10dying_nextB1d_, symObjAddr: 0x2F52C, symBinAddr: 0x10022CC8C, symSize: 0x200 }
  - { offset: 0x100FFC, size: 0x8, addend: 0x0, symName: __RNvMsz_NtNtNtCs8dnTdrJsiec_5alloc11collections5btree3mapINtB5_8IntoIteryINtNtCs6sq8b9ugfBC_4core6result6ResultINtNtBb_4sync3ArcNtNtNtCsixjwb4TfRM4_5gimli4read6abbrev13AbbreviationsENtB25_5ErrorEE10dying_nextCsaLOjE9VYtxK_3std, symObjAddr: 0x2F72C, symBinAddr: 0x10022CE8C, symSize: 0x200 }
  - { offset: 0x101436, size: 0x8, addend: 0x0, symName: __RNvMsz_NtNtNtCs8dnTdrJsiec_5alloc11collections5btree3mapINtB5_8IntoIteryNtNtNtCsixjwb4TfRM4_5gimli4read6abbrev12AbbreviationE10dying_nextCsaLOjE9VYtxK_3std, symObjAddr: 0x2F92C, symBinAddr: 0x10022D08C, symSize: 0x200 }
  - { offset: 0x1018A1, size: 0x8, addend: 0x0, symName: __RNvXs1x_NtNtNtCs8dnTdrJsiec_5alloc11collections5btree3mapINtB6_8BTreeMapNtNtNtCsaLOjE9VYtxK_3std3ffi6os_str8OsStringINtNtCs6sq8b9ugfBC_4core6option6OptionB18_EENtNtB1V_3fmt5Debug3fmtB1e_, symObjAddr: 0x40F40, symBinAddr: 0x10023D930, symSize: 0x14C }
  - { offset: 0x102DB0, size: 0x8, addend: 0x0, symName: __RINvMs_NtNtNtCs8dnTdrJsiec_5alloc11collections5btree6removeINtNtB7_4node6HandleINtBY_7NodeRefNtNtBY_6marker3MutNtNtNtCsaLOjE9VYtxK_3std3ffi6os_str8OsStringB1L_NtB1v_4LeafENtB1v_2KVE14remove_leaf_kvNCNvMs7_NtNtB7_3map5entryINtB3h_13OccupiedEntryB1L_B1L_E9remove_kv0NtNtBb_5alloc6GlobalEB1R_, symObjAddr: 0x3B54, symBinAddr: 0x100203090, symSize: 0x50C }
  - { offset: 0x103A19, size: 0x8, addend: 0x0, symName: __RINvMs_NtNtNtCs8dnTdrJsiec_5alloc11collections5btree6removeINtNtB7_4node6HandleINtBY_7NodeRefNtNtBY_6marker3MutNtNtNtCsaLOjE9VYtxK_3std3ffi6os_str8OsStringINtNtCs6sq8b9ugfBC_4core6option6OptionB1L_ENtB1v_4LeafENtB1v_2KVE14remove_leaf_kvNCNvMs7_NtNtB7_3map5entryINtB3U_13OccupiedEntryB1L_B2t_E9remove_kv0NtNtBb_5alloc6GlobalEB1R_, symObjAddr: 0x4060, symBinAddr: 0x10020359C, symSize: 0x50C }
  - { offset: 0x104666, size: 0x8, addend: 0x0, symName: __RINvMs_NtNtNtCs8dnTdrJsiec_5alloc11collections5btree6removeINtNtB7_4node6HandleINtBY_7NodeRefNtNtBY_6marker3MutjNtNtNtNtNtNtCsaLOjE9VYtxK_3std3sys3pal4unix14stack_overflow11thread_info10ThreadInfoNtB1v_4LeafENtB1v_2KVE14remove_leaf_kvNCNvMs7_NtNtB7_3map5entryINtB3S_13OccupiedEntryjB1M_E9remove_kv0NtNtBb_5alloc6GlobalEB1Y_, symObjAddr: 0x456C, symBinAddr: 0x100203AA8, symSize: 0x4B0 }
  - { offset: 0x1059B6, size: 0x8, addend: 0x0, symName: __RINvMs10_NtNtNtCs8dnTdrJsiec_5alloc11collections5btree4nodeINtB7_16BalancingContextNtNtNtCsaLOjE9VYtxK_3std3ffi6os_str8OsStringB1j_E25merge_tracking_child_edgeNtNtBd_5alloc6GlobalEB1p_, symObjAddr: 0x34A8, symBinAddr: 0x1002029E4, symSize: 0x2B0 }
  - { offset: 0x1060F9, size: 0x8, addend: 0x0, symName: __RINvMs10_NtNtNtCs8dnTdrJsiec_5alloc11collections5btree4nodeINtB7_16BalancingContextjNtNtNtNtNtNtCsaLOjE9VYtxK_3std3sys3pal4unix14stack_overflow11thread_info10ThreadInfoE25merge_tracking_child_edgeNtNtBd_5alloc6GlobalEB1w_, symObjAddr: 0x3758, symBinAddr: 0x100202C94, symSize: 0x264 }
  - { offset: 0x1068FC, size: 0x8, addend: 0x0, symName: __RNvMs10_NtNtNtCs8dnTdrJsiec_5alloc11collections5btree4nodeINtB6_16BalancingContextNtNtNtCsaLOjE9VYtxK_3std3ffi6os_str8OsStringB1i_E15bulk_steal_leftB1o_, symObjAddr: 0x1B79C, symBinAddr: 0x100219AC0, symSize: 0x280 }
  - { offset: 0x106E95, size: 0x8, addend: 0x0, symName: __RNvMs10_NtNtNtCs8dnTdrJsiec_5alloc11collections5btree4nodeINtB6_16BalancingContextNtNtNtCsaLOjE9VYtxK_3std3ffi6os_str8OsStringB1i_E16bulk_steal_rightB1o_, symObjAddr: 0x1BA1C, symBinAddr: 0x100219D40, symSize: 0x2B0 }
  - { offset: 0x107516, size: 0x8, addend: 0x0, symName: __RNvMs10_NtNtNtCs8dnTdrJsiec_5alloc11collections5btree4nodeINtB6_16BalancingContextjNtNtNtNtNtNtCsaLOjE9VYtxK_3std3sys3pal4unix14stack_overflow11thread_info10ThreadInfoE15bulk_steal_leftB1v_, symObjAddr: 0x1BCCC, symBinAddr: 0x100219FF0, symSize: 0x22C }
  - { offset: 0x107AAF, size: 0x8, addend: 0x0, symName: __RNvMs10_NtNtNtCs8dnTdrJsiec_5alloc11collections5btree4nodeINtB6_16BalancingContextjNtNtNtNtNtNtCsaLOjE9VYtxK_3std3sys3pal4unix14stack_overflow11thread_info10ThreadInfoE16bulk_steal_rightB1v_, symObjAddr: 0x1BEF8, symBinAddr: 0x10021A21C, symSize: 0x274 }
  - { offset: 0x109082, size: 0x8, addend: 0x0, symName: __RNvNtCs8dnTdrJsiec_5alloc5boxed14box_new_uninit, symObjAddr: 0x2FB2C, symBinAddr: 0x10022D28C, symSize: 0x48 }
  - { offset: 0x1093F6, size: 0x8, addend: 0x0, symName: __RNvXsZ_NtCs8dnTdrJsiec_5alloc6stringNtB5_6StringNtNtCs6sq8b9ugfBC_4core3fmt5Write10write_char, symObjAddr: 0x46C00, symBinAddr: 0x1002435F0, symSize: 0x11C }
  - { offset: 0x1095AC, size: 0x8, addend: 0x0, symName: __RNvXsZ_NtCs8dnTdrJsiec_5alloc6stringNtB5_6StringNtNtCs6sq8b9ugfBC_4core3fmt5Write9write_str, symObjAddr: 0x46D1C, symBinAddr: 0x10024370C, symSize: 0x84 }
  - { offset: 0x109717, size: 0x8, addend: 0x0, symName: __RNvXsq_NtCs8dnTdrJsiec_5alloc6stringNtB5_6StringNtNtCs6sq8b9ugfBC_4core3fmt7Display3fmt, symObjAddr: 0x4BFB8, symBinAddr: 0x1002489A8, symSize: 0x10 }
  - { offset: 0x1097DA, size: 0x8, addend: 0x0, symName: __RNvXsr_NtCs8dnTdrJsiec_5alloc6stringNtB5_6StringNtNtCs6sq8b9ugfBC_4core3fmt5Debug3fmt, symObjAddr: 0x4C018, symBinAddr: 0x100248A08, symSize: 0x10 }
  - { offset: 0x1098B9, size: 0x8, addend: 0x0, symName: __RNvXsa_NtCs8dnTdrJsiec_5alloc6borrowINtB5_3CowNtNtCsaLOjE9VYtxK_3std4path4PathENtNtCs6sq8b9ugfBC_4core3fmt5Debug3fmtBM_, symObjAddr: 0x48D14, symBinAddr: 0x100245704, symSize: 0x34 }
  - { offset: 0x1098DB, size: 0x8, addend: 0x0, symName: __RNvXsb_NtCs8dnTdrJsiec_5alloc6borrowINtB5_3CoweENtNtCs6sq8b9ugfBC_4core3fmt7Display3fmtCsaLOjE9VYtxK_3std, symObjAddr: 0x4918C, symBinAddr: 0x100245B7C, symSize: 0x10 }
  - { offset: 0x109AC2, size: 0x8, addend: 0x0, symName: __RNvXsX_NtNtCs8dnTdrJsiec_5alloc3ffi5c_strNtB5_8NulErrorNtNtCs6sq8b9ugfBC_4core3fmt5Debug3fmt, symObjAddr: 0x46BB4, symBinAddr: 0x1002435A4, symSize: 0x4C }
  - { offset: 0x109C55, size: 0x8, addend: 0x0, symName: __RNCINvNtNtCsaLOjE9VYtxK_3std6thread7current17with_current_nameNCNCNvNtB8_9panicking12default_hook00uE0B8_, symObjAddr: 0x1395C, symBinAddr: 0x100212448, symSize: 0x2E8 }
  - { offset: 0x10A0D2, size: 0x8, addend: 0x0, symName: __RNvNtNtCsaLOjE9VYtxK_3std6thread7current12init_current, symObjAddr: 0x34074, symBinAddr: 0x10030E810, symSize: 0x13C }
  - { offset: 0x10A3C8, size: 0x8, addend: 0x0, symName: __RNvNtNtCsaLOjE9VYtxK_3std6thread7current18current_or_unnamed, symObjAddr: 0x341B0, symBinAddr: 0x100231698, symSize: 0xBC }
  - { offset: 0x10A613, size: 0x8, addend: 0x0, symName: __RNvNtNtCsaLOjE9VYtxK_3std6thread7current7current, symObjAddr: 0x3426C, symBinAddr: 0x100231754, symSize: 0x48 }
  - { offset: 0x10A7A7, size: 0x8, addend: 0x0, symName: __RNvMs_NtNtCsaLOjE9VYtxK_3std6thread6threadNtB4_6Thread12park_timeout, symObjAddr: 0x25158, symBinAddr: 0x100222A44, symSize: 0x90 }
  - { offset: 0x10A8F2, size: 0x8, addend: 0x0, symName: __RNvMs_NtNtCsaLOjE9VYtxK_3std6thread6threadNtB4_6Thread3new, symObjAddr: 0x251E8, symBinAddr: 0x100222AD4, symSize: 0x18C }
  - { offset: 0x10AC35, size: 0x8, addend: 0x0, symName: __RNvMs_NtNtCsaLOjE9VYtxK_3std6thread6threadNtB4_6Thread4name, symObjAddr: 0x25374, symBinAddr: 0x100222C60, symSize: 0x48 }
  - { offset: 0x10AC4D, size: 0x8, addend: 0x0, symName: __RNvMs_NtNtCsaLOjE9VYtxK_3std6thread6threadNtB4_6Thread4name, symObjAddr: 0x25374, symBinAddr: 0x100222C60, symSize: 0x48 }
  - { offset: 0x10AC62, size: 0x8, addend: 0x0, symName: __RNvMs_NtNtCsaLOjE9VYtxK_3std6thread6threadNtB4_6Thread4name, symObjAddr: 0x25374, symBinAddr: 0x100222C60, symSize: 0x48 }
  - { offset: 0x10AC78, size: 0x8, addend: 0x0, symName: __RNvMs_NtNtCsaLOjE9VYtxK_3std6thread6threadNtB4_6Thread4name, symObjAddr: 0x25374, symBinAddr: 0x100222C60, symSize: 0x48 }
  - { offset: 0x10AC8E, size: 0x8, addend: 0x0, symName: __RNvMs_NtNtCsaLOjE9VYtxK_3std6thread6threadNtB4_6Thread4name, symObjAddr: 0x25374, symBinAddr: 0x100222C60, symSize: 0x48 }
  - { offset: 0x10ACA4, size: 0x8, addend: 0x0, symName: __RNvMs_NtNtCsaLOjE9VYtxK_3std6thread6threadNtB4_6Thread4name, symObjAddr: 0x25374, symBinAddr: 0x100222C60, symSize: 0x48 }
  - { offset: 0x10AD3D, size: 0x8, addend: 0x0, symName: __RNvMs_NtNtCsaLOjE9VYtxK_3std6thread6threadNtB4_6Thread4park, symObjAddr: 0x253BC, symBinAddr: 0x100222CA8, symSize: 0x48 }
  - { offset: 0x10AE47, size: 0x8, addend: 0x0, symName: __RNvMs_NtNtCsaLOjE9VYtxK_3std6thread6threadNtB4_6Thread8from_raw, symObjAddr: 0x25404, symBinAddr: 0x100222CF0, symSize: 0x8 }
  - { offset: 0x10AE5F, size: 0x8, addend: 0x0, symName: __RNvMs_NtNtCsaLOjE9VYtxK_3std6thread6threadNtB4_6Thread8from_raw, symObjAddr: 0x25404, symBinAddr: 0x100222CF0, symSize: 0x8 }
  - { offset: 0x10AE75, size: 0x8, addend: 0x0, symName: __RNvMs_NtNtCsaLOjE9VYtxK_3std6thread6threadNtB4_6Thread8from_raw, symObjAddr: 0x25404, symBinAddr: 0x100222CF0, symSize: 0x8 }
  - { offset: 0x10AE8B, size: 0x8, addend: 0x0, symName: __RNvMs_NtNtCsaLOjE9VYtxK_3std6thread6threadNtB4_6Thread8from_raw, symObjAddr: 0x25404, symBinAddr: 0x100222CF0, symSize: 0x8 }
  - { offset: 0x10AF66, size: 0x8, addend: 0x0, symName: __RNvXNtNtNtCsaLOjE9VYtxK_3std6thread6thread18thread_name_stringNtB2_16ThreadNameStringINtNtCs6sq8b9ugfBC_4core7convert4FromNtNtCs8dnTdrJsiec_5alloc6string6StringE4from, symObjAddr: 0x3DBF8, symBinAddr: 0x10023A648, symSize: 0x128 }
  - { offset: 0x10B19C, size: 0x8, addend: 0x0, symName: __RNvXs0_NtNtCsaLOjE9VYtxK_3std6thread6threadNtB5_6ThreadNtNtCs6sq8b9ugfBC_4core3fmt5Debug3fmt, symObjAddr: 0x3F1B8, symBinAddr: 0x10023BBD8, symSize: 0xCC }
  - { offset: 0x10B2F4, size: 0x8, addend: 0x0, symName: __RNvMNtNtCsaLOjE9VYtxK_3std6thread2idNtB2_8ThreadId3new, symObjAddr: 0x17D88, symBinAddr: 0x1002165DC, symSize: 0x44 }
  - { offset: 0x10B39A, size: 0x8, addend: 0x0, symName: __RNvNvMNtNtCsaLOjE9VYtxK_3std6thread2idNtB4_8ThreadId3new9exhausted, symObjAddr: 0x3B7C0, symBinAddr: 0x10030F2F4, symSize: 0x20 }
  - { offset: 0x10B3BC, size: 0x8, addend: 0x0, symName: __RNvXs6_NtNtCsaLOjE9VYtxK_3std6thread2idNtB5_8ThreadIdNtNtCs6sq8b9ugfBC_4core3fmt5Debug3fmt, symObjAddr: 0x4492C, symBinAddr: 0x10024131C, symSize: 0x40 }
  - { offset: 0x10B412, size: 0x8, addend: 0x0, symName: __RNvNtNtCsaLOjE9VYtxK_3std6thread9functions11sleep_until, symObjAddr: 0x342B4, symBinAddr: 0x10023179C, symSize: 0x148 }
  - { offset: 0x10B50C, size: 0x8, addend: 0x0, symName: __RNvNtNtCsaLOjE9VYtxK_3std6thread9functions12park_timeout, symObjAddr: 0x343FC, symBinAddr: 0x1002318E4, symSize: 0x120 }
  - { offset: 0x10B7A6, size: 0x8, addend: 0x0, symName: __RNvNtNtCsaLOjE9VYtxK_3std6thread9functions15park_timeout_ms, symObjAddr: 0x3451C, symBinAddr: 0x100231A04, symSize: 0x2C }
  - { offset: 0x10B7C5, size: 0x8, addend: 0x0, symName: __RNvNtNtCsaLOjE9VYtxK_3std6thread9functions15park_timeout_ms, symObjAddr: 0x3451C, symBinAddr: 0x100231A04, symSize: 0x2C }
  - { offset: 0x10B7D8, size: 0x8, addend: 0x0, symName: __RNvNtNtCsaLOjE9VYtxK_3std6thread9functions21available_parallelism, symObjAddr: 0x34548, symBinAddr: 0x100231A30, symSize: 0x4C }
  - { offset: 0x10B864, size: 0x8, addend: 0x0, symName: __RNvNtNtCsaLOjE9VYtxK_3std6thread9functions4park, symObjAddr: 0x34594, symBinAddr: 0x100231A7C, symSize: 0xC8 }
  - { offset: 0x10BABD, size: 0x8, addend: 0x0, symName: __RNvNtNtCsaLOjE9VYtxK_3std6thread9functions5sleep, symObjAddr: 0x3465C, symBinAddr: 0x100231B44, symSize: 0xB0 }
  - { offset: 0x10BB49, size: 0x8, addend: 0x0, symName: __RNvNtNtCsaLOjE9VYtxK_3std6thread9functions8sleep_ms, symObjAddr: 0x3470C, symBinAddr: 0x100231BF4, symSize: 0xD4 }
  - { offset: 0x10BBE8, size: 0x8, addend: 0x0, symName: __RNvNtNtCsaLOjE9VYtxK_3std6thread9functions9yield_now, symObjAddr: 0x347E0, symBinAddr: 0x100231CC8, symSize: 0x4 }
  - { offset: 0x10BC06, size: 0x8, addend: 0x0, symName: __RNvNtNtCsaLOjE9VYtxK_3std6thread9functions9yield_now, symObjAddr: 0x347E0, symBinAddr: 0x100231CC8, symSize: 0x4 }
  - { offset: 0x10BC1E, size: 0x8, addend: 0x0, symName: __RNvXNtNtCsaLOjE9VYtxK_3std6thread9functionsNtB2_10PanicGuardNtNtNtCs6sq8b9ugfBC_4core3ops4drop4Drop4drop, symObjAddr: 0x3D3C8, symBinAddr: 0x10030F3B4, symSize: 0x30 }
  - { offset: 0x10BC68, size: 0x8, addend: 0x0, symName: __RNvMNtNtCsaLOjE9VYtxK_3std6thread6scopedNtB2_9ScopeData29decrement_num_running_threads, symObjAddr: 0x17DCC, symBinAddr: 0x100216620, symSize: 0x44 }
  - { offset: 0x10BDD7, size: 0x8, addend: 0x0, symName: __RNvMNtNtCsaLOjE9VYtxK_3std6thread6scopedNtB2_9ScopeData29increment_num_running_threads, symObjAddr: 0x17E10, symBinAddr: 0x100216664, symSize: 0x20 }
  - { offset: 0x10BDF5, size: 0x8, addend: 0x0, symName: __RNvMNtNtCsaLOjE9VYtxK_3std6thread6scopedNtB2_9ScopeData29increment_num_running_threads, symObjAddr: 0x17E10, symBinAddr: 0x100216664, symSize: 0x20 }
  - { offset: 0x10BE0A, size: 0x8, addend: 0x0, symName: __RNvMNtNtCsaLOjE9VYtxK_3std6thread6scopedNtB2_9ScopeData29increment_num_running_threads, symObjAddr: 0x17E10, symBinAddr: 0x100216664, symSize: 0x20 }
  - { offset: 0x10BE20, size: 0x8, addend: 0x0, symName: __RNvMNtNtCsaLOjE9VYtxK_3std6thread6scopedNtB2_9ScopeData29increment_num_running_threads, symObjAddr: 0x17E10, symBinAddr: 0x100216664, symSize: 0x20 }
  - { offset: 0x10BE4B, size: 0x8, addend: 0x0, symName: __RNvMNtNtCsaLOjE9VYtxK_3std6thread6scopedNtB2_9ScopeData8overflow, symObjAddr: 0x17E30, symBinAddr: 0x10030D694, symSize: 0x28 }
  - { offset: 0x10BE6C, size: 0x8, addend: 0x0, symName: __RNvXs2_NtNtCsaLOjE9VYtxK_3std6thread6scopedNtB5_5ScopeNtNtCs6sq8b9ugfBC_4core3fmt5Debug3fmt, symObjAddr: 0x414B8, symBinAddr: 0x10023DEA8, symSize: 0xB8 }
  - { offset: 0x10BF59, size: 0x8, addend: 0x0, symName: __RNvMNtNtCsaLOjE9VYtxK_3std6thread7builderNtB2_7Builder4name, symObjAddr: 0x17E58, symBinAddr: 0x100216684, symSize: 0x68 }
  - { offset: 0x10C168, size: 0x8, addend: 0x0, symName: __RNvNtNtCsaLOjE9VYtxK_3std6thread5local18panic_access_error, symObjAddr: 0x34044, symBinAddr: 0x10030E7E0, symSize: 0x30 }
  - { offset: 0x10C189, size: 0x8, addend: 0x0, symName: __RNvXs0_NtNtCsaLOjE9VYtxK_3std6thread5localNtB5_11AccessErrorNtNtCs6sq8b9ugfBC_4core3fmt7Display3fmt, symObjAddr: 0x3F1A4, symBinAddr: 0x10023BBC4, symSize: 0x14 }
  - { offset: 0x10C1AB, size: 0x8, addend: 0x0, symName: __RNvXs_NtNtCsaLOjE9VYtxK_3std6thread5localNtB4_11AccessErrorNtNtCs6sq8b9ugfBC_4core3fmt5Debug3fmt, symObjAddr: 0x477E4, symBinAddr: 0x1002441D4, symSize: 0x38 }
  - { offset: 0x10C1EF, size: 0x8, addend: 0x0, symName: __RNvMs_NtNtCsaLOjE9VYtxK_3std6thread9spawnhookNtB4_15ChildSpawnHooks3run, symObjAddr: 0x2540C, symBinAddr: 0x100222CF8, symSize: 0x268 }
  - { offset: 0x10CA7E, size: 0x8, addend: 0x0, symName: __RNvNtNtCsaLOjE9VYtxK_3std6thread9spawnhook15run_spawn_hooks, symObjAddr: 0x347E4, symBinAddr: 0x100231CCC, symSize: 0x29C }
  - { offset: 0x10D0F6, size: 0x8, addend: 0x0, symName: __RNvXNtNtCsaLOjE9VYtxK_3std6thread9spawnhookNtB2_10SpawnHooksNtNtNtCs6sq8b9ugfBC_4core3ops4drop4Drop4drop, symObjAddr: 0x3D3F8, symBinAddr: 0x100239E48, symSize: 0x104 }
  - { offset: 0x10D5C6, size: 0x8, addend: 0x0, symName: __RINvNtNtNtNtCsaLOjE9VYtxK_3std3sys12thread_local6native5eager7destroyINtNtCs6sq8b9ugfBC_4core4cell4CellINtNtB1a_6option6OptionINtNtCs8dnTdrJsiec_5alloc4sync3ArcINtNtNtNtBa_4sync6poison5mutex5MutexINtNtB25_3vec3VechEEEEEEBa_, symObjAddr: 0x12DEC, symBinAddr: 0x100211A94, symSize: 0x2C }
  - { offset: 0x10D704, size: 0x8, addend: 0x0, symName: __RINvNtNtNtNtCsaLOjE9VYtxK_3std3sys12thread_local6native5eager7destroyINtNtCs6sq8b9ugfBC_4core4cell4CellNtNtNtBa_6thread9spawnhook10SpawnHooksEEBa_, symObjAddr: 0x12E18, symBinAddr: 0x100211AC0, symSize: 0x84 }
  - { offset: 0x10D944, size: 0x8, addend: 0x0, symName: __RNvNvNtNtNtNtCsaLOjE9VYtxK_3std3sys12thread_local5guard5apple6enable9run_dtors, symObjAddr: 0x3C814, symBinAddr: 0x100239294, symSize: 0xF0 }
  - { offset: 0x10DE16, size: 0x8, addend: 0x0, symName: __RNvNtNtNtNtCsaLOjE9VYtxK_3std3sys12thread_local11destructors4list8register, symObjAddr: 0x398B0, symBinAddr: 0x1002363F0, symSize: 0xFC }
  - { offset: 0x10E0F5, size: 0x8, addend: 0x0, symName: __RNvXNvNtNtCsaLOjE9VYtxK_3std3sys12thread_local20abort_on_dtor_unwindNtB2_15DtorUnwindGuardNtNtNtCs6sq8b9ugfBC_4core3ops4drop4Drop4drop, symObjAddr: 0x3E740, symBinAddr: 0x10030F3E4, symSize: 0x30 }
  - { offset: 0x10E15E, size: 0x8, addend: 0x0, symName: __RNvMNtNtNtNtCsaLOjE9VYtxK_3std3sys4sync4once5queueNtB2_4Once4call, symObjAddr: 0x18C04, symBinAddr: 0x10030D804, symSize: 0x1F4 }
  - { offset: 0x10E411, size: 0x8, addend: 0x0, symName: __RNvMNtNtNtNtCsaLOjE9VYtxK_3std3sys4sync4once5queueNtB2_4Once4wait, symObjAddr: 0x18DF8, symBinAddr: 0x10030D9F8, symSize: 0x1CC }
  - { offset: 0x10EA47, size: 0x8, addend: 0x0, symName: __RNvXs0_NtNtNtNtCsaLOjE9VYtxK_3std3sys4sync4once5queueNtB5_11WaiterQueueNtNtNtCs6sq8b9ugfBC_4core3ops4drop4Drop4drop, symObjAddr: 0x3F468, symBinAddr: 0x10023BE88, symSize: 0xD8 }
  - { offset: 0x10EC84, size: 0x8, addend: 0x0, symName: __RNvNtNtNtNtCsaLOjE9VYtxK_3std3sys4sync4once5queue4wait, symObjAddr: 0x39EB0, symBinAddr: 0x1002369F0, symSize: 0x184 }
  - { offset: 0x10F34C, size: 0x8, addend: 0x0, symName: __RNvXs_NtNtNtNtCsaLOjE9VYtxK_3std3sys4sync5mutex7pthreadNtB4_5MutexNtNtNtCs6sq8b9ugfBC_4core3ops4drop4Drop4drop, symObjAddr: 0x48914, symBinAddr: 0x100245304, symSize: 0x58 }
  - { offset: 0x10F4A7, size: 0x8, addend: 0x0, symName: __RINvMNtNtNtCsaLOjE9VYtxK_3std3sys4sync8once_boxINtB3_7OnceBoxNtNtNtNtNtB7_3pal4unix4sync5mutex5MutexE10initializeNCNvMNtNtB5_5mutex7pthreadNtB1S_5Mutex3get0EB9_, symObjAddr: 0x2D64, symBinAddr: 0x10030CC80, symSize: 0xE4 }
  - { offset: 0x10F68E, size: 0x8, addend: 0x0, symName: __RINvMNtNtNtCsaLOjE9VYtxK_3std3sys4sync8once_boxINtB3_7OnceBoxNtNtNtNtNtB7_3pal4unix4sync7condvar7CondvarE10initializeNCNvMNtNtB5_7condvar7pthreadNtB1W_7Condvar3get0EB9_, symObjAddr: 0x2E48, symBinAddr: 0x10030CD64, symSize: 0xB4 }
  - { offset: 0x10F992, size: 0x8, addend: 0x0, symName: __RNvMNtNtNtNtCsaLOjE9VYtxK_3std3sys4sync7condvar7pthreadNtB2_7Condvar12wait_timeout, symObjAddr: 0x18FC4, symBinAddr: 0x1002172E8, symSize: 0x130 }
  - { offset: 0x10FBA3, size: 0x8, addend: 0x0, symName: __RNvMs1_NtNtNtNtCsaLOjE9VYtxK_3std3sys4sync6rwlock5queueNtB5_6RwLock12unlock_queue, symObjAddr: 0x1E82C, symBinAddr: 0x10021CB50, symSize: 0x1B4 }
  - { offset: 0x11027C, size: 0x8, addend: 0x0, symName: __RNvMs1_NtNtNtNtCsaLOjE9VYtxK_3std3sys4sync6rwlock5queueNtB5_6RwLock14downgrade_slow, symObjAddr: 0x1E9E0, symBinAddr: 0x10030DBC4, symSize: 0x108 }
  - { offset: 0x110699, size: 0x8, addend: 0x0, symName: __RNvMs1_NtNtNtNtCsaLOjE9VYtxK_3std3sys4sync6rwlock5queueNtB5_6RwLock14lock_contended, symObjAddr: 0x1EAE8, symBinAddr: 0x10030DCCC, symSize: 0x1F0 }
  - { offset: 0x110C64, size: 0x8, addend: 0x0, symName: __RNvMs1_NtNtNtNtCsaLOjE9VYtxK_3std3sys4sync6rwlock5queueNtB5_6RwLock16unlock_contended, symObjAddr: 0x1ECD8, symBinAddr: 0x10030DEBC, symSize: 0x40 }
  - { offset: 0x110D33, size: 0x8, addend: 0x0, symName: __RNvMs1_NtNtNtNtCsaLOjE9VYtxK_3std3sys4sync6rwlock5queueNtB5_6RwLock21read_unlock_contended, symObjAddr: 0x1ED18, symBinAddr: 0x10030DEFC, symSize: 0x40 }
  - { offset: 0x110D52, size: 0x8, addend: 0x0, symName: __RNvMs1_NtNtNtNtCsaLOjE9VYtxK_3std3sys4sync6rwlock5queueNtB5_6RwLock21read_unlock_contended, symObjAddr: 0x1ED18, symBinAddr: 0x10030DEFC, symSize: 0x40 }
  - { offset: 0x110D68, size: 0x8, addend: 0x0, symName: __RNvMs1_NtNtNtNtCsaLOjE9VYtxK_3std3sys4sync6rwlock5queueNtB5_6RwLock21read_unlock_contended, symObjAddr: 0x1ED18, symBinAddr: 0x10030DEFC, symSize: 0x40 }
  - { offset: 0x11102A, size: 0x8, addend: 0x0, symName: __RNvNtNtNtNtCsaLOjE9VYtxK_3std3sys4sync6rwlock5queue10write_lock, symObjAddr: 0x3A034, symBinAddr: 0x100236B74, symSize: 0x14 }
  - { offset: 0x11103E, size: 0x8, addend: 0x0, symName: __RNvNtNtNtNtCsaLOjE9VYtxK_3std3sys4sync6rwlock5queue9read_lock, symObjAddr: 0x3A048, symBinAddr: 0x100236B88, symSize: 0x20 }
  - { offset: 0x111058, size: 0x8, addend: 0x0, symName: __RNvXs0_NtNtNtNtCsaLOjE9VYtxK_3std3sys4sync6rwlock5queueNtB5_10PanicGuardNtNtNtCs6sq8b9ugfBC_4core3ops4drop4Drop4drop, symObjAddr: 0x3F540, symBinAddr: 0x10030F414, symSize: 0x30 }
  - { offset: 0x1110A2, size: 0x8, addend: 0x0, symName: __RNvMs0_NtNtNtNtCsaLOjE9VYtxK_3std3sys4sync14thread_parking6darwinNtB5_6Parker6unpark, symObjAddr: 0x1B644, symBinAddr: 0x100219968, symSize: 0x20 }
  - { offset: 0x1110BA, size: 0x8, addend: 0x0, symName: __RNvMs0_NtNtNtNtCsaLOjE9VYtxK_3std3sys4sync14thread_parking6darwinNtB5_6Parker6unpark, symObjAddr: 0x1B644, symBinAddr: 0x100219968, symSize: 0x20 }
  - { offset: 0x1110CF, size: 0x8, addend: 0x0, symName: __RNvMs0_NtNtNtNtCsaLOjE9VYtxK_3std3sys4sync14thread_parking6darwinNtB5_6Parker6unpark, symObjAddr: 0x1B644, symBinAddr: 0x100219968, symSize: 0x20 }
  - { offset: 0x1110E5, size: 0x8, addend: 0x0, symName: __RNvMs0_NtNtNtNtCsaLOjE9VYtxK_3std3sys4sync14thread_parking6darwinNtB5_6Parker6unpark, symObjAddr: 0x1B644, symBinAddr: 0x100219968, symSize: 0x20 }
  - { offset: 0x11113E, size: 0x8, addend: 0x0, symName: __RNvXs1_NtNtNtNtCsaLOjE9VYtxK_3std3sys4sync14thread_parking6darwinNtB5_6ParkerNtNtNtCs6sq8b9ugfBC_4core3ops4drop4Drop4drop, symObjAddr: 0x4024C, symBinAddr: 0x10023CC3C, symSize: 0x8 }
  - { offset: 0x1111A8, size: 0x8, addend: 0x0, symName: __RNvMNtNtNtNtNtCsaLOjE9VYtxK_3std3sys3pal4unix4sync5mutexNtB2_5Mutex4init, symObjAddr: 0x1A1DC, symBinAddr: 0x100218500, symSize: 0x168 }
  - { offset: 0x111245, size: 0x8, addend: 0x0, symName: __RNvMNtNtNtNtNtCsaLOjE9VYtxK_3std3sys3pal4unix4sync5mutexNtB2_5Mutex4lock, symObjAddr: 0x1A344, symBinAddr: 0x100218668, symSize: 0x1C }
  - { offset: 0x111259, size: 0x8, addend: 0x0, symName: __RNvMNtNtNtNtNtCsaLOjE9VYtxK_3std3sys3pal4unix4sync5mutexNtB2_5Mutex6unlock, symObjAddr: 0x1A360, symBinAddr: 0x100218684, symSize: 0x4 }
  - { offset: 0x11126D, size: 0x8, addend: 0x0, symName: __RNvMNtNtNtNtNtCsaLOjE9VYtxK_3std3sys3pal4unix4sync5mutexNtB2_5Mutex8try_lock, symObjAddr: 0x1A364, symBinAddr: 0x100218688, symSize: 0x1C }
  - { offset: 0x111295, size: 0x8, addend: 0x0, symName: __RNvXs2_NtNtNtNtNtCsaLOjE9VYtxK_3std3sys3pal4unix4sync5mutexNtB5_5MutexNtNtNtCs6sq8b9ugfBC_4core3ops4drop4Drop4drop, symObjAddr: 0x417D4, symBinAddr: 0x10023E1C4, symSize: 0x4 }
  - { offset: 0x1112BD, size: 0x8, addend: 0x0, symName: __RNvXs3_NtNtNtNtNtCsaLOjE9VYtxK_3std3sys3pal4unix4sync5mutexNtB5_9AttrGuardNtNtNtCs6sq8b9ugfBC_4core3ops4drop4Drop4drop, symObjAddr: 0x42A34, symBinAddr: 0x10023F424, symSize: 0x48 }
  - { offset: 0x1112DE, size: 0x8, addend: 0x0, symName: __RNvNvMNtNtNtNtNtCsaLOjE9VYtxK_3std3sys3pal4unix4sync5mutexNtB4_5Mutex4lock4fail, symObjAddr: 0x3B7E0, symBinAddr: 0x10030F314, symSize: 0x60 }
  - { offset: 0x1113AA, size: 0x8, addend: 0x0, symName: __RNvXs_NtNtNtNtCsaLOjE9VYtxK_3std3sys3pal4unix14stack_overflowNtB4_7HandlerNtNtNtCs6sq8b9ugfBC_4core3ops4drop4Drop4drop, symObjAddr: 0x4890C, symBinAddr: 0x1002452FC, symSize: 0x8 }
  - { offset: 0x11142C, size: 0x8, addend: 0x0, symName: __RNvNtNtNtNtNtCsaLOjE9VYtxK_3std3sys3pal4unix14stack_overflow3imp12drop_handler, symObjAddr: 0x3AFF8, symBinAddr: 0x100237B38, symSize: 0x3A0 }
  - { offset: 0x111D32, size: 0x8, addend: 0x0, symName: __RNvNtNtNtNtNtCsaLOjE9VYtxK_3std3sys3pal4unix14stack_overflow3imp12make_handler, symObjAddr: 0x3B398, symBinAddr: 0x100237ED8, symSize: 0x194 }
  - { offset: 0x111FA3, size: 0x8, addend: 0x0, symName: __RNvNtNtNtNtNtCsaLOjE9VYtxK_3std3sys3pal4unix14stack_overflow3imp14signal_handler, symObjAddr: 0x3B52C, symBinAddr: 0x10023806C, symSize: 0x294 }
  - { offset: 0x1124A2, size: 0x8, addend: 0x0, symName: __RNvXNtNtNtNtNtCsaLOjE9VYtxK_3std3sys3pal4unix14stack_overflow11thread_infoNtB2_12UnlockOnDropNtNtNtCs6sq8b9ugfBC_4core3ops4drop4Drop4drop, symObjAddr: 0x3E0C4, symBinAddr: 0x10023AB14, symSize: 0x10 }
  - { offset: 0x1124BA, size: 0x8, addend: 0x0, symName: __RNvXNtNtNtNtNtCsaLOjE9VYtxK_3std3sys3pal4unix14stack_overflow11thread_infoNtB2_12UnlockOnDropNtNtNtCs6sq8b9ugfBC_4core3ops4drop4Drop4drop, symObjAddr: 0x3E0C4, symBinAddr: 0x10023AB14, symSize: 0x10 }
  - { offset: 0x1124D0, size: 0x8, addend: 0x0, symName: __RNvXNtNtNtNtNtCsaLOjE9VYtxK_3std3sys3pal4unix14stack_overflow11thread_infoNtB2_12UnlockOnDropNtNtNtCs6sq8b9ugfBC_4core3ops4drop4Drop4drop, symObjAddr: 0x3E0C4, symBinAddr: 0x10023AB14, symSize: 0x10 }
  - { offset: 0x1124E5, size: 0x8, addend: 0x0, symName: __RNvNtNtNtNtNtCsaLOjE9VYtxK_3std3sys3pal4unix14stack_overflow11thread_info16set_current_info, symObjAddr: 0x3A318, symBinAddr: 0x100236E58, symSize: 0xCE0 }
  - { offset: 0x11485C, size: 0x8, addend: 0x0, symName: __RNvMNtNtNtNtCsaLOjE9VYtxK_3std3sys3pal4unix4timeNtB2_8Timespec12sub_timespec, symObjAddr: 0x18A0C, symBinAddr: 0x1002170F0, symSize: 0xE4 }
  - { offset: 0x114967, size: 0x8, addend: 0x0, symName: __RNvMNtNtNtNtCsaLOjE9VYtxK_3std3sys3pal4unix4timeNtB2_8Timespec3now, symObjAddr: 0x18AF0, symBinAddr: 0x1002171D4, symSize: 0x114 }
  - { offset: 0x114B9F, size: 0x8, addend: 0x0, symName: __RNvNtNtNtCsaLOjE9VYtxK_3std3sys3pal4unix14abort_internal, symObjAddr: 0x38EC0, symBinAddr: 0x10030F2E8, symSize: 0xC }
  - { offset: 0x114E7A, size: 0x8, addend: 0x0, symName: __RNvXs4_NtNtNtCsaLOjE9VYtxK_3std3sys6os_str5bytesNtB5_5SliceNtNtCs6sq8b9ugfBC_4core3fmt7Display3fmt, symObjAddr: 0x43A38, symBinAddr: 0x100240428, symSize: 0x4 }
  - { offset: 0x114E9B, size: 0x8, addend: 0x0, symName: __RNvNvMs7_NtNtNtCsaLOjE9VYtxK_3std3sys6os_str5bytesNtB7_5Slice21check_public_boundary9slow_path, symObjAddr: 0x3BBAC, symBinAddr: 0x10023866C, symSize: 0x10C }
  - { offset: 0x114FD6, size: 0x8, addend: 0x0, symName: __RNvXs1_NtNtNtCsaLOjE9VYtxK_3std3sys6os_str5bytesNtB5_3BufNtNtCs6sq8b9ugfBC_4core3fmt5Debug3fmt, symObjAddr: 0x40120, symBinAddr: 0x10023CB10, symSize: 0x28 }
  - { offset: 0x1150AA, size: 0x8, addend: 0x0, symName: __RNvXs2_NtNtNtCsaLOjE9VYtxK_3std3sys6os_str5bytesNtB5_3BufNtNtCs6sq8b9ugfBC_4core3fmt7Display3fmt, symObjAddr: 0x41720, symBinAddr: 0x10023E110, symSize: 0x10 }
  - { offset: 0x1151AC, size: 0x8, addend: 0x0, symName: __RNvNtNtNtCsaLOjE9VYtxK_3std3sys4path4unix8absolute, symObjAddr: 0x38ECC, symBinAddr: 0x100235A0C, symSize: 0x388 }
  - { offset: 0x115BD7, size: 0x8, addend: 0x0, symName: __RNvNvMs0_NtNtNtCsaLOjE9VYtxK_3std3sys6thread4unixNtB7_6Thread3new12thread_start, symObjAddr: 0x3B840, symBinAddr: 0x100238300, symSize: 0x234 }
  - { offset: 0x116374, size: 0x8, addend: 0x0, symName: __RNvMs0_NtNtNtCsaLOjE9VYtxK_3std3sys6thread4unixNtB5_6Thread3new, symObjAddr: 0x1A998, symBinAddr: 0x100218CBC, symSize: 0x1DC }
  - { offset: 0x1164BF, size: 0x8, addend: 0x0, symName: __RNvMs0_NtNtNtCsaLOjE9VYtxK_3std3sys6thread4unixNtB5_6Thread4join, symObjAddr: 0x1AB74, symBinAddr: 0x100218E98, symSize: 0x7C }
  - { offset: 0x11656D, size: 0x8, addend: 0x0, symName: __RNvXs1_NtNtNtCsaLOjE9VYtxK_3std3sys6thread4unixNtB5_6ThreadNtNtNtCs6sq8b9ugfBC_4core3ops4drop4Drop4drop, symObjAddr: 0x40148, symBinAddr: 0x10023CB38, symSize: 0x8 }
  - { offset: 0x1165AA, size: 0x8, addend: 0x0, symName: __RNCNvNtNtNtCsaLOjE9VYtxK_3std3sys16platform_version6darwin18string_version_keys_0B9_, symObjAddr: 0x1547C, symBinAddr: 0x10030D560, symSize: 0x50 }
  - { offset: 0x116705, size: 0x8, addend: 0x0, symName: __RNvXs_NtNtNtNtCsaLOjE9VYtxK_3std3sys16platform_version6darwin15core_foundationNtB4_8CFHandleNtNtNtCs6sq8b9ugfBC_4core3ops4drop4Drop4drop, symObjAddr: 0x486D0, symBinAddr: 0x1002450C0, symSize: 0x8 }
  - { offset: 0x116721, size: 0x8, addend: 0x0, symName: __RNCNvNtNtNtCsaLOjE9VYtxK_3std3sys16platform_version6darwin18version_from_plist0B9_, symObjAddr: 0x154CC, symBinAddr: 0x10030D5B0, symSize: 0x64 }
  - { offset: 0x1167C8, size: 0x8, addend: 0x0, symName: __RNvNtNtNtCsaLOjE9VYtxK_3std3sys16platform_version6darwin14lookup_version, symObjAddr: 0x372B4, symBinAddr: 0x10030E978, symSize: 0x970 }
  - { offset: 0x1174CE, size: 0x8, addend: 0x0, symName: __RNvNtNtNtCsaLOjE9VYtxK_3std3sys16platform_version6darwin16parse_os_version, symObjAddr: 0x37C24, symBinAddr: 0x100234770, symSize: 0x6C8 }
  - { offset: 0x1174ED, size: 0x8, addend: 0x0, symName: __RNvNtNtNtCsaLOjE9VYtxK_3std3sys16platform_version6darwin16parse_os_version, symObjAddr: 0x37C24, symBinAddr: 0x100234770, symSize: 0x6C8 }
  - { offset: 0x117503, size: 0x8, addend: 0x0, symName: __RNvNtNtNtCsaLOjE9VYtxK_3std3sys16platform_version6darwin16parse_os_version, symObjAddr: 0x37C24, symBinAddr: 0x100234770, symSize: 0x6C8 }
  - { offset: 0x117B22, size: 0x8, addend: 0x0, symName: ___isOSVersionAtLeast, symObjAddr: 0x4E370, symBinAddr: 0x10024AD60, symSize: 0x88 }
  - { offset: 0x117C4B, size: 0x8, addend: 0x0, symName: ___isPlatformVersionAtLeast, symObjAddr: 0x4E3F8, symBinAddr: 0x10024ADE8, symSize: 0x84 }
  - { offset: 0x117DB6, size: 0x8, addend: 0x0, symName: __RNvXs3_NtNtNtNtNtCsaLOjE9VYtxK_3std3sys7process4unix6common13cstring_arrayNtB5_12CStringArrayNtNtNtCs6sq8b9ugfBC_4core3ops4drop4Drop4drop, symObjAddr: 0x42A7C, symBinAddr: 0x10023F46C, symSize: 0x70 }
  - { offset: 0x117FE6, size: 0x8, addend: 0x0, symName: __RNvXs4_NtNtNtNtNtCsaLOjE9VYtxK_3std3sys7process4unix6common13cstring_arrayNtB5_11CStringIterNtNtNtNtCs6sq8b9ugfBC_4core4iter6traits8iterator8Iterator4next, symObjAddr: 0x43A3C, symBinAddr: 0x10024042C, symSize: 0x44 }
  - { offset: 0x118069, size: 0x8, addend: 0x0, symName: __RNvXs4_NtNtNtNtNtCsaLOjE9VYtxK_3std3sys7process4unix6common13cstring_arrayNtB5_11CStringIterNtNtNtNtCs6sq8b9ugfBC_4core4iter6traits8iterator8Iterator9size_hint, symObjAddr: 0x43A80, symBinAddr: 0x100240470, symSize: 0x1C }
  - { offset: 0x1180EB, size: 0x8, addend: 0x0, symName: __RNvXs0_NtNtNtNtNtCsaLOjE9VYtxK_3std3sys7process4unix6common13cstring_arrayNtB5_12CStringArrayNtNtCs6sq8b9ugfBC_4core3fmt5Debug3fmt, symObjAddr: 0x3F5C8, symBinAddr: 0x10023BFB8, symSize: 0xA4 }
  - { offset: 0x118215, size: 0x8, addend: 0x0, symName: __RNvXs5_NtNtNtNtNtCsaLOjE9VYtxK_3std3sys7process4unix6common13cstring_arrayNtB5_11CStringIterNtNtNtNtCs6sq8b9ugfBC_4core4iter6traits10exact_size17ExactSizeIterator3len, symObjAddr: 0x442B4, symBinAddr: 0x100240CA4, symSize: 0x10 }
  - { offset: 0x11822D, size: 0x8, addend: 0x0, symName: __RNvXs5_NtNtNtNtNtCsaLOjE9VYtxK_3std3sys7process4unix6common13cstring_arrayNtB5_11CStringIterNtNtNtNtCs6sq8b9ugfBC_4core4iter6traits10exact_size17ExactSizeIterator3len, symObjAddr: 0x442B4, symBinAddr: 0x100240CA4, symSize: 0x10 }
  - { offset: 0x1182A4, size: 0x8, addend: 0x0, symName: __RNvXs_NtNtNtNtNtCsaLOjE9VYtxK_3std3sys7process4unix6common13cstring_arrayNtB4_12CStringArrayINtNtNtCs6sq8b9ugfBC_4core3ops5index5IndexjE5index, symObjAddr: 0x4896C, symBinAddr: 0x10024535C, symSize: 0x68 }
  - { offset: 0x118414, size: 0x8, addend: 0x0, symName: __RNvMNtNtNtNtCsaLOjE9VYtxK_3std3sys7process4unix4unixNtNtB4_6common7Command5spawn, symObjAddr: 0x190F4, symBinAddr: 0x100217418, symSize: 0x920 }
  - { offset: 0x1194EF, size: 0x8, addend: 0x0, symName: __RNvMNtNtNtNtCsaLOjE9VYtxK_3std3sys7process4unix4unixNtNtB4_6common7Command7do_exec, symObjAddr: 0x19A14, symBinAddr: 0x100217D38, symSize: 0x400 }
  - { offset: 0x119DD3, size: 0x8, addend: 0x0, symName: __RNvMs_NtNtNtNtCsaLOjE9VYtxK_3std3sys7process4unix6commonNtB4_7Command11capture_env, symObjAddr: 0x291F0, symBinAddr: 0x100226950, symSize: 0xA98 }
  - { offset: 0x11C023, size: 0x8, addend: 0x0, symName: __RNvMs_NtNtNtNtCsaLOjE9VYtxK_3std3sys7process4unix6commonNtB4_7Command3arg, symObjAddr: 0x29C88, symBinAddr: 0x1002273E8, symSize: 0xE8 }
  - { offset: 0x11C3AA, size: 0x8, addend: 0x0, symName: __RNvMs_NtNtNtNtCsaLOjE9VYtxK_3std3sys7process4unix6commonNtB4_7Command3cwd, symObjAddr: 0x29D70, symBinAddr: 0x1002274D0, symSize: 0xD4 }
  - { offset: 0x11C682, size: 0x8, addend: 0x0, symName: __RNvMs_NtNtNtNtCsaLOjE9VYtxK_3std3sys7process4unix6commonNtB4_7Command3new, symObjAddr: 0x29E44, symBinAddr: 0x1002275A4, symSize: 0x278 }
  - { offset: 0x11CC1B, size: 0x8, addend: 0x0, symName: __RNvMs_NtNtNtNtCsaLOjE9VYtxK_3std3sys7process4unix6commonNtB4_7Command5stdin, symObjAddr: 0x2A0BC, symBinAddr: 0x10022781C, symSize: 0x44 }
  - { offset: 0x11CCA9, size: 0x8, addend: 0x0, symName: __RNvMs_NtNtNtNtCsaLOjE9VYtxK_3std3sys7process4unix6commonNtB4_7Command6chroot, symObjAddr: 0x2A100, symBinAddr: 0x100227860, symSize: 0xF8 }
  - { offset: 0x11CFBB, size: 0x8, addend: 0x0, symName: __RNvMs_NtNtNtNtCsaLOjE9VYtxK_3std3sys7process4unix6commonNtB4_7Command6stderr, symObjAddr: 0x2A1F8, symBinAddr: 0x100227958, symSize: 0x44 }
  - { offset: 0x11D049, size: 0x8, addend: 0x0, symName: __RNvMs_NtNtNtNtCsaLOjE9VYtxK_3std3sys7process4unix6commonNtB4_7Command6stdout, symObjAddr: 0x2A23C, symBinAddr: 0x10022799C, symSize: 0x44 }
  - { offset: 0x11D0D7, size: 0x8, addend: 0x0, symName: __RNvMs_NtNtNtNtCsaLOjE9VYtxK_3std3sys7process4unix6commonNtB4_7Command8pre_exec, symObjAddr: 0x2A280, symBinAddr: 0x1002279E0, symSize: 0x70 }
  - { offset: 0x11D1C5, size: 0x8, addend: 0x0, symName: __RNvMs_NtNtNtNtCsaLOjE9VYtxK_3std3sys7process4unix6commonNtB4_7Command8setup_io, symObjAddr: 0x2A2F0, symBinAddr: 0x100227A50, symSize: 0x2B4 }
  - { offset: 0x11D5D0, size: 0x8, addend: 0x0, symName: __RNvMs_NtNtNtNtCsaLOjE9VYtxK_3std3sys7process4unix6commonNtB4_7Command9set_arg_0, symObjAddr: 0x2A5A4, symBinAddr: 0x100227D04, symSize: 0x138 }
  - { offset: 0x11DA6C, size: 0x8, addend: 0x0, symName: __RNvMs0_NtNtNtNtCsaLOjE9VYtxK_3std3sys7process4unix6commonNtB5_5Stdio14to_child_stdio, symObjAddr: 0x1B664, symBinAddr: 0x100219988, symSize: 0x138 }
  - { offset: 0x11DBB8, size: 0x8, addend: 0x0, symName: __RNvNtNtNtNtCsaLOjE9VYtxK_3std3sys7process4unix6common11read_output, symObjAddr: 0x3A068, symBinAddr: 0x100236BA8, symSize: 0x2B0 }
  - { offset: 0x11E021, size: 0x8, addend: 0x0, symName: __RNvXsa_NtNtNtNtCsaLOjE9VYtxK_3std3sys7process4unix6commonNtB5_11CommandArgsNtNtNtNtCs6sq8b9ugfBC_4core4iter6traits8iterator8Iterator4next, symObjAddr: 0x4912C, symBinAddr: 0x100245B1C, symSize: 0x44 }
  - { offset: 0x11E0BB, size: 0x8, addend: 0x0, symName: __RNvXsa_NtNtNtNtCsaLOjE9VYtxK_3std3sys7process4unix6commonNtB5_11CommandArgsNtNtNtNtCs6sq8b9ugfBC_4core4iter6traits8iterator8Iterator9size_hint, symObjAddr: 0x49170, symBinAddr: 0x100245B60, symSize: 0x1C }
  - { offset: 0x11E0D3, size: 0x8, addend: 0x0, symName: __RNvXsa_NtNtNtNtCsaLOjE9VYtxK_3std3sys7process4unix6commonNtB5_11CommandArgsNtNtNtNtCs6sq8b9ugfBC_4core4iter6traits8iterator8Iterator9size_hint, symObjAddr: 0x49170, symBinAddr: 0x100245B60, symSize: 0x1C }
  - { offset: 0x11E155, size: 0x8, addend: 0x0, symName: __RNvXs6_NtNtNtNtCsaLOjE9VYtxK_3std3sys7process4unix6commonNtB5_7CommandNtNtCs6sq8b9ugfBC_4core3fmt5Debug3fmt, symObjAddr: 0x44ADC, symBinAddr: 0x1002414CC, symSize: 0x780 }
  - { offset: 0x11F0CB, size: 0x8, addend: 0x0, symName: __RNvXs7_NtNtNtNtCsaLOjE9VYtxK_3std3sys7process4unix6commonNtB5_8ExitCodeNtNtCs6sq8b9ugfBC_4core3fmt5Debug3fmt, symObjAddr: 0x45A58, symBinAddr: 0x100242448, symSize: 0x58 }
  - { offset: 0x11F0ED, size: 0x8, addend: 0x0, symName: __RNvXsb_NtNtNtNtCsaLOjE9VYtxK_3std3sys7process4unix6commonNtB5_11CommandArgsNtNtNtNtCs6sq8b9ugfBC_4core4iter6traits10exact_size17ExactSizeIterator3len, symObjAddr: 0x4938C, symBinAddr: 0x100245D7C, symSize: 0x10 }
  - { offset: 0x11F105, size: 0x8, addend: 0x0, symName: __RNvXsb_NtNtNtNtCsaLOjE9VYtxK_3std3sys7process4unix6commonNtB5_11CommandArgsNtNtNtNtCs6sq8b9ugfBC_4core4iter6traits10exact_size17ExactSizeIterator3len, symObjAddr: 0x4938C, symBinAddr: 0x100245D7C, symSize: 0x10 }
  - { offset: 0x11F11B, size: 0x8, addend: 0x0, symName: __RNvXsb_NtNtNtNtCsaLOjE9VYtxK_3std3sys7process4unix6commonNtB5_11CommandArgsNtNtNtNtCs6sq8b9ugfBC_4core4iter6traits10exact_size17ExactSizeIterator3len, symObjAddr: 0x4938C, symBinAddr: 0x100245D7C, symSize: 0x10 }
  - { offset: 0x11F187, size: 0x8, addend: 0x0, symName: __RNvXsc_NtNtNtNtCsaLOjE9VYtxK_3std3sys7process4unix6commonNtB5_11CommandArgsNtNtCs6sq8b9ugfBC_4core3fmt5Debug3fmt, symObjAddr: 0x496F8, symBinAddr: 0x1002460E8, symSize: 0x84 }
  - { offset: 0x11F2AF, size: 0x8, addend: 0x0, symName: __RNvXNvMNtNtNtNtCsaLOjE9VYtxK_3std3sys7process4unix4unixNtNtB7_6common7Command11posix_spawnNtB2_21PosixSpawnFileActionsNtNtNtCs6sq8b9ugfBC_4core3ops4drop4Drop4drop, symObjAddr: 0x3E270, symBinAddr: 0x10023ACC0, symSize: 0x8 }
  - { offset: 0x11F2D8, size: 0x8, addend: 0x0, symName: __RNvXs_NvMNtNtNtNtCsaLOjE9VYtxK_3std3sys7process4unix4unixNtNtB9_6common7Command11posix_spawnNtB4_14PosixSpawnattrNtNtNtCs6sq8b9ugfBC_4core3ops4drop4Drop4drop, symObjAddr: 0x489D4, symBinAddr: 0x1002453C4, symSize: 0x8 }
  - { offset: 0x11F34E, size: 0x8, addend: 0x0, symName: __RNvXNvMNtNtNtNtCsaLOjE9VYtxK_3std3sys7process4unix4unixNtNtB7_6common7Command7do_execNtB2_5ResetNtNtNtCs6sq8b9ugfBC_4core3ops4drop4Drop4drop, symObjAddr: 0x3E278, symBinAddr: 0x10023ACC8, symSize: 0x24 }
  - { offset: 0x11F3D6, size: 0x8, addend: 0x0, symName: __RNvMs_NtNtNtNtCsaLOjE9VYtxK_3std3sys7process4unix4unixNtB4_7Process4wait, symObjAddr: 0x29110, symBinAddr: 0x100226870, symSize: 0xE0 }
  - { offset: 0x11F55E, size: 0x8, addend: 0x0, symName: __RNvXs0_NtNtNtNtCsaLOjE9VYtxK_3std3sys7process4unix4unixNtB5_10ExitStatusNtNtCs6sq8b9ugfBC_4core3fmt5Debug3fmt, symObjAddr: 0x3F570, symBinAddr: 0x10023BF60, symSize: 0x58 }
  - { offset: 0x11F595, size: 0x8, addend: 0x0, symName: __RNvXs3_NtNtNtNtCsaLOjE9VYtxK_3std3sys7process4unix4unixNtB5_10ExitStatusNtNtCs6sq8b9ugfBC_4core3fmt7Display3fmt, symObjAddr: 0x428A0, symBinAddr: 0x10023F290, symSize: 0x194 }
  - { offset: 0x11F745, size: 0x8, addend: 0x0, symName: __RNvXs5_NtNtNtNtCsaLOjE9VYtxK_3std3sys7process4unix4unixNtB5_15ExitStatusErrorNtNtCs6sq8b9ugfBC_4core3fmt5Debug3fmt, symObjAddr: 0x44230, symBinAddr: 0x100240C20, symSize: 0x58 }
  - { offset: 0x11F789, size: 0x8, addend: 0x0, symName: __RNvMs_NtNtNtCsaLOjE9VYtxK_3std3sys7process3envNtB4_10CommandEnv3set, symObjAddr: 0x27BE8, symBinAddr: 0x100225348, symSize: 0x164 }
  - { offset: 0x11FCAB, size: 0x8, addend: 0x0, symName: __RNvMs_NtNtNtCsaLOjE9VYtxK_3std3sys7process3envNtB4_10CommandEnv6remove, symObjAddr: 0x27D4C, symBinAddr: 0x1002254AC, symSize: 0x398 }
  - { offset: 0x12093C, size: 0x8, addend: 0x0, symName: __RNvXNtNtNtCsaLOjE9VYtxK_3std3sys7process3envNtB2_10CommandEnvNtNtCs6sq8b9ugfBC_4core3fmt5Debug3fmt, symObjAddr: 0x3DB74, symBinAddr: 0x10023A5C4, symSize: 0x84 }
  - { offset: 0x120971, size: 0x8, addend: 0x0, symName: __RNvXs0_NtNtNtCsaLOjE9VYtxK_3std3sys7process3envNtB5_11CommandEnvsNtNtNtNtCs6sq8b9ugfBC_4core4iter6traits8iterator8Iterator4next, symObjAddr: 0x3F374, symBinAddr: 0x10023BD94, symSize: 0x50 }
  - { offset: 0x120A59, size: 0x8, addend: 0x0, symName: __RNvMNtNtNtCsaLOjE9VYtxK_3std3sys2fd4unixNtB2_8FileDesc11read_buf_at, symObjAddr: 0x17EC0, symBinAddr: 0x1002166EC, symSize: 0x70 }
  - { offset: 0x120BC0, size: 0x8, addend: 0x0, symName: __RNvMNtNtNtCsaLOjE9VYtxK_3std3sys2fd4unixNtB2_8FileDesc11read_to_end, symObjAddr: 0x17F30, symBinAddr: 0x10021675C, symSize: 0x19C }
  - { offset: 0x120F39, size: 0x8, addend: 0x0, symName: __RNvMNtNtNtCsaLOjE9VYtxK_3std3sys2fd4unixNtB2_8FileDesc11set_cloexec, symObjAddr: 0x180CC, symBinAddr: 0x1002168F8, symSize: 0x40 }
  - { offset: 0x120FEB, size: 0x8, addend: 0x0, symName: __RNvMNtNtNtCsaLOjE9VYtxK_3std3sys2fd4unixNtB2_8FileDesc13read_vectored, symObjAddr: 0x1810C, symBinAddr: 0x100216938, symSize: 0x54 }
  - { offset: 0x1210DC, size: 0x8, addend: 0x0, symName: __RNvMNtNtNtCsaLOjE9VYtxK_3std3sys2fd4unixNtB2_8FileDesc14write_vectored, symObjAddr: 0x18160, symBinAddr: 0x10021698C, symSize: 0x54 }
  - { offset: 0x1211D0, size: 0x8, addend: 0x0, symName: __RNvMNtNtNtCsaLOjE9VYtxK_3std3sys2fd4unixNtB2_8FileDesc15set_nonblocking, symObjAddr: 0x181B4, symBinAddr: 0x1002169E0, symSize: 0x88 }
  - { offset: 0x1212B9, size: 0x8, addend: 0x0, symName: __RNvMNtNtNtCsaLOjE9VYtxK_3std3sys2fd4unixNtB2_8FileDesc16read_vectored_at, symObjAddr: 0x1823C, symBinAddr: 0x100216A68, symSize: 0x110 }
  - { offset: 0x121493, size: 0x8, addend: 0x0, symName: __RNvMNtNtNtCsaLOjE9VYtxK_3std3sys2fd4unixNtB2_8FileDesc17write_vectored_at, symObjAddr: 0x1834C, symBinAddr: 0x100216B78, symSize: 0x110 }
  - { offset: 0x121660, size: 0x8, addend: 0x0, symName: __RNvMNtNtNtCsaLOjE9VYtxK_3std3sys2fd4unixNtB2_8FileDesc4read, symObjAddr: 0x1845C, symBinAddr: 0x100216C88, symSize: 0x54 }
  - { offset: 0x121751, size: 0x8, addend: 0x0, symName: __RNvMNtNtNtCsaLOjE9VYtxK_3std3sys2fd4unixNtB2_8FileDesc5write, symObjAddr: 0x184B0, symBinAddr: 0x100216CDC, symSize: 0x54 }
  - { offset: 0x121845, size: 0x8, addend: 0x0, symName: __RNvMNtNtNtCsaLOjE9VYtxK_3std3sys2fd4unixNtB2_8FileDesc7read_at, symObjAddr: 0x18504, symBinAddr: 0x100216D30, symSize: 0x54 }
  - { offset: 0x121936, size: 0x8, addend: 0x0, symName: __RNvMNtNtNtCsaLOjE9VYtxK_3std3sys2fd4unixNtB2_8FileDesc8read_buf, symObjAddr: 0x18558, symBinAddr: 0x100216D84, symSize: 0x6C }
  - { offset: 0x121A9D, size: 0x8, addend: 0x0, symName: __RNvMNtNtNtCsaLOjE9VYtxK_3std3sys2fd4unixNtB2_8FileDesc8write_at, symObjAddr: 0x185C4, symBinAddr: 0x100216DF0, symSize: 0x54 }
  - { offset: 0x121DB6, size: 0x8, addend: 0x0, symName: __RNvXs7_NtNtNtCsaLOjE9VYtxK_3std3sys2fd4unixNtB5_8FileDescNtNtCs6sq8b9ugfBC_4core3fmt5Debug3fmt, symObjAddr: 0x4596C, symBinAddr: 0x10024235C, symSize: 0x40 }
  - { offset: 0x121DDF, size: 0x8, addend: 0x0, symName: __RNvXs3_NtNtNtCsaLOjE9VYtxK_3std3sys2fd4unixNtB5_8FileDescNtNtNtNtBb_2os2fd5owned4AsFd5as_fd, symObjAddr: 0x42740, symBinAddr: 0x10023F130, symSize: 0x8 }
  - { offset: 0x121DF7, size: 0x8, addend: 0x0, symName: __RNvXs3_NtNtNtCsaLOjE9VYtxK_3std3sys2fd4unixNtB5_8FileDescNtNtNtNtBb_2os2fd5owned4AsFd5as_fd, symObjAddr: 0x42740, symBinAddr: 0x10023F130, symSize: 0x8 }
  - { offset: 0x121E0D, size: 0x8, addend: 0x0, symName: __RNvXs3_NtNtNtCsaLOjE9VYtxK_3std3sys2fd4unixNtB5_8FileDescNtNtNtNtBb_2os2fd5owned4AsFd5as_fd, symObjAddr: 0x42740, symBinAddr: 0x10023F130, symSize: 0x8 }
  - { offset: 0x121E5D, size: 0x8, addend: 0x0, symName: __RNvXs_NtNtNtCsaLOjE9VYtxK_3std3sys5stdio4unixNtB4_5StdinNtNtBa_2io4Read13read_vectored, symObjAddr: 0x47FD8, symBinAddr: 0x1002449C8, symSize: 0x54 }
  - { offset: 0x121F38, size: 0x8, addend: 0x0, symName: __RNvXs_NtNtNtCsaLOjE9VYtxK_3std3sys5stdio4unixNtB4_5StdinNtNtBa_2io4Read4read, symObjAddr: 0x4802C, symBinAddr: 0x100244A1C, symSize: 0x54 }
  - { offset: 0x122013, size: 0x8, addend: 0x0, symName: __RNvXs_NtNtNtCsaLOjE9VYtxK_3std3sys5stdio4unixNtB4_5StdinNtNtBa_2io4Read8read_buf, symObjAddr: 0x48080, symBinAddr: 0x100244A70, symSize: 0x6C }
  - { offset: 0x122185, size: 0x8, addend: 0x0, symName: __RNvXs3_NtNtNtCsaLOjE9VYtxK_3std3sys5stdio4unixNtB5_6StderrNtNtBb_2io5Write14write_vectored, symObjAddr: 0x42748, symBinAddr: 0x10023F138, symSize: 0x54 }
  - { offset: 0x122262, size: 0x8, addend: 0x0, symName: __RNvXs3_NtNtNtCsaLOjE9VYtxK_3std3sys5stdio4unixNtB5_6StderrNtNtBb_2io5Write17is_write_vectored, symObjAddr: 0x4279C, symBinAddr: 0x10023F18C, symSize: 0x8 }
  - { offset: 0x12227C, size: 0x8, addend: 0x0, symName: __RNvXs3_NtNtNtCsaLOjE9VYtxK_3std3sys5stdio4unixNtB5_6StderrNtNtBb_2io5Write5flush, symObjAddr: 0x427A4, symBinAddr: 0x10023F194, symSize: 0x8 }
  - { offset: 0x122296, size: 0x8, addend: 0x0, symName: __RNvXs3_NtNtNtCsaLOjE9VYtxK_3std3sys5stdio4unixNtB5_6StderrNtNtBb_2io5Write5write, symObjAddr: 0x427AC, symBinAddr: 0x10023F19C, symSize: 0x54 }
  - { offset: 0x122387, size: 0x8, addend: 0x0, symName: __RNvXs1_NtNtNtCsaLOjE9VYtxK_3std3sys5stdio4unixNtB5_6StdoutNtNtBb_2io5Write14write_vectored, symObjAddr: 0x40078, symBinAddr: 0x10023CA68, symSize: 0x54 }
  - { offset: 0x122464, size: 0x8, addend: 0x0, symName: __RNvXs1_NtNtNtCsaLOjE9VYtxK_3std3sys5stdio4unixNtB5_6StdoutNtNtBb_2io5Write5write, symObjAddr: 0x400CC, symBinAddr: 0x10023CABC, symSize: 0x54 }
  - { offset: 0x1225A4, size: 0x8, addend: 0x0, symName: __RNvNtNtNtNtCsaLOjE9VYtxK_3std3sys2io5error4unix17decode_error_kind, symObjAddr: 0x39D60, symBinAddr: 0x1002368A0, symSize: 0x150 }
  - { offset: 0x122733, size: 0x8, addend: 0x0, symName: __RNvMsi_NtNtNtCsaLOjE9VYtxK_3std3sys2fs4unixNtB5_4File13read_vectored, symObjAddr: 0x2D710, symBinAddr: 0x10022AE70, symSize: 0x54 }
  - { offset: 0x12283B, size: 0x8, addend: 0x0, symName: __RNvMsi_NtNtNtCsaLOjE9VYtxK_3std3sys2fs4unixNtB5_4File4read, symObjAddr: 0x2D764, symBinAddr: 0x10022AEC4, symSize: 0x54 }
  - { offset: 0x122943, size: 0x8, addend: 0x0, symName: __RNvMsi_NtNtNtCsaLOjE9VYtxK_3std3sys2fs4unixNtB5_4File6open_c, symObjAddr: 0x2D7B8, symBinAddr: 0x10022AF18, symSize: 0x1E4 }
  - { offset: 0x122A2A, size: 0x8, addend: 0x0, symName: __RNvMsi_NtNtNtCsaLOjE9VYtxK_3std3sys2fs4unixNtB5_4File8read_buf, symObjAddr: 0x2D99C, symBinAddr: 0x10022B0FC, symSize: 0x6C }
  - { offset: 0x122D81, size: 0x8, addend: 0x0, symName: __RNvMNtNtNtNtCsaLOjE9VYtxK_3std3sys2fs4unix3dirNtB2_3Dir4open, symObjAddr: 0x188A8, symBinAddr: 0x100216F8C, symSize: 0xAC }
  - { offset: 0x122E07, size: 0x8, addend: 0x0, symName: __RNvMNtNtNtNtCsaLOjE9VYtxK_3std3sys2fs4unix3dirNtB2_3Dir9open_file, symObjAddr: 0x18954, symBinAddr: 0x100217038, symSize: 0xB8 }
  - { offset: 0x122EAE, size: 0x8, addend: 0x0, symName: __RNCNvMNtNtNtNtCsaLOjE9VYtxK_3std3sys2fs4unix3dirNtB4_3Dir4open0Bc_, symObjAddr: 0x14534, symBinAddr: 0x100212FF0, symSize: 0x1F4 }
  - { offset: 0x122FB8, size: 0x8, addend: 0x0, symName: __RNCNvMNtNtNtNtCsaLOjE9VYtxK_3std3sys2fs4unix3dirNtB4_3Dir9open_file0Bc_, symObjAddr: 0x14728, symBinAddr: 0x1002131E4, symSize: 0x200 }
  - { offset: 0x1230AF, size: 0x8, addend: 0x0, symName: __RNvXs2_NtNtNtNtCsaLOjE9VYtxK_3std3sys2fs4unix3dirNtNtBd_2fs3DirNtNtNtNtBd_2os2fd3raw9FromRawFd11from_raw_fd, symObjAddr: 0x41798, symBinAddr: 0x10023E188, symSize: 0x2C }
  - { offset: 0x1230DA, size: 0x8, addend: 0x0, symName: __RNvXs2_NtNtNtNtCsaLOjE9VYtxK_3std3sys2fs4unix3dirNtNtBd_2fs3DirNtNtNtNtBd_2os2fd3raw9FromRawFd11from_raw_fd, symObjAddr: 0x41798, symBinAddr: 0x10023E188, symSize: 0x2C }
  - { offset: 0x123109, size: 0x8, addend: 0x0, symName: __RNvXs_NtNtNtNtCsaLOjE9VYtxK_3std3sys2fs4unix3dirNtB4_3DirNtNtCs6sq8b9ugfBC_4core3fmt5Debug3fmt, symObjAddr: 0x48780, symBinAddr: 0x100245170, symSize: 0x3C }
  - { offset: 0x12314E, size: 0x8, addend: 0x0, symName: __RNCNvMsi_NtNtNtCsaLOjE9VYtxK_3std3sys2fs4unixNtB7_4File4open0Bd_, symObjAddr: 0x14A68, symBinAddr: 0x100213524, symSize: 0xC }
  - { offset: 0x1231EE, size: 0x8, addend: 0x0, symName: __RNCNvMsk_NtNtNtCsaLOjE9VYtxK_3std3sys2fs4unixNtB7_10DirBuilder5mkdir0Bd_, symObjAddr: 0x14A74, symBinAddr: 0x100213530, symSize: 0x44 }
  - { offset: 0x12338C, size: 0x8, addend: 0x0, symName: __RNCNvNtNtNtCsaLOjE9VYtxK_3std3sys2fs4unix4copy0B9_, symObjAddr: 0x15530, symBinAddr: 0x100213E04, symSize: 0x64 }
  - { offset: 0x12348D, size: 0x8, addend: 0x0, symName: __RNvXNvNtNtNtCsaLOjE9VYtxK_3std3sys2fs4unix4copyNtB2_10FreeOnDropNtNtNtCs6sq8b9ugfBC_4core3ops4drop4Drop4drop, symObjAddr: 0x3E770, symBinAddr: 0x10023B190, symSize: 0x8 }
  - { offset: 0x1234A9, size: 0x8, addend: 0x0, symName: __RNCNvNtNtNtCsaLOjE9VYtxK_3std3sys2fs4unix5chown0B9_, symObjAddr: 0x15594, symBinAddr: 0x100213E68, symSize: 0x48 }
  - { offset: 0x123543, size: 0x8, addend: 0x0, symName: __RNCNvNtNtNtCsaLOjE9VYtxK_3std3sys2fs4unix6chroot0B9_, symObjAddr: 0x155DC, symBinAddr: 0x100213EB0, symSize: 0x38 }
  - { offset: 0x1235DD, size: 0x8, addend: 0x0, symName: __RNCNvNtNtNtCsaLOjE9VYtxK_3std3sys2fs4unix6lchown0B9_, symObjAddr: 0x15614, symBinAddr: 0x100213EE8, symSize: 0x48 }
  - { offset: 0x123677, size: 0x8, addend: 0x0, symName: __RNCNvNtNtNtCsaLOjE9VYtxK_3std3sys2fs4unix6mkfifo0B9_, symObjAddr: 0x1565C, symBinAddr: 0x100213F30, symSize: 0x78 }
  - { offset: 0x123961, size: 0x8, addend: 0x0, symName: __RNvNtNtNtNtCsaLOjE9VYtxK_3std3sys2fs4unix15remove_dir_impl24remove_dir_all_recursive, symObjAddr: 0x399AC, symBinAddr: 0x1002364EC, symSize: 0x3B4 }
  - { offset: 0x1241FF, size: 0x8, addend: 0x0, symName: __RNvNtNtNtCsaLOjE9VYtxK_3std3sys2fs4unix12canonicalize, symObjAddr: 0x382EC, symBinAddr: 0x100234E38, symSize: 0xA8 }
  - { offset: 0x1243EA, size: 0x8, addend: 0x0, symName: __RNvNtNtNtCsaLOjE9VYtxK_3std3sys2fs4unix13debug_path_fd, symObjAddr: 0x38394, symBinAddr: 0x100234EE0, symSize: 0x220 }
  - { offset: 0x12494B, size: 0x8, addend: 0x0, symName: __RNvNtNtNtCsaLOjE9VYtxK_3std3sys2fs4unix5chown, symObjAddr: 0x385B4, symBinAddr: 0x100235100, symSize: 0xC8 }
  - { offset: 0x124A61, size: 0x8, addend: 0x0, symName: __RNvNtNtNtCsaLOjE9VYtxK_3std3sys2fs4unix6chroot, symObjAddr: 0x3867C, symBinAddr: 0x1002351C8, symSize: 0xC0 }
  - { offset: 0x124B77, size: 0x8, addend: 0x0, symName: __RNvNtNtNtCsaLOjE9VYtxK_3std3sys2fs4unix6fchown, symObjAddr: 0x3873C, symBinAddr: 0x100235288, symSize: 0x34 }
  - { offset: 0x124C03, size: 0x8, addend: 0x0, symName: __RNvNtNtNtCsaLOjE9VYtxK_3std3sys2fs4unix6lchown, symObjAddr: 0x38770, symBinAddr: 0x1002352BC, symSize: 0xC8 }
  - { offset: 0x124D19, size: 0x8, addend: 0x0, symName: __RNvNtNtNtCsaLOjE9VYtxK_3std3sys2fs4unix6mkfifo, symObjAddr: 0x38838, symBinAddr: 0x100235384, symSize: 0xF0 }
  - { offset: 0x124E62, size: 0x8, addend: 0x0, symName: __RNvNtNtNtCsaLOjE9VYtxK_3std3sys2fs4unix8readlink, symObjAddr: 0x38928, symBinAddr: 0x100235474, symSize: 0x18C }
  - { offset: 0x1252FA, size: 0x8, addend: 0x0, symName: __RNvXNtNtNtNtCsaLOjE9VYtxK_3std3sys2fs4unix3cfmNtB2_18CachedFileMetadataNtNtBa_2io4Read11read_to_end, symObjAddr: 0x3DEA8, symBinAddr: 0x10023A8F8, symSize: 0xE0 }
  - { offset: 0x12549C, size: 0x8, addend: 0x0, symName: __RNvXNtNtNtNtCsaLOjE9VYtxK_3std3sys2fs4unix3cfmNtB2_18CachedFileMetadataNtNtBa_2io4Read13read_vectored, symObjAddr: 0x3DF88, symBinAddr: 0x10023A9D8, symSize: 0x54 }
  - { offset: 0x1255F0, size: 0x8, addend: 0x0, symName: __RNvXNtNtNtNtCsaLOjE9VYtxK_3std3sys2fs4unix3cfmNtB2_18CachedFileMetadataNtNtBa_2io4Read14read_to_string, symObjAddr: 0x3DFDC, symBinAddr: 0x10023AA2C, symSize: 0x28 }
  - { offset: 0x125622, size: 0x8, addend: 0x0, symName: __RNvXNtNtNtNtCsaLOjE9VYtxK_3std3sys2fs4unix3cfmNtB2_18CachedFileMetadataNtNtBa_2io4Read4read, symObjAddr: 0x3E004, symBinAddr: 0x10023AA54, symSize: 0x54 }
  - { offset: 0x125776, size: 0x8, addend: 0x0, symName: __RNvXNtNtNtNtCsaLOjE9VYtxK_3std3sys2fs4unix3cfmNtB2_18CachedFileMetadataNtNtBa_2io4Read8read_buf, symObjAddr: 0x3E058, symBinAddr: 0x10023AAA8, symSize: 0x6C }
  - { offset: 0x125947, size: 0x8, addend: 0x0, symName: __RNvXs_NtNtNtNtCsaLOjE9VYtxK_3std3sys2fs4unix3cfmNtB4_18CachedFileMetadataNtNtBc_2io5Write14write_vectored, symObjAddr: 0x486D8, symBinAddr: 0x1002450C8, symSize: 0x54 }
  - { offset: 0x125A71, size: 0x8, addend: 0x0, symName: __RNvXs_NtNtNtNtCsaLOjE9VYtxK_3std3sys2fs4unix3cfmNtB4_18CachedFileMetadataNtNtBc_2io5Write5write, symObjAddr: 0x4872C, symBinAddr: 0x10024511C, symSize: 0x54 }
  - { offset: 0x125BB1, size: 0x8, addend: 0x0, symName: __RNvXs9_NtNtNtCsaLOjE9VYtxK_3std3sys2fs4unixNtB5_15FilePermissionsNtNtCs6sq8b9ugfBC_4core3fmt5Debug3fmt, symObjAddr: 0x46308, symBinAddr: 0x100242CF8, symSize: 0x6C }
  - { offset: 0x125BDA, size: 0x8, addend: 0x0, symName: __RNvXsu_NtNtNtCsaLOjE9VYtxK_3std3sys2fs4unixNtB5_4FileNtNtCs6sq8b9ugfBC_4core3fmt5Debug3fmt, symObjAddr: 0x4CD5C, symBinAddr: 0x10024974C, symSize: 0x3C }
  - { offset: 0x125C3A, size: 0x8, addend: 0x0, symName: __RNvXs7_NtNtNtCsaLOjE9VYtxK_3std3sys2fs4unixNtB5_8FileTypeNtNtCs6sq8b9ugfBC_4core3fmt5Debug3fmt, symObjAddr: 0x459AC, symBinAddr: 0x10024239C, symSize: 0x6C }
  - { offset: 0x125C6A, size: 0x8, addend: 0x0, symName: __RNvXsb_NtNtNtCsaLOjE9VYtxK_3std3sys2fs4unixNtB5_7ReadDirNtNtNtNtCs6sq8b9ugfBC_4core4iter6traits8iterator8Iterator4next, symObjAddr: 0x49254, symBinAddr: 0x100245C44, symSize: 0x138 }
  - { offset: 0x125F0E, size: 0x8, addend: 0x0, symName: __RNvXsa_NtNtNtCsaLOjE9VYtxK_3std3sys2fs4unixNtB5_7ReadDirNtNtCs6sq8b9ugfBC_4core3fmt5Debug3fmt, symObjAddr: 0x49100, symBinAddr: 0x100245AF0, symSize: 0x2C }
  - { offset: 0x1260CA, size: 0x8, addend: 0x0, symName: __RNvXsc_NtNtNtCsaLOjE9VYtxK_3std3sys2fs4unixNtB5_9DirStreamNtNtNtCs6sq8b9ugfBC_4core3ops4drop4Drop4drop, symObjAddr: 0x49588, symBinAddr: 0x100245F78, symSize: 0xB4 }
  - { offset: 0x12618B, size: 0x8, addend: 0x0, symName: __RNvXsh_NtNtNtCsaLOjE9VYtxK_3std3sys2fs4unixNtB5_11OpenOptionsNtNtCs6sq8b9ugfBC_4core3fmt5Debug3fmt, symObjAddr: 0x4A9EC, symBinAddr: 0x1002473DC, symSize: 0x120 }
  - { offset: 0x1261AD, size: 0x8, addend: 0x0, symName: __RNvXsl_NtNtNtCsaLOjE9VYtxK_3std3sys2fs4unixNtB5_10DirBuilderNtNtCs6sq8b9ugfBC_4core3fmt5Debug3fmt, symObjAddr: 0x4B48C, symBinAddr: 0x100247E7C, symSize: 0x6C }
  - { offset: 0x1261CF, size: 0x8, addend: 0x0, symName: __RNvXsv_NtNtNtCsaLOjE9VYtxK_3std3sys2fs4unixNtB5_4ModeNtNtCs6sq8b9ugfBC_4core3fmt5Debug3fmt, symObjAddr: 0x4CD98, symBinAddr: 0x100249788, symSize: 0x2F0 }
  - { offset: 0x126277, size: 0x8, addend: 0x0, symName: __RNCNCNvNtNtCsaLOjE9VYtxK_3std3sys2fs6rename00B9_, symObjAddr: 0x13C74, symBinAddr: 0x100212730, symSize: 0x38 }
  - { offset: 0x126320, size: 0x8, addend: 0x0, symName: __RNCNvNtNtCsaLOjE9VYtxK_3std3sys2fs6rename0B7_, symObjAddr: 0x14F90, symBinAddr: 0x100213918, symSize: 0xBC }
  - { offset: 0x12645E, size: 0x8, addend: 0x0, symName: __RNCNCNvNtNtCsaLOjE9VYtxK_3std3sys2fs7symlink00B9_, symObjAddr: 0x13CAC, symBinAddr: 0x100212768, symSize: 0x38 }
  - { offset: 0x126507, size: 0x8, addend: 0x0, symName: __RNCNvNtNtCsaLOjE9VYtxK_3std3sys2fs7symlink0B7_, symObjAddr: 0x1504C, symBinAddr: 0x1002139D4, symSize: 0xBC }
  - { offset: 0x126645, size: 0x8, addend: 0x0, symName: __RNCNCNvNtNtCsaLOjE9VYtxK_3std3sys2fs9hard_link00B9_, symObjAddr: 0x13CE4, symBinAddr: 0x1002127A0, symSize: 0x48 }
  - { offset: 0x1266EE, size: 0x8, addend: 0x0, symName: __RNCNvNtNtCsaLOjE9VYtxK_3std3sys2fs9hard_link0B7_, symObjAddr: 0x15108, symBinAddr: 0x100213A90, symSize: 0xC8 }
  - { offset: 0x126826, size: 0x8, addend: 0x0, symName: __RNCNvNtNtCsaLOjE9VYtxK_3std3sys2fs15set_permissions0B7_, symObjAddr: 0x14DB8, symBinAddr: 0x100213740, symSize: 0x9C }
  - { offset: 0x1268F5, size: 0x8, addend: 0x0, symName: __RNCNvNtNtCsaLOjE9VYtxK_3std3sys2fs18set_times_nofollow0B7_, symObjAddr: 0x14E54, symBinAddr: 0x1002137DC, symSize: 0x13C }
  - { offset: 0x126A81, size: 0x8, addend: 0x0, symName: __RNCNvNtNtCsaLOjE9VYtxK_3std3sys2fs9set_times0B7_, symObjAddr: 0x151D0, symBinAddr: 0x100213B58, symSize: 0x13C }
  - { offset: 0x126C21, size: 0x8, addend: 0x0, symName: __RNvNtNtCsaLOjE9VYtxK_3std3sys2fs10remove_dir, symObjAddr: 0x325B8, symBinAddr: 0x10022FC2C, symSize: 0xC0 }
  - { offset: 0x126D4B, size: 0x8, addend: 0x0, symName: __RNvNtNtCsaLOjE9VYtxK_3std3sys2fs11remove_file, symObjAddr: 0x32678, symBinAddr: 0x10022FCEC, symSize: 0xC0 }
  - { offset: 0x126E75, size: 0x8, addend: 0x0, symName: __RNvNtNtCsaLOjE9VYtxK_3std3sys2fs12canonicalize, symObjAddr: 0x32738, symBinAddr: 0x10022FDAC, symSize: 0xB0 }
  - { offset: 0x126F18, size: 0x8, addend: 0x0, symName: __RNvNtNtCsaLOjE9VYtxK_3std3sys2fs14remove_dir_all, symObjAddr: 0x327E8, symBinAddr: 0x10022FE5C, symSize: 0x118 }
  - { offset: 0x1270AC, size: 0x8, addend: 0x0, symName: __RNvNtNtCsaLOjE9VYtxK_3std3sys2fs15set_permissions, symObjAddr: 0x32900, symBinAddr: 0x10022FF74, symSize: 0x114 }
  - { offset: 0x1271E6, size: 0x8, addend: 0x0, symName: __RNvNtNtCsaLOjE9VYtxK_3std3sys2fs16symlink_metadata, symObjAddr: 0x32A14, symBinAddr: 0x100230088, symSize: 0x128 }
  - { offset: 0x127373, size: 0x8, addend: 0x0, symName: __RNvNtNtCsaLOjE9VYtxK_3std3sys2fs18set_times_nofollow, symObjAddr: 0x32B3C, symBinAddr: 0x1002301B0, symSize: 0x1B4 }
  - { offset: 0x12756A, size: 0x8, addend: 0x0, symName: __RNvNtNtCsaLOjE9VYtxK_3std3sys2fs24set_permissions_nofollow, symObjAddr: 0x32CF0, symBinAddr: 0x100230364, symSize: 0x190 }
  - { offset: 0x127804, size: 0x8, addend: 0x0, symName: __RNvNtNtCsaLOjE9VYtxK_3std3sys2fs4copy, symObjAddr: 0x32E80, symBinAddr: 0x1002304F4, symSize: 0x4EC }
  - { offset: 0x1282EA, size: 0x8, addend: 0x0, symName: __RNvXs_NtNtNtCsaLOjE9VYtxK_3std3sys2fs6commonNtB4_3DirNtNtCs6sq8b9ugfBC_4core3fmt5Debug3fmt, symObjAddr: 0x47E7C, symBinAddr: 0x10024486C, symSize: 0x64 }
  - { offset: 0x128307, size: 0x8, addend: 0x0, symName: __RNvNtNtCsaLOjE9VYtxK_3std3sys2fs6exists, symObjAddr: 0x3336C, symBinAddr: 0x1002309E0, symSize: 0x1C0 }
  - { offset: 0x128506, size: 0x8, addend: 0x0, symName: __RNvNtNtCsaLOjE9VYtxK_3std3sys2fs6rename, symObjAddr: 0x3352C, symBinAddr: 0x100230BA0, symSize: 0x124 }
  - { offset: 0x1286A1, size: 0x8, addend: 0x0, symName: __RNvNtNtCsaLOjE9VYtxK_3std3sys2fs7symlink, symObjAddr: 0x33650, symBinAddr: 0x100230CC4, symSize: 0x124 }
  - { offset: 0x12883C, size: 0x8, addend: 0x0, symName: __RNvNtNtCsaLOjE9VYtxK_3std3sys2fs8metadata, symObjAddr: 0x33774, symBinAddr: 0x100230DE8, symSize: 0x128 }
  - { offset: 0x1289C9, size: 0x8, addend: 0x0, symName: __RNvNtNtCsaLOjE9VYtxK_3std3sys2fs8read_dir, symObjAddr: 0x3389C, symBinAddr: 0x100230F10, symSize: 0x180 }
  - { offset: 0x128C95, size: 0x8, addend: 0x0, symName: __RNvNtNtCsaLOjE9VYtxK_3std3sys2fs9hard_link, symObjAddr: 0x33A1C, symBinAddr: 0x100231090, symSize: 0x130 }
  - { offset: 0x128E30, size: 0x8, addend: 0x0, symName: __RNvNtNtCsaLOjE9VYtxK_3std3sys2fs9read_link, symObjAddr: 0x33B4C, symBinAddr: 0x1002311C0, symSize: 0xB0 }
  - { offset: 0x128ED3, size: 0x8, addend: 0x0, symName: __RNvNtNtCsaLOjE9VYtxK_3std3sys2fs9set_times, symObjAddr: 0x33BFC, symBinAddr: 0x100231270, symSize: 0x1B4 }
  - { offset: 0x1290D1, size: 0x8, addend: 0x0, symName: __RINvNtNtCsaLOjE9VYtxK_3std3sys9backtrace26___rust_end_short_backtraceNCINvNtB6_9panicking11begin_panicReE0zEB6_, symObjAddr: 0x8F7C, symBinAddr: 0x10020820C, symSize: 0xC }
  - { offset: 0x1290EB, size: 0x8, addend: 0x0, symName: __RINvNtNtCsaLOjE9VYtxK_3std3sys9backtrace26___rust_end_short_backtraceNCNvNtB6_5alloc8rust_oom0zEB6_, symObjAddr: 0x8F88, symBinAddr: 0x10030CF14, symSize: 0xC }
  - { offset: 0x129105, size: 0x8, addend: 0x0, symName: __RINvNtNtCsaLOjE9VYtxK_3std3sys9backtrace26___rust_end_short_backtraceNCNvNtB6_9panicking13panic_handler0zEB6_, symObjAddr: 0x8F94, symBinAddr: 0x100208218, symSize: 0xC }
  - { offset: 0x12914C, size: 0x8, addend: 0x0, symName: __RNCNCNvNtNtCsaLOjE9VYtxK_3std3sys9backtrace10__print_fmts_00B9_, symObjAddr: 0x13D2C, symBinAddr: 0x1002127E8, symSize: 0x244 }
  - { offset: 0x12937E, size: 0x8, addend: 0x0, symName: __RNCNvNtNtCsaLOjE9VYtxK_3std3sys9backtrace10__print_fmt0B7_, symObjAddr: 0x1530C, symBinAddr: 0x100213C94, symSize: 0x24 }
  - { offset: 0x1293A8, size: 0x8, addend: 0x0, symName: __RNCNvNtNtCsaLOjE9VYtxK_3std3sys9backtrace10__print_fmts_0B7_, symObjAddr: 0x15330, symBinAddr: 0x100213CB8, symSize: 0x134 }
  - { offset: 0x1294A7, size: 0x8, addend: 0x0, symName: __RNvNtNtCsaLOjE9VYtxK_3std3sys9backtrace15output_filename, symObjAddr: 0x33EC8, symBinAddr: 0x10023153C, symSize: 0xEC }
  - { offset: 0x12960F, size: 0x8, addend: 0x0, symName: __RNvNtNtCsaLOjE9VYtxK_3std3sys9backtrace4lock, symObjAddr: 0x33FB4, symBinAddr: 0x100231628, symSize: 0x70 }
  - { offset: 0x129782, size: 0x8, addend: 0x0, symName: __RNvXNvMNtNtCsaLOjE9VYtxK_3std3sys9backtraceNtB5_13BacktraceLock5printNtB2_16DisplayBacktraceNtNtCs6sq8b9ugfBC_4core3fmt7Display3fmt, symObjAddr: 0x3E0D4, symBinAddr: 0x10023AB24, symSize: 0x19C }
  - { offset: 0x129B37, size: 0x8, addend: 0x0, symName: __RINvNtNtNtCsaLOjE9VYtxK_3std3sys7helpers14small_c_string24run_with_cstr_allocatingINtNtCs6sq8b9ugfBC_4core6option6OptionNtNtNtB8_3ffi6os_str8OsStringEEB8_, symObjAddr: 0xB8B8, symBinAddr: 0x10030CF20, symSize: 0xB4 }
  - { offset: 0x129D6E, size: 0x8, addend: 0x0, symName: __RINvNtNtNtCsaLOjE9VYtxK_3std3sys7helpers14small_c_string24run_with_cstr_allocatingNtNtB8_4path7PathBufEB8_, symObjAddr: 0xB96C, symBinAddr: 0x10030CFD4, symSize: 0xBC }
  - { offset: 0x129FA5, size: 0x8, addend: 0x0, symName: __RINvNtNtNtCsaLOjE9VYtxK_3std3sys7helpers14small_c_string24run_with_cstr_allocatingNtNtNtB6_2fs4unix4FileEB8_, symObjAddr: 0xBA28, symBinAddr: 0x10030D090, symSize: 0xD0 }
  - { offset: 0x12A1DC, size: 0x8, addend: 0x0, symName: __RINvNtNtNtCsaLOjE9VYtxK_3std3sys7helpers14small_c_string24run_with_cstr_allocatingNtNtNtB6_2fs4unix8FileAttrEB8_, symObjAddr: 0xBAF8, symBinAddr: 0x10030D160, symSize: 0xC0 }
  - { offset: 0x12A413, size: 0x8, addend: 0x0, symName: __RINvNtNtNtCsaLOjE9VYtxK_3std3sys7helpers14small_c_string24run_with_cstr_allocatingNtNtNtNtB6_2fs4unix3dir3DirEB8_, symObjAddr: 0xBBB8, symBinAddr: 0x10030D220, symSize: 0xC0 }
  - { offset: 0x12A64A, size: 0x8, addend: 0x0, symName: __RINvNtNtNtCsaLOjE9VYtxK_3std3sys7helpers14small_c_string24run_with_cstr_allocatingNtNtNtNtB6_3net10connection6socket10LookupHostEB8_, symObjAddr: 0xBC78, symBinAddr: 0x10030D2E0, symSize: 0xBC }
  - { offset: 0x12A881, size: 0x8, addend: 0x0, symName: __RINvNtNtNtCsaLOjE9VYtxK_3std3sys7helpers14small_c_string24run_with_cstr_allocatingONtNtCs90KNAEDKYN5_4libc4unix3DIREB8_, symObjAddr: 0xBD34, symBinAddr: 0x10030D39C, symSize: 0xA4 }
  - { offset: 0x12AA43, size: 0x8, addend: 0x0, symName: __RINvNtNtNtCsaLOjE9VYtxK_3std3sys7helpers14small_c_string24run_with_cstr_allocatinguEB8_, symObjAddr: 0xBDD8, symBinAddr: 0x10030D440, symSize: 0xBC }
  - { offset: 0x12B087, size: 0x8, addend: 0x0, symName: __RNvXs_NtNtNtCsaLOjE9VYtxK_3std3sys7helpers4wstrNtB4_9WStrUnitsNtNtNtNtCs6sq8b9ugfBC_4core4iter6traits8iterator8Iterator4next, symObjAddr: 0x480EC, symBinAddr: 0x100244ADC, symSize: 0x18 }
  - { offset: 0x12B0EA, size: 0x8, addend: 0x0, symName: __RNCNCNvNtNtNtCsaLOjE9VYtxK_3std3sys3env4unix6setenv00Bb_, symObjAddr: 0x14140, symBinAddr: 0x100212BFC, symSize: 0xCC }
  - { offset: 0x12B181, size: 0x8, addend: 0x0, symName: __RNCNvNtNtNtCsaLOjE9VYtxK_3std3sys3env4unix6setenv0B9_, symObjAddr: 0x15804, symBinAddr: 0x1002140D8, symSize: 0x140 }
  - { offset: 0x12B282, size: 0x8, addend: 0x0, symName: __RNCNvNtNtNtCsaLOjE9VYtxK_3std3sys3env4unix6getenv0B9_, symObjAddr: 0x156D4, symBinAddr: 0x100213FA8, symSize: 0x130 }
  - { offset: 0x12B479, size: 0x8, addend: 0x0, symName: __RNCNvNtNtNtCsaLOjE9VYtxK_3std3sys3env4unix8unsetenv0B9_, symObjAddr: 0x15944, symBinAddr: 0x100214218, symSize: 0xC0 }
  - { offset: 0x12B56C, size: 0x8, addend: 0x0, symName: __RNvNtNtNtCsaLOjE9VYtxK_3std3sys3env4unix13env_read_lock, symObjAddr: 0x38AB4, symBinAddr: 0x100235600, symSize: 0x230 }
  - { offset: 0x12BCA3, size: 0x8, addend: 0x0, symName: __RNvNtNtNtCsaLOjE9VYtxK_3std3sys3env4unix6setenv, symObjAddr: 0x38CE4, symBinAddr: 0x100235830, symSize: 0x9C }
  - { offset: 0x12BD23, size: 0x8, addend: 0x0, symName: __RNvNtNtNtCsaLOjE9VYtxK_3std3sys3env4unix8unsetenv, symObjAddr: 0x38D80, symBinAddr: 0x1002358CC, symSize: 0x140 }
  - { offset: 0x12BE44, size: 0x8, addend: 0x0, symName: __RNvXs2_NtNtNtCsaLOjE9VYtxK_3std3sys3env6commonNtB5_3EnvNtNtNtNtCs6sq8b9ugfBC_4core4iter6traits8iterator8Iterator4next, symObjAddr: 0x4163C, symBinAddr: 0x10023E02C, symSize: 0x38 }
  - { offset: 0x12BEC0, size: 0x8, addend: 0x0, symName: __RNvXs2_NtNtNtCsaLOjE9VYtxK_3std3sys3env6commonNtB5_3EnvNtNtNtNtCs6sq8b9ugfBC_4core4iter6traits8iterator8Iterator9size_hint, symObjAddr: 0x41674, symBinAddr: 0x10023E064, symSize: 0x2C }
  - { offset: 0x12BF4A, size: 0x8, addend: 0x0, symName: __RNvXs_NtNtNtCsaLOjE9VYtxK_3std3sys3env6commonNtB4_3EnvNtNtCs6sq8b9ugfBC_4core3fmt5Debug3fmt, symObjAddr: 0x47EE0, symBinAddr: 0x1002448D0, symSize: 0x78 }
  - { offset: 0x12BFB5, size: 0x8, addend: 0x0, symName: __RNCNvNtNtNtCsaLOjE9VYtxK_3std3sys11personality3gcc14find_eh_action0B9_, symObjAddr: 0x15464, symBinAddr: 0x100213DEC, symSize: 0xC }
  - { offset: 0x12BFC9, size: 0x8, addend: 0x0, symName: __RNCNvNtNtNtCsaLOjE9VYtxK_3std3sys11personality3gcc14find_eh_actions_0B9_, symObjAddr: 0x15470, symBinAddr: 0x100213DF8, symSize: 0xC }
  - { offset: 0x12C015, size: 0x8, addend: 0x0, symName: _rust_eh_personality, symObjAddr: 0x4E47C, symBinAddr: 0x10024AE6C, symSize: 0x378 }
  - { offset: 0x12C486, size: 0x8, addend: 0x0, symName: __RNvNtNtNtNtCsaLOjE9VYtxK_3std3sys11personality5dwarf2eh19read_encoded_offset, symObjAddr: 0x39768, symBinAddr: 0x1002362A8, symSize: 0x148 }
  - { offset: 0x12C6B5, size: 0x8, addend: 0x0, symName: __RNCNvNtNtNtCsaLOjE9VYtxK_3std3sys5paths4unix5chdir0B9_, symObjAddr: 0x15A04, symBinAddr: 0x1002142D8, symSize: 0x28 }
  - { offset: 0x12C769, size: 0x8, addend: 0x0, symName: __RNvNtNtNtCsaLOjE9VYtxK_3std3sys5paths4unix5chdir, symObjAddr: 0x3937C, symBinAddr: 0x100235EBC, symSize: 0xDC }
  - { offset: 0x12C871, size: 0x8, addend: 0x0, symName: __RNvNvNtNtNtCsaLOjE9VYtxK_3std3sys5paths4unix11split_paths12into_pathbuf, symObjAddr: 0x3C7A4, symBinAddr: 0x100239224, symSize: 0x70 }
  - { offset: 0x12C9D3, size: 0x8, addend: 0x0, symName: __RNvXNtNtNtCsaLOjE9VYtxK_3std3sys5paths4unixNtB2_14JoinPathsErrorNtNtCs6sq8b9ugfBC_4core3fmt7Display3fmt, symObjAddr: 0x3DB30, symBinAddr: 0x10023A580, symSize: 0x44 }
  - { offset: 0x12CB2D, size: 0x8, addend: 0x0, symName: __RNvMNtNtNtNtNtCsaLOjE9VYtxK_3std3sys3net10connection6socket4unixNtB2_6Socket10take_error, symObjAddr: 0x19E14, symBinAddr: 0x100218138, symSize: 0x70 }
  - { offset: 0x12CBFB, size: 0x8, addend: 0x0, symName: __RNvMNtNtNtNtNtCsaLOjE9VYtxK_3std3sys3net10connection6socket4unixNtB2_6Socket20recv_from_with_flags, symObjAddr: 0x19E84, symBinAddr: 0x1002181A8, symSize: 0x130 }
  - { offset: 0x12CD27, size: 0x8, addend: 0x0, symName: __RNvMNtNtNtNtNtCsaLOjE9VYtxK_3std3sys3net10connection6socket4unixNtB2_6Socket3new, symObjAddr: 0x19FB4, symBinAddr: 0x1002182D8, symSize: 0xF8 }
  - { offset: 0x12CF73, size: 0x8, addend: 0x0, symName: __RNvMNtNtNtNtNtCsaLOjE9VYtxK_3std3sys3net10connection6socket4unixNtB2_6Socket8new_pair, symObjAddr: 0x1A0AC, symBinAddr: 0x1002183D0, symSize: 0x130 }
  - { offset: 0x12D34E, size: 0x8, addend: 0x0, symName: __RNvXs2_NtNtNtNtNtCsaLOjE9VYtxK_3std3sys3net10connection6socket4unixNtB5_6SocketNtNtNtNtBf_2os2fd5owned4AsFd5as_fd, symObjAddr: 0x417CC, symBinAddr: 0x10023E1BC, symSize: 0x8 }
  - { offset: 0x12D36D, size: 0x8, addend: 0x0, symName: __RNvXs2_NtNtNtNtNtCsaLOjE9VYtxK_3std3sys3net10connection6socket4unixNtB5_6SocketNtNtNtNtBf_2os2fd5owned4AsFd5as_fd, symObjAddr: 0x417CC, symBinAddr: 0x10023E1BC, symSize: 0x8 }
  - { offset: 0x12D383, size: 0x8, addend: 0x0, symName: __RNvXs2_NtNtNtNtNtCsaLOjE9VYtxK_3std3sys3net10connection6socket4unixNtB5_6SocketNtNtNtNtBf_2os2fd5owned4AsFd5as_fd, symObjAddr: 0x417CC, symBinAddr: 0x10023E1BC, symSize: 0x8 }
  - { offset: 0x12D399, size: 0x8, addend: 0x0, symName: __RNvXs2_NtNtNtNtNtCsaLOjE9VYtxK_3std3sys3net10connection6socket4unixNtB5_6SocketNtNtNtNtBf_2os2fd5owned4AsFd5as_fd, symObjAddr: 0x417CC, symBinAddr: 0x10023E1BC, symSize: 0x8 }
  - { offset: 0x12D3B5, size: 0x8, addend: 0x0, symName: __RNvXs5_NtNtNtNtNtCsaLOjE9VYtxK_3std3sys3net10connection6socket4unixNtB5_6SocketNtNtNtNtBf_2os2fd3raw9FromRawFd11from_raw_fd, symObjAddr: 0x44288, symBinAddr: 0x100240C78, symSize: 0x2C }
  - { offset: 0x12D3F0, size: 0x8, addend: 0x0, symName: __RNvXs5_NtNtNtNtNtCsaLOjE9VYtxK_3std3sys3net10connection6socket4unixNtB5_6SocketNtNtNtNtBf_2os2fd3raw9FromRawFd11from_raw_fd, symObjAddr: 0x44288, symBinAddr: 0x100240C78, symSize: 0x2C }
  - { offset: 0x12D436, size: 0x8, addend: 0x0, symName: __RNCNvNtNtNtNtCsaLOjE9VYtxK_3std3sys3net10connection6socket11lookup_host0Bb_, symObjAddr: 0x15A2C, symBinAddr: 0x100214300, symSize: 0x168 }
  - { offset: 0x12DA5C, size: 0x8, addend: 0x0, symName: __RNvMs3_NtNtNtNtCsaLOjE9VYtxK_3std3sys3net10connection6socketNtB5_9TcpStream11socket_addr, symObjAddr: 0x1FFF0, symBinAddr: 0x10021DA94, symSize: 0x148 }
  - { offset: 0x12DBF4, size: 0x8, addend: 0x0, symName: __RNvMs3_NtNtNtNtCsaLOjE9VYtxK_3std3sys3net10connection6socketNtB5_9TcpStream9peer_addr, symObjAddr: 0x20138, symBinAddr: 0x10021DBDC, symSize: 0x148 }
  - { offset: 0x12DF49, size: 0x8, addend: 0x0, symName: __RNvMsa_NtNtNtNtCsaLOjE9VYtxK_3std3sys3net10connection6socketNtB5_9UdpSocket7send_to, symObjAddr: 0x2A6DC, symBinAddr: 0x100227E3C, symSize: 0xB8 }
  - { offset: 0x12DF68, size: 0x8, addend: 0x0, symName: __RNvMsa_NtNtNtNtCsaLOjE9VYtxK_3std3sys3net10connection6socketNtB5_9UdpSocket7send_to, symObjAddr: 0x2A6DC, symBinAddr: 0x100227E3C, symSize: 0xB8 }
  - { offset: 0x12E16E, size: 0x8, addend: 0x0, symName: __RNvNvMsa_NtNtNtNtCsaLOjE9VYtxK_3std3sys3net10connection6socketNtB7_9UdpSocket4bind5inner, symObjAddr: 0x3BE04, symBinAddr: 0x1002388C4, symSize: 0x120 }
  - { offset: 0x12E378, size: 0x8, addend: 0x0, symName: __RNvNvMsa_NtNtNtNtCsaLOjE9VYtxK_3std3sys3net10connection6socketNtB7_9UdpSocket7connect5inner, symObjAddr: 0x3BF24, symBinAddr: 0x1002389E4, symSize: 0xFC }
  - { offset: 0x12E549, size: 0x8, addend: 0x0, symName: __RNvNvMs3_NtNtNtNtCsaLOjE9VYtxK_3std3sys3net10connection6socketNtB7_9TcpStream7connect5inner, symObjAddr: 0x3BA74, symBinAddr: 0x100238534, symSize: 0x138 }
  - { offset: 0x12E785, size: 0x8, addend: 0x0, symName: __RNvNvMs7_NtNtNtNtCsaLOjE9VYtxK_3std3sys3net10connection6socketNtB7_11TcpListener4bind5inner, symObjAddr: 0x3BCB8, symBinAddr: 0x100238778, symSize: 0x14C }
  - { offset: 0x12E98B, size: 0x8, addend: 0x0, symName: __RNvXs2_NtNtNtNtCsaLOjE9VYtxK_3std3sys3net10connection6socketNtB5_10LookupHostNtNtNtCs6sq8b9ugfBC_4core3ops4drop4Drop4drop, symObjAddr: 0x417C4, symBinAddr: 0x10023E1B4, symSize: 0x8 }
  - { offset: 0x12E9B4, size: 0x8, addend: 0x0, symName: __RNvXs6_NtNtNtNtCsaLOjE9VYtxK_3std3sys3net10connection6socketNtB5_9TcpStreamNtNtCs6sq8b9ugfBC_4core3fmt5Debug3fmt, symObjAddr: 0x449D0, symBinAddr: 0x1002413C0, symSize: 0x10C }
  - { offset: 0x12EA74, size: 0x8, addend: 0x0, symName: __RNvXs9_NtNtNtNtCsaLOjE9VYtxK_3std3sys3net10connection6socketNtB5_11TcpListenerNtNtCs6sq8b9ugfBC_4core3fmt5Debug3fmt, symObjAddr: 0x46374, symBinAddr: 0x100242D64, symSize: 0xBC }
  - { offset: 0x12EB1E, size: 0x8, addend: 0x0, symName: __RNvXs_NtNtNtNtCsaLOjE9VYtxK_3std3sys3net10connection6socketNtB4_10LookupHostNtNtNtNtCs6sq8b9ugfBC_4core4iter6traits8iterator8Iterator4next, symObjAddr: 0x487BC, symBinAddr: 0x1002451AC, symSize: 0x150 }
  - { offset: 0x12EC26, size: 0x8, addend: 0x0, symName: __RNvXsc_NtNtNtNtCsaLOjE9VYtxK_3std3sys3net10connection6socketNtB5_9UdpSocketNtNtCs6sq8b9ugfBC_4core3fmt5Debug3fmt, symObjAddr: 0x4963C, symBinAddr: 0x10024602C, symSize: 0xBC }
  - { offset: 0x12ED80, size: 0x8, addend: 0x0, symName: __RNvNtNtCsaLOjE9VYtxK_3std3sys5alloc16realloc_fallback, symObjAddr: 0x33DBC, symBinAddr: 0x100231430, symSize: 0xB0 }
  - { offset: 0x12EEDD, size: 0x8, addend: 0x0, symName: __RNvXs2_NtNtNtCsaLOjE9VYtxK_3std3sys4time4unixNtB5_7InstantNtNtCs6sq8b9ugfBC_4core3fmt5Debug3fmt, symObjAddr: 0x416A0, symBinAddr: 0x10023E090, symSize: 0x80 }
  - { offset: 0x12EF05, size: 0x8, addend: 0x0, symName: __RNvXs_NtNtNtCsaLOjE9VYtxK_3std3sys4time4unixNtB4_10SystemTimeNtNtCs6sq8b9ugfBC_4core3fmt5Debug3fmt, symObjAddr: 0x47F58, symBinAddr: 0x100244948, symSize: 0x80 }
  - { offset: 0x12EF7A, size: 0x8, addend: 0x0, symName: __RNvXs1_NtNtNtCsaLOjE9VYtxK_3std3sys4args6commonNtB5_4ArgsNtNtCs6sq8b9ugfBC_4core3fmt5Debug3fmt, symObjAddr: 0x40004, symBinAddr: 0x10023C9F4, symSize: 0x74 }
  - { offset: 0x12F01C, size: 0x8, addend: 0x0, symName: __RNvNtNtCsaLOjE9VYtxK_3std3sys4exit4exit, symObjAddr: 0x33DB0, symBinAddr: 0x100231424, symSize: 0xC }
  - { offset: 0x12F053, size: 0x8, addend: 0x0, symName: __RNvNtNtCsaLOjE9VYtxK_3std3sys6random19hashmap_random_keys, symObjAddr: 0x33E6C, symBinAddr: 0x1002314E0, symSize: 0x5C }
  - { offset: 0x12F0CE, size: 0x8, addend: 0x0, symName: __RNvNtNtNtCsaLOjE9VYtxK_3std3sys4pipe4unix4pipe, symObjAddr: 0x39254, symBinAddr: 0x100235D94, symSize: 0x128 }
  - { offset: 0x12F404, size: 0x8, addend: 0x0, symName: __RNvMs0_NtNtCsaLOjE9VYtxK_3std4sync4onceNtB5_4Once10wait_force, symObjAddr: 0x1A5AC, symBinAddr: 0x1002188D0, symSize: 0x1C }
  - { offset: 0x12F423, size: 0x8, addend: 0x0, symName: __RNvMs0_NtNtCsaLOjE9VYtxK_3std4sync4onceNtB5_4Once10wait_force, symObjAddr: 0x1A5AC, symBinAddr: 0x1002188D0, symSize: 0x1C }
  - { offset: 0x12F439, size: 0x8, addend: 0x0, symName: __RNvMs0_NtNtCsaLOjE9VYtxK_3std4sync4onceNtB5_4Once10wait_force, symObjAddr: 0x1A5AC, symBinAddr: 0x1002188D0, symSize: 0x1C }
  - { offset: 0x12F44E, size: 0x8, addend: 0x0, symName: __RNvMs0_NtNtCsaLOjE9VYtxK_3std4sync4onceNtB5_4Once10wait_force, symObjAddr: 0x1A5AC, symBinAddr: 0x1002188D0, symSize: 0x1C }
  - { offset: 0x12F463, size: 0x8, addend: 0x0, symName: __RNvMs0_NtNtCsaLOjE9VYtxK_3std4sync4onceNtB5_4Once4wait, symObjAddr: 0x1A5C8, symBinAddr: 0x1002188EC, symSize: 0x1C }
  - { offset: 0x12F482, size: 0x8, addend: 0x0, symName: __RNvMs0_NtNtCsaLOjE9VYtxK_3std4sync4onceNtB5_4Once4wait, symObjAddr: 0x1A5C8, symBinAddr: 0x1002188EC, symSize: 0x1C }
  - { offset: 0x12F498, size: 0x8, addend: 0x0, symName: __RNvMs0_NtNtCsaLOjE9VYtxK_3std4sync4onceNtB5_4Once4wait, symObjAddr: 0x1A5C8, symBinAddr: 0x1002188EC, symSize: 0x1C }
  - { offset: 0x12F4AD, size: 0x8, addend: 0x0, symName: __RNvMs0_NtNtCsaLOjE9VYtxK_3std4sync4onceNtB5_4Once4wait, symObjAddr: 0x1A5C8, symBinAddr: 0x1002188EC, symSize: 0x1C }
  - { offset: 0x12F505, size: 0x8, addend: 0x0, symName: __RNCINvMs0_NtNtCsaLOjE9VYtxK_3std4sync4onceNtB8_4Once15call_once_forceNCINvMNtBa_9once_lockINtB1b_8OnceLockINtNtBa_14reentrant_lock13ReentrantLockINtNtCs6sq8b9ugfBC_4core4cell7RefCellINtNtNtNtBc_2io8buffered10linewriter10LineWriterNtNtB31_5stdio9StdoutRawEEEE10initializeNCINvB1a_11get_or_initNCNvB3I_6stdout0E0zE0E0Bc_, symObjAddr: 0x133E0, symBinAddr: 0x100211ECC, symSize: 0x70 }
  - { offset: 0x12F66B, size: 0x8, addend: 0x0, symName: __RNCINvMs0_NtNtCsaLOjE9VYtxK_3std4sync4onceNtB8_4Once15call_once_forceNCINvMNtBa_9once_lockINtB1b_8OnceLockINtNtBa_14reentrant_lock13ReentrantLockINtNtCs6sq8b9ugfBC_4core4cell7RefCellINtNtNtNtBc_2io8buffered10linewriter10LineWriterNtNtB31_5stdio9StdoutRawEEEE10initializeNCINvB1a_11get_or_initNCNvB3I_7cleanup0E0zE0E0Bc_, symObjAddr: 0x13450, symBinAddr: 0x100211F3C, symSize: 0x60 }
  - { offset: 0x12F729, size: 0x8, addend: 0x0, symName: __RNCINvMs0_NtNtCsaLOjE9VYtxK_3std4sync4onceNtB8_4Once15call_once_forceNCINvMNtBa_9once_lockINtB1b_8OnceLockINtNtNtBa_6poison5mutex5MutexINtNtNtNtBc_2io8buffered9bufreader9BufReaderNtNtB2g_5stdio8StdinRawEEE10initializeNCINvB1a_11get_or_initNCNvB2T_5stdin0E0zE0E0Bc_, symObjAddr: 0x134B0, symBinAddr: 0x100211F9C, symSize: 0x6C }
  - { offset: 0x12F871, size: 0x8, addend: 0x0, symName: __RNCINvMs0_NtNtCsaLOjE9VYtxK_3std4sync4onceNtB8_4Once15call_once_forceNCNvMNtBa_9lazy_lockINtB1a_8LazyLockNtNtBc_9backtrace7CaptureNCNvNtB1H_6helper12lazy_resolve0E5force0E0Bc_, symObjAddr: 0x1351C, symBinAddr: 0x100212008, symSize: 0x194 }
  - { offset: 0x12FC0B, size: 0x8, addend: 0x0, symName: __RNCINvMs0_NtNtCsaLOjE9VYtxK_3std4sync4onceNtB8_4Once9call_onceNCNvNtBc_2rt7cleanup0E0Bc_, symObjAddr: 0x136B0, symBinAddr: 0x10021219C, symSize: 0x27C }
  - { offset: 0x130521, size: 0x8, addend: 0x0, symName: __RNvXs1_NtNtCsaLOjE9VYtxK_3std4sync4onceNtB5_4OnceNtNtCs6sq8b9ugfBC_4core3fmt5Debug3fmt, symObjAddr: 0x3FD5C, symBinAddr: 0x10023C74C, symSize: 0x38 }
  - { offset: 0x130558, size: 0x8, addend: 0x0, symName: __RNvXs3_NtNtCsaLOjE9VYtxK_3std4sync4onceNtB5_9OnceStateNtNtCs6sq8b9ugfBC_4core3fmt5Debug3fmt, symObjAddr: 0x42024, symBinAddr: 0x10023EA14, symSize: 0x6C }
  - { offset: 0x1305AF, size: 0x8, addend: 0x0, symName: __RINvMNtNtCsaLOjE9VYtxK_3std4sync9once_lockINtB3_8OnceLockINtNtB5_14reentrant_lock13ReentrantLockINtNtCs6sq8b9ugfBC_4core4cell7RefCellINtNtNtNtB7_2io8buffered10linewriter10LineWriterNtNtB2e_5stdio9StdoutRawEEEE10initializeNCINvB2_11get_or_initNCNvB2V_6stdout0E0zEB7_, symObjAddr: 0x2C48, symBinAddr: 0x10030CB64, symSize: 0x60 }
  - { offset: 0x1305DC, size: 0x8, addend: 0x0, symName: __RINvMNtNtCsaLOjE9VYtxK_3std4sync9once_lockINtB3_8OnceLockINtNtB5_14reentrant_lock13ReentrantLockINtNtCs6sq8b9ugfBC_4core4cell7RefCellINtNtNtNtB7_2io8buffered10linewriter10LineWriterNtNtB2e_5stdio9StdoutRawEEEE10initializeNCINvB2_11get_or_initNCNvB2V_6stdout0E0zEB7_, symObjAddr: 0x2C48, symBinAddr: 0x10030CB64, symSize: 0x60 }
  - { offset: 0x1305F1, size: 0x8, addend: 0x0, symName: __RINvMNtNtCsaLOjE9VYtxK_3std4sync9once_lockINtB3_8OnceLockINtNtB5_14reentrant_lock13ReentrantLockINtNtCs6sq8b9ugfBC_4core4cell7RefCellINtNtNtNtB7_2io8buffered10linewriter10LineWriterNtNtB2e_5stdio9StdoutRawEEEE10initializeNCINvB2_11get_or_initNCNvB2V_6stdout0E0zEB7_, symObjAddr: 0x2C48, symBinAddr: 0x10030CB64, symSize: 0x60 }
  - { offset: 0x130606, size: 0x8, addend: 0x0, symName: __RINvMNtNtCsaLOjE9VYtxK_3std4sync9once_lockINtB3_8OnceLockINtNtB5_14reentrant_lock13ReentrantLockINtNtCs6sq8b9ugfBC_4core4cell7RefCellINtNtNtNtB7_2io8buffered10linewriter10LineWriterNtNtB2e_5stdio9StdoutRawEEEE10initializeNCINvB2_11get_or_initNCNvB2V_6stdout0E0zEB7_, symObjAddr: 0x2C48, symBinAddr: 0x10030CB64, symSize: 0x60 }
  - { offset: 0x13061C, size: 0x8, addend: 0x0, symName: __RINvMNtNtCsaLOjE9VYtxK_3std4sync9once_lockINtB3_8OnceLockINtNtB5_14reentrant_lock13ReentrantLockINtNtCs6sq8b9ugfBC_4core4cell7RefCellINtNtNtNtB7_2io8buffered10linewriter10LineWriterNtNtB2e_5stdio9StdoutRawEEEE10initializeNCINvB2_11get_or_initNCNvB2V_7cleanup0E0zEB7_, symObjAddr: 0x2CA8, symBinAddr: 0x10030CBC4, symSize: 0x64 }
  - { offset: 0x130649, size: 0x8, addend: 0x0, symName: __RINvMNtNtCsaLOjE9VYtxK_3std4sync9once_lockINtB3_8OnceLockINtNtB5_14reentrant_lock13ReentrantLockINtNtCs6sq8b9ugfBC_4core4cell7RefCellINtNtNtNtB7_2io8buffered10linewriter10LineWriterNtNtB2e_5stdio9StdoutRawEEEE10initializeNCINvB2_11get_or_initNCNvB2V_7cleanup0E0zEB7_, symObjAddr: 0x2CA8, symBinAddr: 0x10030CBC4, symSize: 0x64 }
  - { offset: 0x13065E, size: 0x8, addend: 0x0, symName: __RINvMNtNtCsaLOjE9VYtxK_3std4sync9once_lockINtB3_8OnceLockINtNtB5_14reentrant_lock13ReentrantLockINtNtCs6sq8b9ugfBC_4core4cell7RefCellINtNtNtNtB7_2io8buffered10linewriter10LineWriterNtNtB2e_5stdio9StdoutRawEEEE10initializeNCINvB2_11get_or_initNCNvB2V_7cleanup0E0zEB7_, symObjAddr: 0x2CA8, symBinAddr: 0x10030CBC4, symSize: 0x64 }
  - { offset: 0x130673, size: 0x8, addend: 0x0, symName: __RINvMNtNtCsaLOjE9VYtxK_3std4sync9once_lockINtB3_8OnceLockINtNtB5_14reentrant_lock13ReentrantLockINtNtCs6sq8b9ugfBC_4core4cell7RefCellINtNtNtNtB7_2io8buffered10linewriter10LineWriterNtNtB2e_5stdio9StdoutRawEEEE10initializeNCINvB2_11get_or_initNCNvB2V_7cleanup0E0zEB7_, symObjAddr: 0x2CA8, symBinAddr: 0x10030CBC4, symSize: 0x64 }
  - { offset: 0x130689, size: 0x8, addend: 0x0, symName: __RINvMNtNtCsaLOjE9VYtxK_3std4sync9once_lockINtB3_8OnceLockINtNtNtB5_6poison5mutex5MutexINtNtNtNtB7_2io8buffered9bufreader9BufReaderNtNtB1t_5stdio8StdinRawEEE10initializeNCINvB2_11get_or_initNCNvB26_5stdin0E0zEB7_, symObjAddr: 0x2D0C, symBinAddr: 0x10030CC28, symSize: 0x58 }
  - { offset: 0x1306B6, size: 0x8, addend: 0x0, symName: __RINvMNtNtCsaLOjE9VYtxK_3std4sync9once_lockINtB3_8OnceLockINtNtNtB5_6poison5mutex5MutexINtNtNtNtB7_2io8buffered9bufreader9BufReaderNtNtB1t_5stdio8StdinRawEEE10initializeNCINvB2_11get_or_initNCNvB26_5stdin0E0zEB7_, symObjAddr: 0x2D0C, symBinAddr: 0x10030CC28, symSize: 0x58 }
  - { offset: 0x1306CB, size: 0x8, addend: 0x0, symName: __RINvMNtNtCsaLOjE9VYtxK_3std4sync9once_lockINtB3_8OnceLockINtNtNtB5_6poison5mutex5MutexINtNtNtNtB7_2io8buffered9bufreader9BufReaderNtNtB1t_5stdio8StdinRawEEE10initializeNCINvB2_11get_or_initNCNvB26_5stdin0E0zEB7_, symObjAddr: 0x2D0C, symBinAddr: 0x10030CC28, symSize: 0x58 }
  - { offset: 0x1306E0, size: 0x8, addend: 0x0, symName: __RINvMNtNtCsaLOjE9VYtxK_3std4sync9once_lockINtB3_8OnceLockINtNtNtB5_6poison5mutex5MutexINtNtNtNtB7_2io8buffered9bufreader9BufReaderNtNtB1t_5stdio8StdinRawEEE10initializeNCINvB2_11get_or_initNCNvB26_5stdin0E0zEB7_, symObjAddr: 0x2D0C, symBinAddr: 0x10030CC28, symSize: 0x58 }
  - { offset: 0x1308AD, size: 0x8, addend: 0x0, symName: __RNvMs5_NtNtNtCsaLOjE9VYtxK_3std4sync6poison5mutexINtB5_5MutexINtNtCs8dnTdrJsiec_5alloc3vec3VechEE4lockBb_, symObjAddr: 0x22520, symBinAddr: 0x10021FE0C, symSize: 0x78 }
  - { offset: 0x130B3D, size: 0x8, addend: 0x0, symName: __RNvMs9_NtNtNtCsaLOjE9VYtxK_3std4sync6poison6rwlockINtB5_6RwLockuE5writeBb_, symObjAddr: 0x23AEC, symBinAddr: 0x1002213D8, symSize: 0x224 }
  - { offset: 0x131286, size: 0x8, addend: 0x0, symName: __RNvMNtNtNtCsaLOjE9VYtxK_3std4sync6poison7condvarNtB2_7Condvar10notify_all, symObjAddr: 0x18760, symBinAddr: 0x100216E44, symSize: 0x28 }
  - { offset: 0x131323, size: 0x8, addend: 0x0, symName: __RNvMNtNtNtCsaLOjE9VYtxK_3std4sync6poison7condvarNtB2_7Condvar10notify_one, symObjAddr: 0x18788, symBinAddr: 0x100216E6C, symSize: 0x28 }
  - { offset: 0x1313C7, size: 0x8, addend: 0x0, symName: __RNvXs_NtNtNtCsaLOjE9VYtxK_3std4sync6poison7condvarNtB4_7CondvarNtNtCs6sq8b9ugfBC_4core3fmt5Debug3fmt, symObjAddr: 0x4814C, symBinAddr: 0x100244B3C, symSize: 0x38 }
  - { offset: 0x1315ED, size: 0x8, addend: 0x0, symName: __RNvNtNtCsaLOjE9VYtxK_3std4sync9lazy_lock14panic_poisoned, symObjAddr: 0x34024, symBinAddr: 0x10030E7C0, symSize: 0x20 }
  - { offset: 0x131651, size: 0x8, addend: 0x0, symName: __RNvMNtNtNtCsaLOjE9VYtxK_3std4sync4mpmc7contextNtB2_7Context3new, symObjAddr: 0x18618, symBinAddr: 0x10030D6BC, symSize: 0x148 }
  - { offset: 0x131A4E, size: 0x8, addend: 0x0, symName: __RNvXs_NtNtNtCsaLOjE9VYtxK_3std4sync4mpmc4zeroNtB4_9ZeroTokenNtNtCs6sq8b9ugfBC_4core3fmt5Debug3fmt, symObjAddr: 0x48104, symBinAddr: 0x100244AF4, symSize: 0x48 }
  - { offset: 0x131B21, size: 0x8, addend: 0x0, symName: __RNvMs8_NtNtNtCsaLOjE9VYtxK_3std4sync9nonpoison6rwlockINtB5_6RwLockNtNtBb_9panicking4HookE7replaceBb_, symObjAddr: 0x237BC, symBinAddr: 0x1002210A8, symSize: 0x24C }
  - { offset: 0x132215, size: 0x8, addend: 0x0, symName: __RNvXNtNtCsaLOjE9VYtxK_3std4sync9nonpoisonNtB2_10WouldBlockNtNtCs6sq8b9ugfBC_4core3fmt5Debug3fmt, symObjAddr: 0x3D3B4, symBinAddr: 0x100239E34, symSize: 0x14 }
  - { offset: 0x132237, size: 0x8, addend: 0x0, symName: __RNvXs_NtNtCsaLOjE9VYtxK_3std4sync9nonpoisonNtB4_10WouldBlockNtNtCs6sq8b9ugfBC_4core3fmt7Display3fmt, symObjAddr: 0x477D0, symBinAddr: 0x1002441C0, symSize: 0x14 }
  - { offset: 0x132260, size: 0x8, addend: 0x0, symName: __RNvMs0_NtNtCsaLOjE9VYtxK_3std4sync7barrierNtB5_7Barrier4wait, symObjAddr: 0x1A5E4, symBinAddr: 0x100218908, symSize: 0x12C }
  - { offset: 0x1325E7, size: 0x8, addend: 0x0, symName: __RNvXs1_NtNtCsaLOjE9VYtxK_3std4sync7barrierNtB5_17BarrierWaitResultNtNtCs6sq8b9ugfBC_4core3fmt5Debug3fmt, symObjAddr: 0x3FD94, symBinAddr: 0x10023C784, symSize: 0x6C }
  - { offset: 0x13261E, size: 0x8, addend: 0x0, symName: __RNvXs_NtNtCsaLOjE9VYtxK_3std4sync7barrierNtB4_7BarrierNtNtCs6sq8b9ugfBC_4core3fmt5Debug3fmt, symObjAddr: 0x47798, symBinAddr: 0x100244188, symSize: 0x38 }
  - { offset: 0x132646, size: 0x8, addend: 0x0, symName: __RNvXsn_NtNtCsaLOjE9VYtxK_3std4sync4mpscNtB5_9RecvErrorNtNtCs6sq8b9ugfBC_4core3fmt7Display3fmt, symObjAddr: 0x4B6E8, symBinAddr: 0x1002480D8, symSize: 0x14 }
  - { offset: 0x132669, size: 0x8, addend: 0x0, symName: __RNvXsp_NtNtCsaLOjE9VYtxK_3std4sync4mpscNtB5_12TryRecvErrorNtNtCs6sq8b9ugfBC_4core3fmt7Display3fmt, symObjAddr: 0x4BF1C, symBinAddr: 0x10024890C, symSize: 0x28 }
  - { offset: 0x13268C, size: 0x8, addend: 0x0, symName: __RNvXss_NtNtCsaLOjE9VYtxK_3std4sync4mpscNtB5_16RecvTimeoutErrorNtNtCs6sq8b9ugfBC_4core3fmt7Display3fmt, symObjAddr: 0x4C414, symBinAddr: 0x100248E04, symSize: 0x30 }
  - { offset: 0x1326CB, size: 0x8, addend: 0x0, symName: __RINvMs5_NtNtCsaLOjE9VYtxK_3std2io5errorNtB6_5Error3newNtNtNtCs6sq8b9ugfBC_4core3num5error15TryFromIntErrorEBa_, symObjAddr: 0x39BC, symBinAddr: 0x100202EF8, symSize: 0x78 }
  - { offset: 0x1327B0, size: 0x8, addend: 0x0, symName: __RINvMs5_NtNtCsaLOjE9VYtxK_3std2io5errorNtB6_5Error3newReEBa_, symObjAddr: 0x3A34, symBinAddr: 0x100202F70, symSize: 0x120 }
  - { offset: 0x132BC2, size: 0x8, addend: 0x0, symName: __RNvMs5_NtNtCsaLOjE9VYtxK_3std2io5errorNtB5_5Error4__new, symObjAddr: 0x224A4, symBinAddr: 0x10021FD90, symSize: 0x7C }
  - { offset: 0x132F09, size: 0x8, addend: 0x0, symName: __RNvXNtNtCsaLOjE9VYtxK_3std2io5errorNtB2_5ErrorNtNtCs6sq8b9ugfBC_4core3fmt5Debug3fmt, symObjAddr: 0x3CECC, symBinAddr: 0x10023994C, symSize: 0x4 }
  - { offset: 0x132F31, size: 0x8, addend: 0x0, symName: __RNvXs0_NtNtCsaLOjE9VYtxK_3std2io5errorNtB5_5ErrorINtNtCs6sq8b9ugfBC_4core7convert4FromNtNtNtCs8dnTdrJsiec_5alloc3ffi5c_str8NulErrorE4from, symObjAddr: 0x3ED40, symBinAddr: 0x10023B760, symSize: 0x2C }
  - { offset: 0x132F4F, size: 0x8, addend: 0x0, symName: __RNvXs0_NtNtCsaLOjE9VYtxK_3std2io5errorNtB5_5ErrorINtNtCs6sq8b9ugfBC_4core7convert4FromNtNtNtCs8dnTdrJsiec_5alloc3ffi5c_str8NulErrorE4from, symObjAddr: 0x3ED40, symBinAddr: 0x10023B760, symSize: 0x2C }
  - { offset: 0x132F64, size: 0x8, addend: 0x0, symName: __RNvXs0_NtNtCsaLOjE9VYtxK_3std2io5errorNtB5_5ErrorINtNtCs6sq8b9ugfBC_4core7convert4FromNtNtNtCs8dnTdrJsiec_5alloc3ffi5c_str8NulErrorE4from, symObjAddr: 0x3ED40, symBinAddr: 0x10023B760, symSize: 0x2C }
  - { offset: 0x133032, size: 0x8, addend: 0x0, symName: __RNvXs3_NtNtCsaLOjE9VYtxK_3std2io5errorNtB5_9ErrorKindNtNtCs6sq8b9ugfBC_4core3fmt7Display3fmt, symObjAddr: 0x419E4, symBinAddr: 0x10023E3D4, symSize: 0x28 }
  - { offset: 0x13307F, size: 0x8, addend: 0x0, symName: __RNvXs6_NtNtCsaLOjE9VYtxK_3std2io5errorNtNtB5_14repr_bitpacked4ReprNtNtCs6sq8b9ugfBC_4core3fmt5Debug3fmt, symObjAddr: 0x443E0, symBinAddr: 0x100240DD0, symSize: 0x28C }
  - { offset: 0x133343, size: 0x8, addend: 0x0, symName: __RNvXs7_NtNtCsaLOjE9VYtxK_3std2io5errorNtB5_5ErrorNtNtCs6sq8b9ugfBC_4core3fmt7Display3fmt, symObjAddr: 0x455BC, symBinAddr: 0x100241FAC, symSize: 0x1B0 }
  - { offset: 0x1335F0, size: 0x8, addend: 0x0, symName: __RNvXs8_NtNtCsaLOjE9VYtxK_3std2io5errorNtB5_5ErrorNtNtCs6sq8b9ugfBC_4core5error5Error5cause, symObjAddr: 0x45B9C, symBinAddr: 0x10024258C, symSize: 0x40 }
  - { offset: 0x13360F, size: 0x8, addend: 0x0, symName: __RNvXs8_NtNtCsaLOjE9VYtxK_3std2io5errorNtB5_5ErrorNtNtCs6sq8b9ugfBC_4core5error5Error5cause, symObjAddr: 0x45B9C, symBinAddr: 0x10024258C, symSize: 0x40 }
  - { offset: 0x133638, size: 0x8, addend: 0x0, symName: __RNvXs8_NtNtCsaLOjE9VYtxK_3std2io5errorNtB5_5ErrorNtNtCs6sq8b9ugfBC_4core5error5Error6source, symObjAddr: 0x45BDC, symBinAddr: 0x1002425CC, symSize: 0x40 }
  - { offset: 0x133657, size: 0x8, addend: 0x0, symName: __RNvXs8_NtNtCsaLOjE9VYtxK_3std2io5errorNtB5_5ErrorNtNtCs6sq8b9ugfBC_4core5error5Error6source, symObjAddr: 0x45BDC, symBinAddr: 0x1002425CC, symSize: 0x40 }
  - { offset: 0x133687, size: 0x8, addend: 0x0, symName: __RNvXse_NtNtCsaLOjE9VYtxK_3std2io5errorNtB5_9ErrorKindNtNtCs6sq8b9ugfBC_4core3fmt5Debug3fmt, symObjAddr: 0x49D54, symBinAddr: 0x100246744, symSize: 0x28 }
  - { offset: 0x1336E3, size: 0x8, addend: 0x0, symName: __RNvXs_NvMs_NtNtNtCsaLOjE9VYtxK_3std2io8buffered9bufwriterINtB9_9BufWriterpE9flush_bufNtB4_8BufGuardNtNtNtCs6sq8b9ugfBC_4core3ops4drop4Drop4drop, symObjAddr: 0x489DC, symBinAddr: 0x1002453CC, symSize: 0x5C }
  - { offset: 0x133858, size: 0x8, addend: 0x0, symName: __RNvMNvMs_NtNtNtCsaLOjE9VYtxK_3std2io8buffered9bufwriterINtB7_9BufWriterpE9flush_bufNtB2_8BufGuard9remaining, symObjAddr: 0x1A380, symBinAddr: 0x1002186A4, symSize: 0x38 }
  - { offset: 0x133973, size: 0x8, addend: 0x0, symName: __RNvMs_NtNtNtCsaLOjE9VYtxK_3std2io8buffered9bufwriterINtB4_9BufWriterNtNtB8_5stdio9StdoutRawE10write_coldBa_, symObjAddr: 0x27894, symBinAddr: 0x10030E548, symSize: 0xFC }
  - { offset: 0x133BC4, size: 0x8, addend: 0x0, symName: __RNvMs_NtNtNtCsaLOjE9VYtxK_3std2io8buffered9bufwriterINtB4_9BufWriterNtNtB8_5stdio9StdoutRawE14write_all_coldBa_, symObjAddr: 0x27990, symBinAddr: 0x10030E644, symSize: 0x90 }
  - { offset: 0x133D1C, size: 0x8, addend: 0x0, symName: __RNvMs_NtNtNtCsaLOjE9VYtxK_3std2io8buffered9bufwriterINtB4_9BufWriterNtNtB8_5stdio9StdoutRawE9flush_bufBa_, symObjAddr: 0x27A20, symBinAddr: 0x100225180, symSize: 0x160 }
  - { offset: 0x133FFC, size: 0x8, addend: 0x0, symName: __RNvXs2_NtNtNtCsaLOjE9VYtxK_3std2io8buffered9bufwriterNtB5_14WriterPanickedNtNtCs6sq8b9ugfBC_4core3fmt7Display3fmt, symObjAddr: 0x4159C, symBinAddr: 0x10023DF8C, symSize: 0x14 }
  - { offset: 0x13401E, size: 0x8, addend: 0x0, symName: __RNvXs3_NtNtNtCsaLOjE9VYtxK_3std2io8buffered9bufwriterNtB5_14WriterPanickedNtNtCs6sq8b9ugfBC_4core3fmt5Debug3fmt, symObjAddr: 0x42518, symBinAddr: 0x10023EF08, symSize: 0x98 }
  - { offset: 0x13413F, size: 0x8, addend: 0x0, symName: __RNvMNtNtNtNtCsaLOjE9VYtxK_3std2io8buffered9bufreader6bufferNtB2_6Buffer9backshift, symObjAddr: 0x187B0, symBinAddr: 0x100216E94, symSize: 0x6C }
  - { offset: 0x13438F, size: 0x8, addend: 0x0, symName: __RNvXs3_NtNtNtCsaLOjE9VYtxK_3std2io8buffered9bufreaderINtB5_9BufReaderNtNtB9_5stdio8StdinRawENtB9_4Read11read_to_endBb_, symObjAddr: 0x42090, symBinAddr: 0x10023EA80, symSize: 0x170 }
  - { offset: 0x1346DA, size: 0x8, addend: 0x0, symName: __RNvXs3_NtNtNtCsaLOjE9VYtxK_3std2io8buffered9bufreaderINtB5_9BufReaderNtNtB9_5stdio8StdinRawENtB9_4Read4readBb_, symObjAddr: 0x42200, symBinAddr: 0x10023EBF0, symSize: 0x198 }
  - { offset: 0x134A1B, size: 0x8, addend: 0x0, symName: __RNvXs3_NtNtNtCsaLOjE9VYtxK_3std2io8buffered9bufreaderINtB5_9BufReaderNtNtB9_5stdio8StdinRawENtB9_4Read8read_bufBb_, symObjAddr: 0x42398, symBinAddr: 0x10023ED88, symSize: 0x180 }
  - { offset: 0x1350B3, size: 0x8, addend: 0x0, symName: __RNvXs_NtNtNtCsaLOjE9VYtxK_3std2io8buffered14linewritershimINtB4_14LineWriterShimNtNtB8_5stdio9StdoutRawENtB8_5Write14write_vectoredBa_, symObjAddr: 0x4781C, symBinAddr: 0x10024420C, symSize: 0x480 }
  - { offset: 0x135A7C, size: 0x8, addend: 0x0, symName: __RNvXNtNtCsaLOjE9VYtxK_3std2io5stdioNtB2_8StdinRawNtB4_4Read10read_exact, symObjAddr: 0x3CED0, symBinAddr: 0x100239950, symSize: 0x110 }
  - { offset: 0x135C1A, size: 0x8, addend: 0x0, symName: __RNvXNtNtCsaLOjE9VYtxK_3std2io5stdioNtB2_8StdinRawNtB4_4Read11read_to_end, symObjAddr: 0x3CFE0, symBinAddr: 0x100239A60, symSize: 0x6C }
  - { offset: 0x135CBF, size: 0x8, addend: 0x0, symName: __RNvXNtNtCsaLOjE9VYtxK_3std2io5stdioNtB2_8StdinRawNtB4_4Read13read_vectored, symObjAddr: 0x3D04C, symBinAddr: 0x100239ACC, symSize: 0x70 }
  - { offset: 0x135DC6, size: 0x8, addend: 0x0, symName: __RNvXNtNtCsaLOjE9VYtxK_3std2io5stdioNtB2_8StdinRawNtB4_4Read14read_buf_exact, symObjAddr: 0x3D0BC, symBinAddr: 0x100239B3C, symSize: 0xFC }
  - { offset: 0x13600F, size: 0x8, addend: 0x0, symName: __RNvXNtNtCsaLOjE9VYtxK_3std2io5stdioNtB2_8StdinRawNtB4_4Read14read_to_string, symObjAddr: 0x3D1B8, symBinAddr: 0x100239C38, symSize: 0x100 }
  - { offset: 0x1362D1, size: 0x8, addend: 0x0, symName: __RNvXNtNtCsaLOjE9VYtxK_3std2io5stdioNtB2_8StdinRawNtB4_4Read4read, symObjAddr: 0x3D2B8, symBinAddr: 0x100239D38, symSize: 0x70 }
  - { offset: 0x1363D8, size: 0x8, addend: 0x0, symName: __RNvXNtNtCsaLOjE9VYtxK_3std2io5stdioNtB2_8StdinRawNtB4_4Read8read_buf, symObjAddr: 0x3D328, symBinAddr: 0x100239DA8, symSize: 0x8C }
  - { offset: 0x1365DA, size: 0x8, addend: 0x0, symName: __RNvMs1_NtNtCsaLOjE9VYtxK_3std2io5stdioNtB5_5Stdin4lock, symObjAddr: 0x1E604, symBinAddr: 0x10021C928, symSize: 0x68 }
  - { offset: 0x13673D, size: 0x8, addend: 0x0, symName: __RNvMs1_NtNtCsaLOjE9VYtxK_3std2io5stdioNtB5_5Stdin5lines, symObjAddr: 0x1E66C, symBinAddr: 0x10021C990, symSize: 0x68 }
  - { offset: 0x1368A8, size: 0x8, addend: 0x0, symName: __RNvMs1_NtNtCsaLOjE9VYtxK_3std2io5stdioNtB5_5Stdin9read_line, symObjAddr: 0x1E6D4, symBinAddr: 0x10021C9F8, symSize: 0x158 }
  - { offset: 0x136DB0, size: 0x8, addend: 0x0, symName: __RNvXs7_NtNtCsaLOjE9VYtxK_3std2io5stdioNtB5_9StdinLockNtB7_7BufRead10read_until, symObjAddr: 0x4576C, symBinAddr: 0x10024215C, symSize: 0xC }
  - { offset: 0x136DCF, size: 0x8, addend: 0x0, symName: __RNvXs7_NtNtCsaLOjE9VYtxK_3std2io5stdioNtB5_9StdinLockNtB7_7BufRead10read_until, symObjAddr: 0x4576C, symBinAddr: 0x10024215C, symSize: 0xC }
  - { offset: 0x136E0F, size: 0x8, addend: 0x0, symName: __RNvXs7_NtNtCsaLOjE9VYtxK_3std2io5stdioNtB5_9StdinLockNtB7_7BufRead7consume, symObjAddr: 0x45778, symBinAddr: 0x100242168, symSize: 0x1C }
  - { offset: 0x136E2E, size: 0x8, addend: 0x0, symName: __RNvXs7_NtNtCsaLOjE9VYtxK_3std2io5stdioNtB5_9StdinLockNtB7_7BufRead7consume, symObjAddr: 0x45778, symBinAddr: 0x100242168, symSize: 0x1C }
  - { offset: 0x136E9B, size: 0x8, addend: 0x0, symName: __RNvXs7_NtNtCsaLOjE9VYtxK_3std2io5stdioNtB5_9StdinLockNtB7_7BufRead8fill_buf, symObjAddr: 0x45794, symBinAddr: 0x100242184, symSize: 0xB4 }
  - { offset: 0x137070, size: 0x8, addend: 0x0, symName: __RNvXs7_NtNtCsaLOjE9VYtxK_3std2io5stdioNtB5_9StdinLockNtB7_7BufRead9read_line, symObjAddr: 0x45848, symBinAddr: 0x100242238, symSize: 0xC0 }
  - { offset: 0x1372CF, size: 0x8, addend: 0x0, symName: __RNvMs9_NtNtCsaLOjE9VYtxK_3std2io5stdioNtB5_6Stdout4lock, symObjAddr: 0x23A08, symBinAddr: 0x1002212F4, symSize: 0xE4 }
  - { offset: 0x1375B3, size: 0x8, addend: 0x0, symName: __RNvXs_NtNtCsaLOjE9VYtxK_3std2io5stdioNtB4_9StdoutRawNtB6_5Write14write_vectored, symObjAddr: 0x47164, symBinAddr: 0x100243B54, symSize: 0x14C }
  - { offset: 0x13775E, size: 0x8, addend: 0x0, symName: __RNvXs_NtNtCsaLOjE9VYtxK_3std2io5stdioNtB4_9StdoutRawNtB6_5Write18write_all_vectored, symObjAddr: 0x472B0, symBinAddr: 0x100243CA0, symSize: 0x1EC }
  - { offset: 0x137A67, size: 0x8, addend: 0x0, symName: __RNvXs_NtNtCsaLOjE9VYtxK_3std2io5stdioNtB4_9StdoutRawNtB6_5Write5write, symObjAddr: 0x4749C, symBinAddr: 0x100243E8C, symSize: 0x80 }
  - { offset: 0x137B50, size: 0x8, addend: 0x0, symName: __RNvXs_NtNtCsaLOjE9VYtxK_3std2io5stdioNtB4_9StdoutRawNtB6_5Write9write_all, symObjAddr: 0x4751C, symBinAddr: 0x100243F0C, symSize: 0x104 }
  - { offset: 0x137CE1, size: 0x8, addend: 0x0, symName: __RNvXs_NtNtCsaLOjE9VYtxK_3std2io5stdioNtB4_9StdoutRawNtB6_5Write9write_fmt, symObjAddr: 0x47620, symBinAddr: 0x100244010, symSize: 0xC0 }
  - { offset: 0x137E28, size: 0x8, addend: 0x0, symName: __RNvNtNtCsaLOjE9VYtxK_3std2io5stdio18set_output_capture, symObjAddr: 0x31E04, symBinAddr: 0x10022F478, symSize: 0x104 }
  - { offset: 0x1380EB, size: 0x8, addend: 0x0, symName: __RNvNtNtCsaLOjE9VYtxK_3std2io5stdio22try_set_output_capture, symObjAddr: 0x31F08, symBinAddr: 0x10022F57C, symSize: 0xEC }
  - { offset: 0x1383A4, size: 0x8, addend: 0x0, symName: __RNvXsn_NtNtCsaLOjE9VYtxK_3std2io5stdioNtB5_6StderrNtB7_5Write14write_vectored, symObjAddr: 0x4B530, symBinAddr: 0x100247F20, symSize: 0xA4 }
  - { offset: 0x1385BB, size: 0x8, addend: 0x0, symName: __RNvXsn_NtNtCsaLOjE9VYtxK_3std2io5stdioNtB5_6StderrNtB7_5Write18write_all_vectored, symObjAddr: 0x4B5D4, symBinAddr: 0x100247FC4, symSize: 0x24 }
  - { offset: 0x1385D6, size: 0x8, addend: 0x0, symName: __RNvXsn_NtNtCsaLOjE9VYtxK_3std2io5stdioNtB5_6StderrNtB7_5Write5flush, symObjAddr: 0x4B5F8, symBinAddr: 0x100247FE8, symSize: 0x84 }
  - { offset: 0x13884F, size: 0x8, addend: 0x0, symName: __RNvXsn_NtNtCsaLOjE9VYtxK_3std2io5stdioNtB5_6StderrNtB7_5Write5write, symObjAddr: 0x4B67C, symBinAddr: 0x10024806C, symSize: 0x24 }
  - { offset: 0x13886A, size: 0x8, addend: 0x0, symName: __RNvXsn_NtNtCsaLOjE9VYtxK_3std2io5stdioNtB5_6StderrNtB7_5Write9write_all, symObjAddr: 0x4B6A0, symBinAddr: 0x100248090, symSize: 0x24 }
  - { offset: 0x138885, size: 0x8, addend: 0x0, symName: __RNvXsn_NtNtCsaLOjE9VYtxK_3std2io5stdioNtB5_6StderrNtB7_5Write9write_fmt, symObjAddr: 0x4B6C4, symBinAddr: 0x1002480B4, symSize: 0x24 }
  - { offset: 0x13889A, size: 0x8, addend: 0x0, symName: __RNvNtNtCsaLOjE9VYtxK_3std2io5stdio23attempt_print_to_stderr, symObjAddr: 0x31FF4, symBinAddr: 0x10022F668, symSize: 0x60 }
  - { offset: 0x138922, size: 0x8, addend: 0x0, symName: __RNvNtNtCsaLOjE9VYtxK_3std2io5stdio31print_to_buffer_if_capture_used, symObjAddr: 0x32054, symBinAddr: 0x10022F6C8, symSize: 0x210 }
  - { offset: 0x138ED1, size: 0x8, addend: 0x0, symName: __RNvNtNtCsaLOjE9VYtxK_3std2io5stdio5stdin, symObjAddr: 0x32264, symBinAddr: 0x10022F8D8, symSize: 0x38 }
  - { offset: 0x138F0C, size: 0x8, addend: 0x0, symName: __RNvNtNtCsaLOjE9VYtxK_3std2io5stdio5stdin, symObjAddr: 0x32264, symBinAddr: 0x10022F8D8, symSize: 0x38 }
  - { offset: 0x138F22, size: 0x8, addend: 0x0, symName: __RNvNtNtCsaLOjE9VYtxK_3std2io5stdio5stdin, symObjAddr: 0x32264, symBinAddr: 0x10022F8D8, symSize: 0x38 }
  - { offset: 0x138F37, size: 0x8, addend: 0x0, symName: __RNvNtNtCsaLOjE9VYtxK_3std2io5stdio5stdin, symObjAddr: 0x32264, symBinAddr: 0x10022F8D8, symSize: 0x38 }
  - { offset: 0x138F4D, size: 0x8, addend: 0x0, symName: __RNvNtNtCsaLOjE9VYtxK_3std2io5stdio5stdin, symObjAddr: 0x32264, symBinAddr: 0x10022F8D8, symSize: 0x38 }
  - { offset: 0x138F63, size: 0x8, addend: 0x0, symName: __RNvNtNtCsaLOjE9VYtxK_3std2io5stdio5stdin, symObjAddr: 0x32264, symBinAddr: 0x10022F8D8, symSize: 0x38 }
  - { offset: 0x138F78, size: 0x8, addend: 0x0, symName: __RNvNtNtCsaLOjE9VYtxK_3std2io5stdio5stdin, symObjAddr: 0x32264, symBinAddr: 0x10022F8D8, symSize: 0x38 }
  - { offset: 0x138FC2, size: 0x8, addend: 0x0, symName: __RNvXsd_NtNtCsaLOjE9VYtxK_3std2io5stdioNtB5_6StdoutNtB7_5Write14write_vectored, symObjAddr: 0x49A5C, symBinAddr: 0x10024644C, symSize: 0x24 }
  - { offset: 0x138FDD, size: 0x8, addend: 0x0, symName: __RNvXsd_NtNtCsaLOjE9VYtxK_3std2io5stdioNtB5_6StdoutNtB7_5Write18write_all_vectored, symObjAddr: 0x49A80, symBinAddr: 0x100246470, symSize: 0x9C }
  - { offset: 0x1391F4, size: 0x8, addend: 0x0, symName: __RNvXsd_NtNtCsaLOjE9VYtxK_3std2io5stdioNtB5_6StdoutNtB7_5Write5flush, symObjAddr: 0x49B1C, symBinAddr: 0x10024650C, symSize: 0x24 }
  - { offset: 0x13920F, size: 0x8, addend: 0x0, symName: __RNvXsd_NtNtCsaLOjE9VYtxK_3std2io5stdioNtB5_6StdoutNtB7_5Write5write, symObjAddr: 0x49B40, symBinAddr: 0x100246530, symSize: 0xA4 }
  - { offset: 0x139426, size: 0x8, addend: 0x0, symName: __RNvXsd_NtNtCsaLOjE9VYtxK_3std2io5stdioNtB5_6StdoutNtB7_5Write9write_all, symObjAddr: 0x49BE4, symBinAddr: 0x1002465D4, symSize: 0x9C }
  - { offset: 0x13963D, size: 0x8, addend: 0x0, symName: __RNvXsd_NtNtCsaLOjE9VYtxK_3std2io5stdioNtB5_6StdoutNtB7_5Write9write_fmt, symObjAddr: 0x49C80, symBinAddr: 0x100246670, symSize: 0x24 }
  - { offset: 0x139652, size: 0x8, addend: 0x0, symName: __RNvNtNtCsaLOjE9VYtxK_3std2io5stdio6__print, symObjAddr: 0x3229C, symBinAddr: 0x10022F910, symSize: 0xD8 }
  - { offset: 0x139747, size: 0x8, addend: 0x0, symName: __RNvNtNtCsaLOjE9VYtxK_3std2io5stdio6stdout, symObjAddr: 0x32374, symBinAddr: 0x10022F9E8, symSize: 0x38 }
  - { offset: 0x13977B, size: 0x8, addend: 0x0, symName: __RNvNtNtCsaLOjE9VYtxK_3std2io5stdio6stdout, symObjAddr: 0x32374, symBinAddr: 0x10022F9E8, symSize: 0x38 }
  - { offset: 0x139791, size: 0x8, addend: 0x0, symName: __RNvNtNtCsaLOjE9VYtxK_3std2io5stdio6stdout, symObjAddr: 0x32374, symBinAddr: 0x10022F9E8, symSize: 0x38 }
  - { offset: 0x1397A6, size: 0x8, addend: 0x0, symName: __RNvNtNtCsaLOjE9VYtxK_3std2io5stdio6stdout, symObjAddr: 0x32374, symBinAddr: 0x10022F9E8, symSize: 0x38 }
  - { offset: 0x1397BC, size: 0x8, addend: 0x0, symName: __RNvNtNtCsaLOjE9VYtxK_3std2io5stdio6stdout, symObjAddr: 0x32374, symBinAddr: 0x10022F9E8, symSize: 0x38 }
  - { offset: 0x1397D2, size: 0x8, addend: 0x0, symName: __RNvNtNtCsaLOjE9VYtxK_3std2io5stdio6stdout, symObjAddr: 0x32374, symBinAddr: 0x10022F9E8, symSize: 0x38 }
  - { offset: 0x1397E7, size: 0x8, addend: 0x0, symName: __RNvNtNtCsaLOjE9VYtxK_3std2io5stdio6stdout, symObjAddr: 0x32374, symBinAddr: 0x10022F9E8, symSize: 0x38 }
  - { offset: 0x13980F, size: 0x8, addend: 0x0, symName: __RNvNtNtCsaLOjE9VYtxK_3std2io5stdio7__eprint, symObjAddr: 0x323AC, symBinAddr: 0x10022FA20, symSize: 0xC0 }
  - { offset: 0x1398DC, size: 0x8, addend: 0x0, symName: __RNvXsr_NtNtCsaLOjE9VYtxK_3std2io5stdioNtB5_10StderrLockNtB7_5Write14write_vectored, symObjAddr: 0x4C028, symBinAddr: 0x100248A18, symSize: 0x188 }
  - { offset: 0x139C4B, size: 0x8, addend: 0x0, symName: __RNvXsr_NtNtCsaLOjE9VYtxK_3std2io5stdioNtB5_10StderrLockNtB7_5Write18write_all_vectored, symObjAddr: 0x4C1B0, symBinAddr: 0x100248BA0, symSize: 0x90 }
  - { offset: 0x139EA0, size: 0x8, addend: 0x0, symName: __RNvXsr_NtNtCsaLOjE9VYtxK_3std2io5stdioNtB5_10StderrLockNtB7_5Write5flush, symObjAddr: 0x4C240, symBinAddr: 0x100248C30, symSize: 0x28 }
  - { offset: 0x139EB8, size: 0x8, addend: 0x0, symName: __RNvXsr_NtNtCsaLOjE9VYtxK_3std2io5stdioNtB5_10StderrLockNtB7_5Write5flush, symObjAddr: 0x4C240, symBinAddr: 0x100248C30, symSize: 0x28 }
  - { offset: 0x139F1E, size: 0x8, addend: 0x0, symName: __RNvXsr_NtNtCsaLOjE9VYtxK_3std2io5stdioNtB5_10StderrLockNtB7_5Write5write, symObjAddr: 0x4C268, symBinAddr: 0x100248C58, symSize: 0xBC }
  - { offset: 0x13A1C4, size: 0x8, addend: 0x0, symName: __RNvXsr_NtNtCsaLOjE9VYtxK_3std2io5stdioNtB5_10StderrLockNtB7_5Write9write_all, symObjAddr: 0x4C324, symBinAddr: 0x100248D14, symSize: 0x58 }
  - { offset: 0x13A3A7, size: 0x8, addend: 0x0, symName: __RNvXs0_NtNtCsaLOjE9VYtxK_3std2io5stdioNtB5_9StderrRawNtB7_5Write14write_vectored, symObjAddr: 0x3ED6C, symBinAddr: 0x10023B78C, symSize: 0x14C }
  - { offset: 0x13A552, size: 0x8, addend: 0x0, symName: __RNvXs0_NtNtCsaLOjE9VYtxK_3std2io5stdioNtB5_9StderrRawNtB7_5Write18write_all_vectored, symObjAddr: 0x3EEB8, symBinAddr: 0x10023B8D8, symSize: 0x4C }
  - { offset: 0x13A5EA, size: 0x8, addend: 0x0, symName: __RNvXs0_NtNtCsaLOjE9VYtxK_3std2io5stdioNtB5_9StderrRawNtB7_5Write5flush, symObjAddr: 0x3EF04, symBinAddr: 0x10023B924, symSize: 0x8 }
  - { offset: 0x13A604, size: 0x8, addend: 0x0, symName: __RNvXs0_NtNtCsaLOjE9VYtxK_3std2io5stdioNtB5_9StderrRawNtB7_5Write5write, symObjAddr: 0x3EF0C, symBinAddr: 0x10023B92C, symSize: 0x80 }
  - { offset: 0x13A6ED, size: 0x8, addend: 0x0, symName: __RNvXs0_NtNtCsaLOjE9VYtxK_3std2io5stdioNtB5_9StderrRawNtB7_5Write9write_all, symObjAddr: 0x3EF8C, symBinAddr: 0x10023B9AC, symSize: 0x104 }
  - { offset: 0x13A87E, size: 0x8, addend: 0x0, symName: __RNvXs0_NtNtCsaLOjE9VYtxK_3std2io5stdioNtB5_9StderrRawNtB7_5Write9write_fmt, symObjAddr: 0x3F090, symBinAddr: 0x10023BAB0, symSize: 0xC0 }
  - { offset: 0x13A9CE, size: 0x8, addend: 0x0, symName: __RNvXs2_NtNtCsaLOjE9VYtxK_3std2io5stdioNtB5_5StdinNtNtCs6sq8b9ugfBC_4core3fmt5Debug3fmt, symObjAddr: 0x413D4, symBinAddr: 0x10023DDC4, symSize: 0x38 }
  - { offset: 0x13A9F0, size: 0x8, addend: 0x0, symName: __RNvXs3_NtNtCsaLOjE9VYtxK_3std2io5stdioNtB5_5StdinNtB7_4Read10read_exact, symObjAddr: 0x41A0C, symBinAddr: 0x10023E3FC, symSize: 0xE8 }
  - { offset: 0x13AC89, size: 0x8, addend: 0x0, symName: __RNvXs3_NtNtCsaLOjE9VYtxK_3std2io5stdioNtB5_5StdinNtB7_4Read11read_to_end, symObjAddr: 0x41AF4, symBinAddr: 0x10023E4E4, symSize: 0xD8 }
  - { offset: 0x13AF66, size: 0x8, addend: 0x0, symName: __RNvXs3_NtNtCsaLOjE9VYtxK_3std2io5stdioNtB5_5StdinNtB7_4Read13read_vectored, symObjAddr: 0x41BCC, symBinAddr: 0x10023E5BC, symSize: 0xF0 }
  - { offset: 0x13B1FF, size: 0x8, addend: 0x0, symName: __RNvXs3_NtNtCsaLOjE9VYtxK_3std2io5stdioNtB5_5StdinNtB7_4Read14read_buf_exact, symObjAddr: 0x41CBC, symBinAddr: 0x10023E6AC, symSize: 0xD8 }
  - { offset: 0x13B498, size: 0x8, addend: 0x0, symName: __RNvXs3_NtNtCsaLOjE9VYtxK_3std2io5stdioNtB5_5StdinNtB7_4Read14read_to_string, symObjAddr: 0x41D94, symBinAddr: 0x10023E784, symSize: 0xE8 }
  - { offset: 0x13B731, size: 0x8, addend: 0x0, symName: __RNvXs3_NtNtCsaLOjE9VYtxK_3std2io5stdioNtB5_5StdinNtB7_4Read4read, symObjAddr: 0x41E7C, symBinAddr: 0x10023E86C, symSize: 0xE0 }
  - { offset: 0x13BA0E, size: 0x8, addend: 0x0, symName: __RNvXs3_NtNtCsaLOjE9VYtxK_3std2io5stdioNtB5_5StdinNtB7_4Read8read_buf, symObjAddr: 0x41F5C, symBinAddr: 0x10023E94C, symSize: 0xC8 }
  - { offset: 0x13BD1C, size: 0x8, addend: 0x0, symName: __RNvXs5_NtNtCsaLOjE9VYtxK_3std2io5stdioNtB5_9StdinLockNtB7_4Read10read_exact, symObjAddr: 0x43B18, symBinAddr: 0x100240508, symSize: 0x13C }
  - { offset: 0x13BF09, size: 0x8, addend: 0x0, symName: __RNvXs5_NtNtCsaLOjE9VYtxK_3std2io5stdioNtB5_9StdinLockNtB7_4Read11read_to_end, symObjAddr: 0x43C54, symBinAddr: 0x100240644, symSize: 0xC }
  - { offset: 0x13BF21, size: 0x8, addend: 0x0, symName: __RNvXs5_NtNtCsaLOjE9VYtxK_3std2io5stdioNtB5_9StdinLockNtB7_4Read11read_to_end, symObjAddr: 0x43C54, symBinAddr: 0x100240644, symSize: 0xC }
  - { offset: 0x13BF4B, size: 0x8, addend: 0x0, symName: __RNvXs5_NtNtCsaLOjE9VYtxK_3std2io5stdioNtB5_9StdinLockNtB7_4Read13read_vectored, symObjAddr: 0x43C60, symBinAddr: 0x100240650, symSize: 0x28C }
  - { offset: 0x13C3FB, size: 0x8, addend: 0x0, symName: __RNvXs5_NtNtCsaLOjE9VYtxK_3std2io5stdioNtB5_9StdinLockNtB7_4Read14read_buf_exact, symObjAddr: 0x43EEC, symBinAddr: 0x1002408DC, symSize: 0x128 }
  - { offset: 0x13C6AB, size: 0x8, addend: 0x0, symName: __RNvXs5_NtNtCsaLOjE9VYtxK_3std2io5stdioNtB5_9StdinLockNtB7_4Read14read_to_string, symObjAddr: 0x44014, symBinAddr: 0x100240A04, symSize: 0x1C8 }
  - { offset: 0x13CD0C, size: 0x8, addend: 0x0, symName: __RNvXs5_NtNtCsaLOjE9VYtxK_3std2io5stdioNtB5_9StdinLockNtB7_4Read4read, symObjAddr: 0x441DC, symBinAddr: 0x100240BCC, symSize: 0xC }
  - { offset: 0x13CD24, size: 0x8, addend: 0x0, symName: __RNvXs5_NtNtCsaLOjE9VYtxK_3std2io5stdioNtB5_9StdinLockNtB7_4Read4read, symObjAddr: 0x441DC, symBinAddr: 0x100240BCC, symSize: 0xC }
  - { offset: 0x13CD4E, size: 0x8, addend: 0x0, symName: __RNvXs5_NtNtCsaLOjE9VYtxK_3std2io5stdioNtB5_9StdinLockNtB7_4Read8read_buf, symObjAddr: 0x441E8, symBinAddr: 0x100240BD8, symSize: 0xC }
  - { offset: 0x13CD66, size: 0x8, addend: 0x0, symName: __RNvXs5_NtNtCsaLOjE9VYtxK_3std2io5stdioNtB5_9StdinLockNtB7_4Read8read_buf, symObjAddr: 0x441E8, symBinAddr: 0x100240BD8, symSize: 0xC }
  - { offset: 0x13CD97, size: 0x8, addend: 0x0, symName: __RNvXs4_NtNtCsaLOjE9VYtxK_3std2io5stdioRNtB5_5StdinNtB7_4Read10read_exact, symObjAddr: 0x43210, symBinAddr: 0x10023FC00, symSize: 0xEC }
  - { offset: 0x13D030, size: 0x8, addend: 0x0, symName: __RNvXs4_NtNtCsaLOjE9VYtxK_3std2io5stdioRNtB5_5StdinNtB7_4Read11read_to_end, symObjAddr: 0x432FC, symBinAddr: 0x10023FCEC, symSize: 0xDC }
  - { offset: 0x13D30D, size: 0x8, addend: 0x0, symName: __RNvXs4_NtNtCsaLOjE9VYtxK_3std2io5stdioRNtB5_5StdinNtB7_4Read13read_vectored, symObjAddr: 0x433D8, symBinAddr: 0x10023FDC8, symSize: 0xF4 }
  - { offset: 0x13D5A6, size: 0x8, addend: 0x0, symName: __RNvXs4_NtNtCsaLOjE9VYtxK_3std2io5stdioRNtB5_5StdinNtB7_4Read14read_buf_exact, symObjAddr: 0x434CC, symBinAddr: 0x10023FEBC, symSize: 0xDC }
  - { offset: 0x13D83F, size: 0x8, addend: 0x0, symName: __RNvXs4_NtNtCsaLOjE9VYtxK_3std2io5stdioRNtB5_5StdinNtB7_4Read14read_to_string, symObjAddr: 0x435A8, symBinAddr: 0x10023FF98, symSize: 0xEC }
  - { offset: 0x13DAD8, size: 0x8, addend: 0x0, symName: __RNvXs4_NtNtCsaLOjE9VYtxK_3std2io5stdioRNtB5_5StdinNtB7_4Read4read, symObjAddr: 0x43694, symBinAddr: 0x100240084, symSize: 0xE4 }
  - { offset: 0x13DDB5, size: 0x8, addend: 0x0, symName: __RNvXs4_NtNtCsaLOjE9VYtxK_3std2io5stdioRNtB5_5StdinNtB7_4Read8read_buf, symObjAddr: 0x43778, symBinAddr: 0x100240168, symSize: 0xCC }
  - { offset: 0x13E099, size: 0x8, addend: 0x0, symName: __RNvXs8_NtNtCsaLOjE9VYtxK_3std2io5stdioNtB5_9StdinLockNtNtCs6sq8b9ugfBC_4core3fmt5Debug3fmt, symObjAddr: 0x45C1C, symBinAddr: 0x10024260C, symSize: 0x38 }
  - { offset: 0x13E10B, size: 0x8, addend: 0x0, symName: __RNvXsh_NtNtCsaLOjE9VYtxK_3std2io5stdioNtB5_10StdoutLockNtB7_5Write14write_vectored, symObjAddr: 0x4A2F4, symBinAddr: 0x100246CE4, symSize: 0x5C }
  - { offset: 0x13E2F2, size: 0x8, addend: 0x0, symName: __RNvXsh_NtNtCsaLOjE9VYtxK_3std2io5stdioNtB5_10StdoutLockNtB7_5Write18write_all_vectored, symObjAddr: 0x4A350, symBinAddr: 0x100246D40, symSize: 0x230 }
  - { offset: 0x13E732, size: 0x8, addend: 0x0, symName: __RNvXsh_NtNtCsaLOjE9VYtxK_3std2io5stdioNtB5_10StdoutLockNtB7_5Write5flush, symObjAddr: 0x4A580, symBinAddr: 0x100246F70, symSize: 0x5C }
  - { offset: 0x13E92F, size: 0x8, addend: 0x0, symName: __RNvXsh_NtNtCsaLOjE9VYtxK_3std2io5stdioNtB5_10StdoutLockNtB7_5Write5write, symObjAddr: 0x4A5DC, symBinAddr: 0x100246FCC, symSize: 0x278 }
  - { offset: 0x13F0A7, size: 0x8, addend: 0x0, symName: __RNvXsh_NtNtCsaLOjE9VYtxK_3std2io5stdioNtB5_10StdoutLockNtB7_5Write9write_all, symObjAddr: 0x4A854, symBinAddr: 0x100247244, symSize: 0x198 }
  - { offset: 0x13F72D, size: 0x8, addend: 0x0, symName: __RNvXsc_NtNtCsaLOjE9VYtxK_3std2io5stdioNtB5_6StdoutNtNtCs6sq8b9ugfBC_4core3fmt5Debug3fmt, symObjAddr: 0x49550, symBinAddr: 0x100245F40, symSize: 0x38 }
  - { offset: 0x13F779, size: 0x8, addend: 0x0, symName: __RNvXse_NtNtCsaLOjE9VYtxK_3std2io5stdioRNtB5_6StdoutNtB7_5Write14write_vectored, symObjAddr: 0x49D7C, symBinAddr: 0x10024676C, symSize: 0xDC }
  - { offset: 0x13FB4C, size: 0x8, addend: 0x0, symName: __RNvXse_NtNtCsaLOjE9VYtxK_3std2io5stdioRNtB5_6StdoutNtB7_5Write18write_all_vectored, symObjAddr: 0x49E58, symBinAddr: 0x100246848, symSize: 0xA0 }
  - { offset: 0x13FD4D, size: 0x8, addend: 0x0, symName: __RNvXse_NtNtCsaLOjE9VYtxK_3std2io5stdioRNtB5_6StdoutNtB7_5Write5flush, symObjAddr: 0x49EF8, symBinAddr: 0x1002468E8, symSize: 0xBC }
  - { offset: 0x140136, size: 0x8, addend: 0x0, symName: __RNvXse_NtNtCsaLOjE9VYtxK_3std2io5stdioRNtB5_6StdoutNtB7_5Write5write, symObjAddr: 0x49FB4, symBinAddr: 0x1002469A4, symSize: 0xA8 }
  - { offset: 0x140337, size: 0x8, addend: 0x0, symName: __RNvXse_NtNtCsaLOjE9VYtxK_3std2io5stdioRNtB5_6StdoutNtB7_5Write9write_all, symObjAddr: 0x4A05C, symBinAddr: 0x100246A4C, symSize: 0xA0 }
  - { offset: 0x140538, size: 0x8, addend: 0x0, symName: __RNvXse_NtNtCsaLOjE9VYtxK_3std2io5stdioRNtB5_6StdoutNtB7_5Write9write_fmt, symObjAddr: 0x4A0FC, symBinAddr: 0x100246AEC, symSize: 0x110 }
  - { offset: 0x140790, size: 0x8, addend: 0x0, symName: __RNvXsi_NtNtCsaLOjE9VYtxK_3std2io5stdioNtB5_10StdoutLockNtNtCs6sq8b9ugfBC_4core3fmt5Debug3fmt, symObjAddr: 0x4AE48, symBinAddr: 0x100247838, symSize: 0x38 }
  - { offset: 0x1407B2, size: 0x8, addend: 0x0, symName: __RNvXsm_NtNtCsaLOjE9VYtxK_3std2io5stdioNtB5_6StderrNtNtCs6sq8b9ugfBC_4core3fmt5Debug3fmt, symObjAddr: 0x4B4F8, symBinAddr: 0x100247EE8, symSize: 0x38 }
  - { offset: 0x1407F0, size: 0x8, addend: 0x0, symName: __RNvXso_NtNtCsaLOjE9VYtxK_3std2io5stdioRNtB5_6StderrNtB7_5Write14write_vectored, symObjAddr: 0x4B75C, symBinAddr: 0x10024814C, symSize: 0xA8 }
  - { offset: 0x1409F1, size: 0x8, addend: 0x0, symName: __RNvXso_NtNtCsaLOjE9VYtxK_3std2io5stdioRNtB5_6StderrNtB7_5Write18write_all_vectored, symObjAddr: 0x4B804, symBinAddr: 0x1002481F4, symSize: 0x108 }
  - { offset: 0x140E32, size: 0x8, addend: 0x0, symName: __RNvXso_NtNtCsaLOjE9VYtxK_3std2io5stdioRNtB5_6StderrNtB7_5Write5flush, symObjAddr: 0x4B90C, symBinAddr: 0x1002482FC, symSize: 0x88 }
  - { offset: 0x141095, size: 0x8, addend: 0x0, symName: __RNvXso_NtNtCsaLOjE9VYtxK_3std2io5stdioRNtB5_6StderrNtB7_5Write5write, symObjAddr: 0x4B994, symBinAddr: 0x100248384, symSize: 0x130 }
  - { offset: 0x141547, size: 0x8, addend: 0x0, symName: __RNvXso_NtNtCsaLOjE9VYtxK_3std2io5stdioRNtB5_6StderrNtB7_5Write9write_all, symObjAddr: 0x4BAC4, symBinAddr: 0x1002484B4, symSize: 0xD0 }
  - { offset: 0x1418EE, size: 0x8, addend: 0x0, symName: __RNvXso_NtNtCsaLOjE9VYtxK_3std2io5stdioRNtB5_6StderrNtB7_5Write9write_fmt, symObjAddr: 0x4BB94, symBinAddr: 0x100248584, symSize: 0x110 }
  - { offset: 0x141B46, size: 0x8, addend: 0x0, symName: __RNvXss_NtNtCsaLOjE9VYtxK_3std2io5stdioNtB5_10StderrLockNtNtCs6sq8b9ugfBC_4core3fmt5Debug3fmt, symObjAddr: 0x4C3DC, symBinAddr: 0x100248DCC, symSize: 0x38 }
  - { offset: 0x141BA6, size: 0x8, addend: 0x0, symName: __RNvXs9_NtNtCsaLOjE9VYtxK_3std2io5implsINtNtCs8dnTdrJsiec_5alloc3vec3VechENtB7_5Write14write_vectoredB9_, symObjAddr: 0x45EB8, symBinAddr: 0x1002428A8, symSize: 0x19C }
  - { offset: 0x141E15, size: 0x8, addend: 0x0, symName: __RNvXs9_NtNtCsaLOjE9VYtxK_3std2io5implsINtNtCs8dnTdrJsiec_5alloc3vec3VechENtB7_5Write17is_write_vectoredB9_, symObjAddr: 0x46054, symBinAddr: 0x100242A44, symSize: 0x8 }
  - { offset: 0x141E3E, size: 0x8, addend: 0x0, symName: __RNvXs9_NtNtCsaLOjE9VYtxK_3std2io5implsINtNtCs8dnTdrJsiec_5alloc3vec3VechENtB7_5Write18write_all_vectoredB9_, symObjAddr: 0x4605C, symBinAddr: 0x100242A4C, symSize: 0x18C }
  - { offset: 0x141E5D, size: 0x8, addend: 0x0, symName: __RNvXs9_NtNtCsaLOjE9VYtxK_3std2io5implsINtNtCs8dnTdrJsiec_5alloc3vec3VechENtB7_5Write18write_all_vectoredB9_, symObjAddr: 0x4605C, symBinAddr: 0x100242A4C, symSize: 0x18C }
  - { offset: 0x141E73, size: 0x8, addend: 0x0, symName: __RNvXs9_NtNtCsaLOjE9VYtxK_3std2io5implsINtNtCs8dnTdrJsiec_5alloc3vec3VechENtB7_5Write18write_all_vectoredB9_, symObjAddr: 0x4605C, symBinAddr: 0x100242A4C, symSize: 0x18C }
  - { offset: 0x141E89, size: 0x8, addend: 0x0, symName: __RNvXs9_NtNtCsaLOjE9VYtxK_3std2io5implsINtNtCs8dnTdrJsiec_5alloc3vec3VechENtB7_5Write18write_all_vectoredB9_, symObjAddr: 0x4605C, symBinAddr: 0x100242A4C, symSize: 0x18C }
  - { offset: 0x141E9F, size: 0x8, addend: 0x0, symName: __RNvXs9_NtNtCsaLOjE9VYtxK_3std2io5implsINtNtCs8dnTdrJsiec_5alloc3vec3VechENtB7_5Write18write_all_vectoredB9_, symObjAddr: 0x4605C, symBinAddr: 0x100242A4C, symSize: 0x18C }
  - { offset: 0x141EB5, size: 0x8, addend: 0x0, symName: __RNvXs9_NtNtCsaLOjE9VYtxK_3std2io5implsINtNtCs8dnTdrJsiec_5alloc3vec3VechENtB7_5Write18write_all_vectoredB9_, symObjAddr: 0x4605C, symBinAddr: 0x100242A4C, symSize: 0x18C }
  - { offset: 0x142103, size: 0x8, addend: 0x0, symName: __RNvXs9_NtNtCsaLOjE9VYtxK_3std2io5implsINtNtCs8dnTdrJsiec_5alloc3vec3VechENtB7_5Write5flushB9_, symObjAddr: 0x461E8, symBinAddr: 0x100242BD8, symSize: 0x8 }
  - { offset: 0x14211E, size: 0x8, addend: 0x0, symName: __RNvXs9_NtNtCsaLOjE9VYtxK_3std2io5implsINtNtCs8dnTdrJsiec_5alloc3vec3VechENtB7_5Write5writeB9_, symObjAddr: 0x461F0, symBinAddr: 0x100242BE0, symSize: 0x88 }
  - { offset: 0x142273, size: 0x8, addend: 0x0, symName: __RNvXs9_NtNtCsaLOjE9VYtxK_3std2io5implsINtNtCs8dnTdrJsiec_5alloc3vec3VechENtB7_5Write9write_allB9_, symObjAddr: 0x46278, symBinAddr: 0x100242C68, symSize: 0x84 }
  - { offset: 0x1423F4, size: 0x8, addend: 0x0, symName: __RINvNtCsaLOjE9VYtxK_3std2io10read_untilINtNtNtB2_8buffered9bufreader9BufReaderNtNtB2_5stdio8StdinRawEEB4_, symObjAddr: 0x85D4, symBinAddr: 0x1002078B0, symSize: 0x2FC }
  - { offset: 0x14294D, size: 0x8, addend: 0x0, symName: __RINvNvNtCsaLOjE9VYtxK_3std2io19default_read_to_end16small_probe_readNtNtB6_2fs4FileEB6_, symObjAddr: 0x12F28, symBinAddr: 0x100211B44, symSize: 0x12C }
  - { offset: 0x142B96, size: 0x8, addend: 0x0, symName: __RINvNvNtCsaLOjE9VYtxK_3std2io19default_read_to_end16small_probe_readNtNtNtNtB6_3sys5stdio4unix5StdinEB6_, symObjAddr: 0x13054, symBinAddr: 0x100211C70, symSize: 0x12C }
  - { offset: 0x142DC0, size: 0x8, addend: 0x0, symName: __RINvNvNtCsaLOjE9VYtxK_3std2io19default_read_to_end16small_probe_readRNtNtB6_2fs4FileEB6_, symObjAddr: 0x13180, symBinAddr: 0x100211D9C, symSize: 0x130 }
  - { offset: 0x143017, size: 0x8, addend: 0x0, symName: __RINvNtCsaLOjE9VYtxK_3std2io19default_read_to_endNtNtB4_2fs4FileEB4_, symObjAddr: 0x88D0, symBinAddr: 0x100207BAC, symSize: 0x224 }
  - { offset: 0x14342F, size: 0x8, addend: 0x0, symName: __RINvNtCsaLOjE9VYtxK_3std2io19default_read_to_endNtNtNtNtB4_3sys5stdio4unix5StdinEB4_, symObjAddr: 0x8AF4, symBinAddr: 0x100207DD0, symSize: 0x210 }
  - { offset: 0x143828, size: 0x8, addend: 0x0, symName: __RINvNtCsaLOjE9VYtxK_3std2io19default_read_to_endRNtNtB4_2fs4FileEB4_, symObjAddr: 0x8D04, symBinAddr: 0x100207FE0, symSize: 0x22C }
  - { offset: 0x143D38, size: 0x8, addend: 0x0, symName: __RNvYINtNtCs8dnTdrJsiec_5alloc3vec3VechENtNtCsaLOjE9VYtxK_3std2io5Write9write_fmtBF_, symObjAddr: 0x4D188, symBinAddr: 0x100249B78, symSize: 0x9C }
  - { offset: 0x143D87, size: 0x8, addend: 0x0, symName: __RNvYNtNtNtNtCsaLOjE9VYtxK_3std3sys5stdio4unix6StderrNtNtBa_2io5Write18write_all_vectoredBa_, symObjAddr: 0x4DD84, symBinAddr: 0x10024A774, symSize: 0x1B4 }
  - { offset: 0x144000, size: 0x8, addend: 0x0, symName: __RNvYNtNtNtNtCsaLOjE9VYtxK_3std3sys5stdio4unix6StderrNtNtBa_2io5Write9write_allBa_, symObjAddr: 0x4DF38, symBinAddr: 0x10024A928, symSize: 0xE0 }
  - { offset: 0x1440FA, size: 0x8, addend: 0x0, symName: __RNvYNtNtNtNtCsaLOjE9VYtxK_3std3sys5stdio4unix6StderrNtNtBa_2io5Write9write_fmtBa_, symObjAddr: 0x4E018, symBinAddr: 0x10024AA08, symSize: 0x9C }
  - { offset: 0x1442B5, size: 0x8, addend: 0x0, symName: __RNvXNtCsaLOjE9VYtxK_3std2ioNtB2_5GuardNtNtNtCs6sq8b9ugfBC_4core3ops4drop4Drop4drop, symObjAddr: 0x3C940, symBinAddr: 0x1002393C0, symSize: 0xC }
  - { offset: 0x1442E7, size: 0x8, addend: 0x0, symName: __RNvMs2_NtCsaLOjE9VYtxK_3std2ioNtB5_10IoSliceMut10into_slice, symObjAddr: 0x1F6EC, symBinAddr: 0x10021D698, symSize: 0x4 }
  - { offset: 0x14430F, size: 0x8, addend: 0x0, symName: __RNvMs2_NtNtCsaLOjE9VYtxK_3std2io4pipeNtB5_10PipeReader9try_clone, symObjAddr: 0x1F9FC, symBinAddr: 0x10021D9A8, symSize: 0x68 }
  - { offset: 0x14440A, size: 0x8, addend: 0x0, symName: __RNvXs4_NtNtCsaLOjE9VYtxK_3std2io4pipeRNtB5_10PipeReaderNtB7_4Read11read_to_end, symObjAddr: 0x430E8, symBinAddr: 0x10023FAD8, symSize: 0x8 }
  - { offset: 0x144424, size: 0x8, addend: 0x0, symName: __RNvXs4_NtNtCsaLOjE9VYtxK_3std2io4pipeRNtB5_10PipeReaderNtB7_4Read13read_vectored, symObjAddr: 0x430F0, symBinAddr: 0x10023FAE0, symSize: 0x58 }
  - { offset: 0x144531, size: 0x8, addend: 0x0, symName: __RNvXs4_NtNtCsaLOjE9VYtxK_3std2io4pipeRNtB5_10PipeReaderNtB7_4Read4read, symObjAddr: 0x43148, symBinAddr: 0x10023FB38, symSize: 0x58 }
  - { offset: 0x14463E, size: 0x8, addend: 0x0, symName: __RNvXs4_NtNtCsaLOjE9VYtxK_3std2io4pipeRNtB5_10PipeReaderNtB7_4Read8read_buf, symObjAddr: 0x431A0, symBinAddr: 0x10023FB90, symSize: 0x70 }
  - { offset: 0x1447C8, size: 0x8, addend: 0x0, symName: __RNvXs5_NtNtCsaLOjE9VYtxK_3std2io4pipeNtB5_10PipeReaderNtB7_4Read11read_to_end, symObjAddr: 0x43B14, symBinAddr: 0x100240504, symSize: 0x4 }
  - { offset: 0x1447E9, size: 0x8, addend: 0x0, symName: __RNvXs7_NtNtCsaLOjE9VYtxK_3std2io4pipeNtB5_10PipeWriterNtB7_5Write14write_vectored, symObjAddr: 0x45514, symBinAddr: 0x100241F04, symSize: 0x54 }
  - { offset: 0x1448FB, size: 0x8, addend: 0x0, symName: __RNvXs7_NtNtCsaLOjE9VYtxK_3std2io4pipeNtB5_10PipeWriterNtB7_5Write5write, symObjAddr: 0x45568, symBinAddr: 0x100241F58, symSize: 0x54 }
  - { offset: 0x144AAE, size: 0x8, addend: 0x0, symName: __RNvXNvNtCsaLOjE9VYtxK_3std2io17default_write_fmtINtB2_7AdapterINtNtB4_6cursor6CursorQShEENtNtCs6sq8b9ugfBC_4core3fmt5Write9write_strB6_, symObjAddr: 0x3E29C, symBinAddr: 0x10023ACEC, symSize: 0xA0 }
  - { offset: 0x144BDE, size: 0x8, addend: 0x0, symName: __RNvXNvNtCsaLOjE9VYtxK_3std2io17default_write_fmtINtB2_7AdapterINtNtCs8dnTdrJsiec_5alloc3vec3VechEENtNtCs6sq8b9ugfBC_4core3fmt5Write9write_strB6_, symObjAddr: 0x3E33C, symBinAddr: 0x10023AD8C, symSize: 0x84 }
  - { offset: 0x144D3B, size: 0x8, addend: 0x0, symName: __RNvXNvNtCsaLOjE9VYtxK_3std2io17default_write_fmtINtB2_7AdapterNtNtB4_5stdio10StderrLockENtNtCs6sq8b9ugfBC_4core3fmt5Write9write_strB6_, symObjAddr: 0x3E3C0, symBinAddr: 0x10023AE10, symSize: 0x94 }
  - { offset: 0x144F1B, size: 0x8, addend: 0x0, symName: __RNvXNvNtCsaLOjE9VYtxK_3std2io17default_write_fmtINtB2_7AdapterNtNtB4_5stdio10StdoutLockENtNtCs6sq8b9ugfBC_4core3fmt5Write9write_strB6_, symObjAddr: 0x3E454, symBinAddr: 0x10023AEA4, symSize: 0x50 }
  - { offset: 0x144F46, size: 0x8, addend: 0x0, symName: __RNvXNvNtCsaLOjE9VYtxK_3std2io17default_write_fmtINtB2_7AdapterNtNtNtNtB6_3sys5stdio4unix6StderrENtNtCs6sq8b9ugfBC_4core3fmt5Write9write_strB6_, symObjAddr: 0x3E4A4, symBinAddr: 0x10023AEF4, symSize: 0x100 }
  - { offset: 0x14506C, size: 0x8, addend: 0x0, symName: __RNvXNvNtCsaLOjE9VYtxK_3std2io17default_write_fmtINtB2_7AdapterNtNtNtNtB6_3sys5stdio4unix6StdoutENtNtCs6sq8b9ugfBC_4core3fmt5Write9write_strB6_, symObjAddr: 0x3E5A4, symBinAddr: 0x10023AFF4, symSize: 0x100 }
  - { offset: 0x1451E0, size: 0x8, addend: 0x0, symName: __RNvXs1_NtCsaLOjE9VYtxK_3std2ioNtB5_10IoSliceMutNtNtCs6sq8b9ugfBC_4core3fmt5Debug3fmt, symObjAddr: 0x3FA14, symBinAddr: 0x10023C404, symSize: 0x6C }
  - { offset: 0x145287, size: 0x8, addend: 0x0, symName: __RNvXs4_NtNtCsaLOjE9VYtxK_3std2io4copyINtNtCs8dnTdrJsiec_5alloc3vec3VechENtB5_18BufferedWriterSpec11buffer_size, symObjAddr: 0x430CC, symBinAddr: 0x10023FABC, symSize: 0x1C }
  - { offset: 0x1452A7, size: 0x8, addend: 0x0, symName: __RNvXs4_NtNtCsaLOjE9VYtxK_3std2io4copyINtNtCs8dnTdrJsiec_5alloc3vec3VechENtB5_18BufferedWriterSpec11buffer_size, symObjAddr: 0x430CC, symBinAddr: 0x10023FABC, symSize: 0x1C }
  - { offset: 0x1452BE, size: 0x8, addend: 0x0, symName: __RNvXs4_NtNtCsaLOjE9VYtxK_3std2io4copyINtNtCs8dnTdrJsiec_5alloc3vec3VechENtB5_18BufferedWriterSpec11buffer_size, symObjAddr: 0x430CC, symBinAddr: 0x10023FABC, symSize: 0x1C }
  - { offset: 0x1452D4, size: 0x8, addend: 0x0, symName: __RNvXs4_NtNtCsaLOjE9VYtxK_3std2io4copyINtNtCs8dnTdrJsiec_5alloc3vec3VechENtB5_18BufferedWriterSpec11buffer_size, symObjAddr: 0x430CC, symBinAddr: 0x10023FABC, symSize: 0x1C }
  - { offset: 0x14537B, size: 0x8, addend: 0x0, symName: __RNvXs6_NtNtCsaLOjE9VYtxK_3std2io4utilNtB5_6RepeatNtNtCs6sq8b9ugfBC_4core3fmt5Debug3fmt, symObjAddr: 0x443A8, symBinAddr: 0x100240D98, symSize: 0x38 }
  - { offset: 0x145455, size: 0x8, addend: 0x0, symName: __RINvMsr_NtCsaLOjE9VYtxK_3std4pathNtB6_7PathBuf4pushRNtB6_9ComponentEB8_, symObjAddr: 0x4D84, symBinAddr: 0x1002042C0, symSize: 0x1AC }
  - { offset: 0x1458D4, size: 0x8, addend: 0x0, symName: __RNvMsr_NtCsaLOjE9VYtxK_3std4pathNtB5_7PathBuf14__add_extension, symObjAddr: 0x2E978, symBinAddr: 0x10022C0D8, symSize: 0x288 }
  - { offset: 0x145E4F, size: 0x8, addend: 0x0, symName: __RNvMsr_NtCsaLOjE9VYtxK_3std4pathNtB5_7PathBuf14__set_extension, symObjAddr: 0x2EC00, symBinAddr: 0x10022C360, symSize: 0x318 }
  - { offset: 0x1465C9, size: 0x8, addend: 0x0, symName: __RNvMsr_NtCsaLOjE9VYtxK_3std4pathNtB5_7PathBuf14__set_file_name, symObjAddr: 0x2EF18, symBinAddr: 0x10022C678, symSize: 0x16C }
  - { offset: 0x146B6B, size: 0x8, addend: 0x0, symName: __RNvMsr_NtCsaLOjE9VYtxK_3std4pathNtB5_7PathBuf16pop_trailing_sep, symObjAddr: 0x2F084, symBinAddr: 0x10022C7E4, symSize: 0x130 }
  - { offset: 0x146DC2, size: 0x8, addend: 0x0, symName: __RNvMsr_NtCsaLOjE9VYtxK_3std4pathNtB5_7PathBuf16set_trailing_sep, symObjAddr: 0x2F1B4, symBinAddr: 0x10022C914, symSize: 0x80 }
  - { offset: 0x147066, size: 0x8, addend: 0x0, symName: __RNvMsr_NtCsaLOjE9VYtxK_3std4pathNtB5_7PathBuf17push_trailing_sep, symObjAddr: 0x2F234, symBinAddr: 0x10022C994, symSize: 0x78 }
  - { offset: 0x1472F4, size: 0x8, addend: 0x0, symName: __RNvMsr_NtCsaLOjE9VYtxK_3std4pathNtB5_7PathBuf3pop, symObjAddr: 0x2F2AC, symBinAddr: 0x10022CA0C, symSize: 0xE4 }
  - { offset: 0x14752D, size: 0x8, addend: 0x0, symName: __RNvMsr_NtCsaLOjE9VYtxK_3std4pathNtB5_7PathBuf5__push, symObjAddr: 0x2F390, symBinAddr: 0x10022CAF0, symSize: 0x120 }
  - { offset: 0x1479C7, size: 0x8, addend: 0x0, symName: __RNvMs16_NtCsaLOjE9VYtxK_3std4pathNtB6_4Path10__ends_with, symObjAddr: 0x1C16C, symBinAddr: 0x10021A490, symSize: 0x174 }
  - { offset: 0x147B4B, size: 0x8, addend: 0x0, symName: __RNvMs16_NtCsaLOjE9VYtxK_3std4pathNtB6_4Path10components, symObjAddr: 0x1C2E0, symBinAddr: 0x10021A604, symSize: 0x34 }
  - { offset: 0x147B63, size: 0x8, addend: 0x0, symName: __RNvMs16_NtCsaLOjE9VYtxK_3std4pathNtB6_4Path10components, symObjAddr: 0x1C2E0, symBinAddr: 0x10021A604, symSize: 0x34 }
  - { offset: 0x147B8D, size: 0x8, addend: 0x0, symName: __RNvMs16_NtCsaLOjE9VYtxK_3std4pathNtB6_4Path10is_symlink, symObjAddr: 0x1C314, symBinAddr: 0x10021A638, symSize: 0x164 }
  - { offset: 0x147DF1, size: 0x8, addend: 0x0, symName: __RNvMs16_NtCsaLOjE9VYtxK_3std4pathNtB6_4Path11file_prefix, symObjAddr: 0x1C478, symBinAddr: 0x10021A79C, symSize: 0x13C }
  - { offset: 0x148009, size: 0x8, addend: 0x0, symName: __RNvMs16_NtCsaLOjE9VYtxK_3std4pathNtB6_4Path11is_absolute, symObjAddr: 0x1C5B4, symBinAddr: 0x10021A8D8, symSize: 0x1C }
  - { offset: 0x148021, size: 0x8, addend: 0x0, symName: __RNvMs16_NtCsaLOjE9VYtxK_3std4pathNtB6_4Path11is_absolute, symObjAddr: 0x1C5B4, symBinAddr: 0x10021A8D8, symSize: 0x1C }
  - { offset: 0x148037, size: 0x8, addend: 0x0, symName: __RNvMs16_NtCsaLOjE9VYtxK_3std4pathNtB6_4Path11is_absolute, symObjAddr: 0x1C5B4, symBinAddr: 0x10021A8D8, symSize: 0x1C }
  - { offset: 0x14804C, size: 0x8, addend: 0x0, symName: __RNvMs16_NtCsaLOjE9VYtxK_3std4pathNtB6_4Path11is_absolute, symObjAddr: 0x1C5B4, symBinAddr: 0x10021A8D8, symSize: 0x1C }
  - { offset: 0x148062, size: 0x8, addend: 0x0, symName: __RNvMs16_NtCsaLOjE9VYtxK_3std4pathNtB6_4Path11is_absolute, symObjAddr: 0x1C5B4, symBinAddr: 0x10021A8D8, symSize: 0x1C }
  - { offset: 0x14808F, size: 0x8, addend: 0x0, symName: __RNvMs16_NtCsaLOjE9VYtxK_3std4pathNtB6_4Path11to_path_buf, symObjAddr: 0x1C5D0, symBinAddr: 0x10021A8F4, symSize: 0x70 }
  - { offset: 0x1481CF, size: 0x8, addend: 0x0, symName: __RNvMs16_NtCsaLOjE9VYtxK_3std4pathNtB6_4Path12__starts_with, symObjAddr: 0x1C640, symBinAddr: 0x10021A964, symSize: 0x174 }
  - { offset: 0x1482E3, size: 0x8, addend: 0x0, symName: __RNvMs16_NtCsaLOjE9VYtxK_3std4pathNtB6_4Path13__strip_prefix, symObjAddr: 0x1C7B4, symBinAddr: 0x10021AAD8, symSize: 0x1FC }
  - { offset: 0x14840E, size: 0x8, addend: 0x0, symName: __RNvMs16_NtCsaLOjE9VYtxK_3std4pathNtB6_4Path13into_path_buf, symObjAddr: 0x1C9B0, symBinAddr: 0x10021ACD4, symSize: 0xC }
  - { offset: 0x148437, size: 0x8, addend: 0x0, symName: __RNvMs16_NtCsaLOjE9VYtxK_3std4pathNtB6_4Path15__with_extension, symObjAddr: 0x1C9BC, symBinAddr: 0x10021ACE0, symSize: 0x210 }
  - { offset: 0x148934, size: 0x8, addend: 0x0, symName: __RNvMs16_NtCsaLOjE9VYtxK_3std4pathNtB6_4Path15__with_file_name, symObjAddr: 0x1CBCC, symBinAddr: 0x10021AEF0, symSize: 0xC8 }
  - { offset: 0x148B97, size: 0x8, addend: 0x0, symName: __RNvMs16_NtCsaLOjE9VYtxK_3std4pathNtB6_4Path19normalize_lexically, symObjAddr: 0x1CC94, symBinAddr: 0x10021AFB8, symSize: 0x400 }
  - { offset: 0x149699, size: 0x8, addend: 0x0, symName: __RNvMs16_NtCsaLOjE9VYtxK_3std4pathNtB6_4Path5__join, symObjAddr: 0x1D094, symBinAddr: 0x10021B3B8, symSize: 0x178 }
  - { offset: 0x149B9E, size: 0x8, addend: 0x0, symName: __RNvMs16_NtCsaLOjE9VYtxK_3std4pathNtB6_4Path6is_dir, symObjAddr: 0x1D20C, symBinAddr: 0x10021B530, symSize: 0x164 }
  - { offset: 0x149DF4, size: 0x8, addend: 0x0, symName: __RNvMs16_NtCsaLOjE9VYtxK_3std4pathNtB6_4Path6parent, symObjAddr: 0x1D370, symBinAddr: 0x10021B694, symSize: 0x74 }
  - { offset: 0x149E0C, size: 0x8, addend: 0x0, symName: __RNvMs16_NtCsaLOjE9VYtxK_3std4pathNtB6_4Path6parent, symObjAddr: 0x1D370, symBinAddr: 0x10021B694, symSize: 0x74 }
  - { offset: 0x149E22, size: 0x8, addend: 0x0, symName: __RNvMs16_NtCsaLOjE9VYtxK_3std4pathNtB6_4Path6parent, symObjAddr: 0x1D370, symBinAddr: 0x10021B694, symSize: 0x74 }
  - { offset: 0x149E7A, size: 0x8, addend: 0x0, symName: __RNvMs16_NtCsaLOjE9VYtxK_3std4pathNtB6_4Path7is_file, symObjAddr: 0x1D3E4, symBinAddr: 0x10021B708, symSize: 0x164 }
  - { offset: 0x14A0D0, size: 0x8, addend: 0x0, symName: __RNvMs16_NtCsaLOjE9VYtxK_3std4pathNtB6_4Path9extension, symObjAddr: 0x1D548, symBinAddr: 0x10021B86C, symSize: 0xC0 }
  - { offset: 0x14A0E8, size: 0x8, addend: 0x0, symName: __RNvMs16_NtCsaLOjE9VYtxK_3std4pathNtB6_4Path9extension, symObjAddr: 0x1D548, symBinAddr: 0x10021B86C, symSize: 0xC0 }
  - { offset: 0x14A0FE, size: 0x8, addend: 0x0, symName: __RNvMs16_NtCsaLOjE9VYtxK_3std4pathNtB6_4Path9extension, symObjAddr: 0x1D548, symBinAddr: 0x10021B86C, symSize: 0xC0 }
  - { offset: 0x14A114, size: 0x8, addend: 0x0, symName: __RNvMs16_NtCsaLOjE9VYtxK_3std4pathNtB6_4Path9extension, symObjAddr: 0x1D548, symBinAddr: 0x10021B86C, symSize: 0xC0 }
  - { offset: 0x14A302, size: 0x8, addend: 0x0, symName: __RNvMs16_NtCsaLOjE9VYtxK_3std4pathNtB6_4Path9file_name, symObjAddr: 0x1D608, symBinAddr: 0x10021B92C, symSize: 0x64 }
  - { offset: 0x14A31A, size: 0x8, addend: 0x0, symName: __RNvMs16_NtCsaLOjE9VYtxK_3std4pathNtB6_4Path9file_name, symObjAddr: 0x1D608, symBinAddr: 0x10021B92C, symSize: 0x64 }
  - { offset: 0x14A330, size: 0x8, addend: 0x0, symName: __RNvMs16_NtCsaLOjE9VYtxK_3std4pathNtB6_4Path9file_name, symObjAddr: 0x1D608, symBinAddr: 0x10021B92C, symSize: 0x64 }
  - { offset: 0x14A371, size: 0x8, addend: 0x0, symName: __RNvMs16_NtCsaLOjE9VYtxK_3std4pathNtB6_4Path9file_stem, symObjAddr: 0x1D66C, symBinAddr: 0x10021B990, symSize: 0xF0 }
  - { offset: 0x14A389, size: 0x8, addend: 0x0, symName: __RNvMs16_NtCsaLOjE9VYtxK_3std4pathNtB6_4Path9file_stem, symObjAddr: 0x1D66C, symBinAddr: 0x10021B990, symSize: 0xF0 }
  - { offset: 0x14A39F, size: 0x8, addend: 0x0, symName: __RNvMs16_NtCsaLOjE9VYtxK_3std4pathNtB6_4Path9file_stem, symObjAddr: 0x1D66C, symBinAddr: 0x10021B990, symSize: 0xF0 }
  - { offset: 0x14A3B5, size: 0x8, addend: 0x0, symName: __RNvMs16_NtCsaLOjE9VYtxK_3std4pathNtB6_4Path9file_stem, symObjAddr: 0x1D66C, symBinAddr: 0x10021B990, symSize: 0xF0 }
  - { offset: 0x14A90C, size: 0x8, addend: 0x0, symName: __RNvMs8_NtCsaLOjE9VYtxK_3std4pathNtB5_10Components25parse_next_component_back, symObjAddr: 0x22C6C, symBinAddr: 0x100220558, symSize: 0x160 }
  - { offset: 0x14AA74, size: 0x8, addend: 0x0, symName: __RNvMs8_NtCsaLOjE9VYtxK_3std4pathNtB5_10Components7as_path, symObjAddr: 0x22DCC, symBinAddr: 0x1002206B8, symSize: 0x220 }
  - { offset: 0x14ACFA, size: 0x8, addend: 0x0, symName: __RNvNtCsaLOjE9VYtxK_3std4path18compare_components, symObjAddr: 0x31070, symBinAddr: 0x10022E7D0, symSize: 0x2FC }
  - { offset: 0x14B09E, size: 0x8, addend: 0x0, symName: __RNvXs1b_NtCsaLOjE9VYtxK_3std4pathNtB6_7DisplayNtNtCs6sq8b9ugfBC_4core3fmt7Display3fmt, symObjAddr: 0x402DC, symBinAddr: 0x10023CCCC, symSize: 0x10 }
  - { offset: 0x14B132, size: 0x8, addend: 0x0, symName: __RNvXNvXs7_NtCsaLOjE9VYtxK_3std4pathNtB8_10ComponentsNtNtCs6sq8b9ugfBC_4core3fmt5Debug3fmtNtB2_11DebugHelperBO_3fmt, symObjAddr: 0x3E778, symBinAddr: 0x10023B198, symSize: 0xD4 }
  - { offset: 0x14B1AA, size: 0x8, addend: 0x0, symName: __RNvXs7_NtCsaLOjE9VYtxK_3std4pathNtB5_10ComponentsNtNtCs6sq8b9ugfBC_4core3fmt5Debug3fmt, symObjAddr: 0x4543C, symBinAddr: 0x100241E2C, symSize: 0x64 }
  - { offset: 0x14B1ED, size: 0x8, addend: 0x0, symName: __RNvXNvXsb_NtCsaLOjE9VYtxK_3std4pathNtB8_4IterNtNtCs6sq8b9ugfBC_4core3fmt5Debug3fmtNtB2_11DebugHelperBH_3fmt, symObjAddr: 0x3E84C, symBinAddr: 0x10023B26C, symSize: 0x130 }
  - { offset: 0x14B2B0, size: 0x8, addend: 0x0, symName: __RNvXsb_NtCsaLOjE9VYtxK_3std4pathNtB5_4IterNtNtCs6sq8b9ugfBC_4core3fmt5Debug3fmt, symObjAddr: 0x491F0, symBinAddr: 0x100245BE0, symSize: 0x64 }
  - { offset: 0x14B2E9, size: 0x8, addend: 0x0, symName: __RNvXs19_NtCsaLOjE9VYtxK_3std4pathNtB6_4PathNtNtCs6sq8b9ugfBC_4core3fmt5Debug3fmt, symObjAddr: 0x3F874, symBinAddr: 0x10023C264, symSize: 0x28 }
  - { offset: 0x14B37F, size: 0x8, addend: 0x0, symName: __RNvXs1Y_NtCsaLOjE9VYtxK_3std4pathNtB6_9ComponentNtNtCs6sq8b9ugfBC_4core3cmp9PartialEq2eq, symObjAddr: 0x3F910, symBinAddr: 0x10023C300, symSize: 0x104 }
  - { offset: 0x14B449, size: 0x8, addend: 0x0, symName: __RNvXs1a_NtCsaLOjE9VYtxK_3std4pathNtB6_7DisplayNtNtCs6sq8b9ugfBC_4core3fmt5Debug3fmt, symObjAddr: 0x402B4, symBinAddr: 0x10023CCA4, symSize: 0x28 }
  - { offset: 0x14B506, size: 0x8, addend: 0x0, symName: __RNvXs1u_NtCsaLOjE9VYtxK_3std4pathNtB6_16StripPrefixErrorNtNtCs6sq8b9ugfBC_4core3fmt7Display3fmt, symObjAddr: 0x40F18, symBinAddr: 0x10023D908, symSize: 0x14 }
  - { offset: 0x14B528, size: 0x8, addend: 0x0, symName: __RNvXs1w_NtCsaLOjE9VYtxK_3std4pathNtB6_14NormalizeErrorNtNtCs6sq8b9ugfBC_4core3fmt7Display3fmt, symObjAddr: 0x40F2C, symBinAddr: 0x10023D91C, symSize: 0x14 }
  - { offset: 0x14B54A, size: 0x8, addend: 0x0, symName: __RNvXs23_NtCsaLOjE9VYtxK_3std4pathNtB6_9ComponentNtNtCs6sq8b9ugfBC_4core3fmt5Debug3fmt, symObjAddr: 0x4108C, symBinAddr: 0x10023DA7C, symSize: 0xCC }
  - { offset: 0x14B581, size: 0x8, addend: 0x0, symName: __RNvXsi_NtCsaLOjE9VYtxK_3std4pathNtB5_10ComponentsNtNtNtNtCs6sq8b9ugfBC_4core4iter6traits8iterator8Iterator4next, symObjAddr: 0x4AB0C, symBinAddr: 0x1002474FC, symSize: 0x304 }
  - { offset: 0x14B68F, size: 0x8, addend: 0x0, symName: __RNvXsj_NtCsaLOjE9VYtxK_3std4pathNtB5_10ComponentsNtNtNtNtCs6sq8b9ugfBC_4core4iter6traits12double_ended19DoubleEndedIterator9next_back, symObjAddr: 0x4AEE4, symBinAddr: 0x1002478D4, symSize: 0x3DC }
  - { offset: 0x14B803, size: 0x8, addend: 0x0, symName: __RNvXst_NtCsaLOjE9VYtxK_3std4pathINtNtCs8dnTdrJsiec_5alloc5boxed3BoxNtB5_4PathEINtNtCs6sq8b9ugfBC_4core7convert4FromRB13_E4from, symObjAddr: 0x4C444, symBinAddr: 0x100248E34, symSize: 0x6C }
  - { offset: 0x14BAD5, size: 0x8, addend: 0x0, symName: __RNvMs0_NtNtCsaLOjE9VYtxK_3std3ffi6os_strNtB5_8OsString17into_boxed_os_str, symObjAddr: 0x1A514, symBinAddr: 0x100218838, symSize: 0x98 }
  - { offset: 0x14BE1F, size: 0x8, addend: 0x0, symName: __RNvMsl_NtNtCsaLOjE9VYtxK_3std3ffi6os_strNtB5_5OsStr18to_ascii_lowercase, symObjAddr: 0x2E160, symBinAddr: 0x10022B8C0, symSize: 0x178 }
  - { offset: 0x14BF9B, size: 0x8, addend: 0x0, symName: __RNvMsl_NtNtCsaLOjE9VYtxK_3std3ffi6os_strNtB5_5OsStr18to_ascii_uppercase, symObjAddr: 0x2E2D8, symBinAddr: 0x10022BA38, symSize: 0x178 }
  - { offset: 0x14C35C, size: 0x8, addend: 0x0, symName: __RNvXsQ_NtNtCsaLOjE9VYtxK_3std3ffi6os_strNtB5_7DisplayNtNtCs6sq8b9ugfBC_4core3fmt7Display3fmt, symObjAddr: 0x467A8, symBinAddr: 0x100243198, symSize: 0x10 }
  - { offset: 0x14C3B1, size: 0x8, addend: 0x0, symName: __RNvXsP_NtNtCsaLOjE9VYtxK_3std3ffi6os_strNtB5_7DisplayNtNtCs6sq8b9ugfBC_4core3fmt5Debug3fmt, symObjAddr: 0x46768, symBinAddr: 0x100243158, symSize: 0x28 }
  - { offset: 0x14C43C, size: 0x8, addend: 0x0, symName: __RNvXsD_NtNtCsaLOjE9VYtxK_3std3ffi6os_strReINtNtCs6sq8b9ugfBC_4core7convert7TryFromRNtB5_5OsStrE8try_from, symObjAddr: 0x4666C, symBinAddr: 0x10024305C, symSize: 0x4 }
  - { offset: 0x14C45B, size: 0x8, addend: 0x0, symName: __RNvXsD_NtNtCsaLOjE9VYtxK_3std3ffi6os_strReINtNtCs6sq8b9ugfBC_4core7convert7TryFromRNtB5_5OsStrE8try_from, symObjAddr: 0x4666C, symBinAddr: 0x10024305C, symSize: 0x4 }
  - { offset: 0x14C475, size: 0x8, addend: 0x0, symName: __RNvXsk_NtNtCsaLOjE9VYtxK_3std3ffi6os_strNtB5_8OsStringNtNtCs6sq8b9ugfBC_4core3fmt5Write9write_str, symObjAddr: 0x4B2FC, symBinAddr: 0x100247CEC, symSize: 0x84 }
  - { offset: 0x14C793, size: 0x8, addend: 0x0, symName: __RNvMs0_NtNtNtCsaLOjE9VYtxK_3std2os2fd5ownedNtB5_10BorrowedFd18try_clone_to_owned, symObjAddr: 0x1A930, symBinAddr: 0x100218C54, symSize: 0x68 }
  - { offset: 0x14C84E, size: 0x8, addend: 0x0, symName: __RNvMs_NtNtNtCsaLOjE9VYtxK_3std2os2fd5ownedNtB4_7OwnedFd9try_clone, symObjAddr: 0x27B80, symBinAddr: 0x1002252E0, symSize: 0x68 }
  - { offset: 0x14C98E, size: 0x8, addend: 0x0, symName: __RNvXs6_NtNtNtCsaLOjE9VYtxK_3std2os2fd5ownedNtB5_10BorrowedFdNtNtCs6sq8b9ugfBC_4core3fmt5Debug3fmt, symObjAddr: 0x4496C, symBinAddr: 0x10024135C, symSize: 0x64 }
  - { offset: 0x14C9B6, size: 0x8, addend: 0x0, symName: __RNvXs7_NtNtNtCsaLOjE9VYtxK_3std2os2fd5ownedNtB5_7OwnedFdNtNtCs6sq8b9ugfBC_4core3fmt5Debug3fmt, symObjAddr: 0x45908, symBinAddr: 0x1002422F8, symSize: 0x64 }
  - { offset: 0x14CA1A, size: 0x8, addend: 0x0, symName: __RNvMNtNtNtNtCsaLOjE9VYtxK_3std2os4unix3net4addrNtB2_10SocketAddr10is_unnamed, symObjAddr: 0x1881C, symBinAddr: 0x100216F00, symSize: 0x44 }
  - { offset: 0x14CA86, size: 0x8, addend: 0x0, symName: __RNvMNtNtNtNtCsaLOjE9VYtxK_3std2os4unix3net4addrNtB2_10SocketAddr11as_pathname, symObjAddr: 0x18860, symBinAddr: 0x100216F44, symSize: 0x48 }
  - { offset: 0x14CB4E, size: 0x8, addend: 0x0, symName: __RNvNtNtNtNtCsaLOjE9VYtxK_3std2os4unix3net4addr11sockaddr_un, symObjAddr: 0x39634, symBinAddr: 0x100236174, symSize: 0x134 }
  - { offset: 0x14CC49, size: 0x8, addend: 0x0, symName: __RNvXs0_NtNtNtNtCsaLOjE9VYtxK_3std2os4unix3net4addrNtB5_10SocketAddrNtNtCs6sq8b9ugfBC_4core3fmt5Debug3fmt, symObjAddr: 0x3F3D0, symBinAddr: 0x10023BDF0, symSize: 0x98 }
  - { offset: 0x14CD22, size: 0x8, addend: 0x0, symName: __RNvMs0_NtNtNtNtCsaLOjE9VYtxK_3std2os4unix3net6streamNtB5_10UnixStream10local_addr, symObjAddr: 0x1ABF0, symBinAddr: 0x100218F14, symSize: 0xE4 }
  - { offset: 0x14CE70, size: 0x8, addend: 0x0, symName: __RNvMs0_NtNtNtNtCsaLOjE9VYtxK_3std2os4unix3net6streamNtB5_10UnixStream12connect_addr, symObjAddr: 0x1ACD4, symBinAddr: 0x100218FF8, symSize: 0xB4 }
  - { offset: 0x14CF85, size: 0x8, addend: 0x0, symName: __RNvMs0_NtNtNtNtCsaLOjE9VYtxK_3std2os4unix3net6streamNtB5_10UnixStream12read_timeout, symObjAddr: 0x1AD88, symBinAddr: 0x1002190AC, symSize: 0xE0 }
  - { offset: 0x14D0A3, size: 0x8, addend: 0x0, symName: __RNvMs0_NtNtNtNtCsaLOjE9VYtxK_3std2os4unix3net6streamNtB5_10UnixStream13write_timeout, symObjAddr: 0x1AE68, symBinAddr: 0x10021918C, symSize: 0xE0 }
  - { offset: 0x14D1C1, size: 0x8, addend: 0x0, symName: __RNvMs0_NtNtNtNtCsaLOjE9VYtxK_3std2os4unix3net6streamNtB5_10UnixStream4pair, symObjAddr: 0x1AF48, symBinAddr: 0x10021926C, symSize: 0x5C }
  - { offset: 0x14D1FF, size: 0x8, addend: 0x0, symName: __RNvMs0_NtNtNtNtCsaLOjE9VYtxK_3std2os4unix3net6streamNtB5_10UnixStream9peer_addr, symObjAddr: 0x1AFA4, symBinAddr: 0x1002192C8, symSize: 0xE4 }
  - { offset: 0x14D34D, size: 0x8, addend: 0x0, symName: __RNvMs0_NtNtNtNtCsaLOjE9VYtxK_3std2os4unix3net6streamNtB5_10UnixStream9peer_cred, symObjAddr: 0x1B088, symBinAddr: 0x1002193AC, symSize: 0xD0 }
  - { offset: 0x14D432, size: 0x8, addend: 0x0, symName: __RNvMs0_NtNtNtNtCsaLOjE9VYtxK_3std2os4unix3net6streamNtB5_10UnixStream9try_clone, symObjAddr: 0x1B158, symBinAddr: 0x10021947C, symSize: 0x68 }
  - { offset: 0x14D546, size: 0x8, addend: 0x0, symName: __RNvXs2_NtNtNtNtCsaLOjE9VYtxK_3std2os4unix3net6streamRNtB5_10UnixStreamNtNtBd_2io4Read8read_buf, symObjAddr: 0x41730, symBinAddr: 0x10023E120, symSize: 0x68 }
  - { offset: 0x14D68E, size: 0x8, addend: 0x0, symName: __RNvXs1_NtNtNtNtCsaLOjE9VYtxK_3std2os4unix3net6streamNtB5_10UnixStreamNtNtBd_2io4Read13read_vectored, symObjAddr: 0x40150, symBinAddr: 0x10023CB40, symSize: 0x54 }
  - { offset: 0x14D79F, size: 0x8, addend: 0x0, symName: __RNvXs1_NtNtNtNtCsaLOjE9VYtxK_3std2os4unix3net6streamNtB5_10UnixStreamNtNtBd_2io4Read4read, symObjAddr: 0x401A4, symBinAddr: 0x10023CB94, symSize: 0x44 }
  - { offset: 0x14D870, size: 0x8, addend: 0x0, symName: __RNvXs1_NtNtNtNtCsaLOjE9VYtxK_3std2os4unix3net6streamNtB5_10UnixStreamNtNtBd_2io4Read8read_buf, symObjAddr: 0x401E8, symBinAddr: 0x10023CBD8, symSize: 0x64 }
  - { offset: 0x14D9F9, size: 0x8, addend: 0x0, symName: __RNvXs3_NtNtNtNtCsaLOjE9VYtxK_3std2os4unix3net6streamNtB5_10UnixStreamNtNtBd_2io5Write14write_vectored, symObjAddr: 0x42800, symBinAddr: 0x10023F1F0, symSize: 0x54 }
  - { offset: 0x14DB0C, size: 0x8, addend: 0x0, symName: __RNvXs3_NtNtNtNtCsaLOjE9VYtxK_3std2os4unix3net6streamNtB5_10UnixStreamNtNtBd_2io5Write5write, symObjAddr: 0x42854, symBinAddr: 0x10023F244, symSize: 0x4C }
  - { offset: 0x14DBE2, size: 0x8, addend: 0x0, symName: __RNvXs_NtNtNtNtCsaLOjE9VYtxK_3std2os4unix3net6streamNtB4_10UnixStreamNtNtCs6sq8b9ugfBC_4core3fmt5Debug3fmt, symObjAddr: 0x48190, symBinAddr: 0x100244B80, symSize: 0x2A0 }
  - { offset: 0x14DF29, size: 0x8, addend: 0x0, symName: __RNvMs0_NtNtNtNtCsaLOjE9VYtxK_3std2os4unix3net8datagramNtB5_12UnixDatagram12connect_addr, symObjAddr: 0x1B1C0, symBinAddr: 0x1002194E4, symSize: 0x3C }
  - { offset: 0x14DFF6, size: 0x8, addend: 0x0, symName: __RNvMs0_NtNtNtNtCsaLOjE9VYtxK_3std2os4unix3net8datagramNtB5_12UnixDatagram12send_to_addr, symObjAddr: 0x1B1FC, symBinAddr: 0x100219520, symSize: 0x54 }
  - { offset: 0x14E0DB, size: 0x8, addend: 0x0, symName: __RNvMs0_NtNtNtNtCsaLOjE9VYtxK_3std2os4unix3net8datagramNtB5_12UnixDatagram4pair, symObjAddr: 0x1B250, symBinAddr: 0x100219574, symSize: 0x5C }
  - { offset: 0x14E119, size: 0x8, addend: 0x0, symName: __RNvMs0_NtNtNtNtCsaLOjE9VYtxK_3std2os4unix3net8datagramNtB5_12UnixDatagram4send, symObjAddr: 0x1B2AC, symBinAddr: 0x1002195D0, symSize: 0x54 }
  - { offset: 0x14E215, size: 0x8, addend: 0x0, symName: __RNvMs0_NtNtNtNtCsaLOjE9VYtxK_3std2os4unix3net8datagramNtB5_12UnixDatagram7unbound, symObjAddr: 0x1B300, symBinAddr: 0x100219624, symSize: 0x60 }
  - { offset: 0x14E25A, size: 0x8, addend: 0x0, symName: __RNvMs0_NtNtNtNtCsaLOjE9VYtxK_3std2os4unix3net8datagramNtB5_12UnixDatagram9bind_addr, symObjAddr: 0x1B360, symBinAddr: 0x100219684, symSize: 0xB4 }
  - { offset: 0x14E3A2, size: 0x8, addend: 0x0, symName: __RNvMs0_NtNtNtNtCsaLOjE9VYtxK_3std2os4unix3net8datagramNtB5_12UnixDatagram9peek_from, symObjAddr: 0x1B414, symBinAddr: 0x100219738, symSize: 0x118 }
  - { offset: 0x14E57A, size: 0x8, addend: 0x0, symName: __RNvMs0_NtNtNtNtCsaLOjE9VYtxK_3std2os4unix3net8datagramNtB5_12UnixDatagram9recv_from, symObjAddr: 0x1B52C, symBinAddr: 0x100219850, symSize: 0x118 }
  - { offset: 0x14E7BB, size: 0x8, addend: 0x0, symName: __RNvXs_NtNtNtNtCsaLOjE9VYtxK_3std2os4unix3net8datagramNtB4_12UnixDatagramNtNtCs6sq8b9ugfBC_4core3fmt5Debug3fmt, symObjAddr: 0x48430, symBinAddr: 0x100244E20, symSize: 0x2A0 }
  - { offset: 0x14EAB8, size: 0x8, addend: 0x0, symName: __RNvMs_NtNtNtNtCsaLOjE9VYtxK_3std2os4unix3net8listenerNtB4_12UnixListener6accept, symObjAddr: 0x28ECC, symBinAddr: 0x10022662C, symSize: 0x17C }
  - { offset: 0x14ED53, size: 0x8, addend: 0x0, symName: __RNvMs_NtNtNtNtCsaLOjE9VYtxK_3std2os4unix3net8listenerNtB4_12UnixListener9bind_addr, symObjAddr: 0x29048, symBinAddr: 0x1002267A8, symSize: 0xC8 }
  - { offset: 0x14EEC6, size: 0x8, addend: 0x0, symName: __RNvXNtNtNtNtCsaLOjE9VYtxK_3std2os4unix3net8listenerNtB2_12UnixListenerNtNtCs6sq8b9ugfBC_4core3fmt5Debug3fmt, symObjAddr: 0x3DD20, symBinAddr: 0x10023A770, symSize: 0x188 }
  - { offset: 0x14F051, size: 0x8, addend: 0x0, symName: __RNvXs7_NtNtNtNtCsaLOjE9VYtxK_3std2os4unix3net8listenerNtB5_8IncomingNtNtNtNtCs6sq8b9ugfBC_4core4iter6traits8iterator8Iterator4next, symObjAddr: 0x45A18, symBinAddr: 0x100242408, symSize: 0x40 }
  - { offset: 0x14F0B7, size: 0x8, addend: 0x0, symName: __RNvXNtNtNtCsaLOjE9VYtxK_3std2os4unix2fsNtNtB8_2fs4FileNtB2_7FileExt11read_buf_at, symObjAddr: 0x3D4FC, symBinAddr: 0x100239F4C, symSize: 0x70 }
  - { offset: 0x14F229, size: 0x8, addend: 0x0, symName: __RNvXNtNtNtCsaLOjE9VYtxK_3std2os4unix2fsNtNtB8_2fs4FileNtB2_7FileExt16read_vectored_at, symObjAddr: 0x3D56C, symBinAddr: 0x100239FBC, symSize: 0x110 }
  - { offset: 0x14F42C, size: 0x8, addend: 0x0, symName: __RNvXNtNtNtCsaLOjE9VYtxK_3std2os4unix2fsNtNtB8_2fs4FileNtB2_7FileExt17write_vectored_at, symObjAddr: 0x3D67C, symBinAddr: 0x10023A0CC, symSize: 0x110 }
  - { offset: 0x14F630, size: 0x8, addend: 0x0, symName: __RNvXNtNtNtCsaLOjE9VYtxK_3std2os4unix2fsNtNtB8_2fs4FileNtB2_7FileExt7read_at, symObjAddr: 0x3D78C, symBinAddr: 0x10023A1DC, symSize: 0x54 }
  - { offset: 0x14F72C, size: 0x8, addend: 0x0, symName: __RNvXNtNtNtCsaLOjE9VYtxK_3std2os4unix2fsNtNtB8_2fs4FileNtB2_7FileExt8write_at, symObjAddr: 0x3D7E0, symBinAddr: 0x10023A230, symSize: 0x54 }
  - { offset: 0x14F831, size: 0x8, addend: 0x0, symName: __RNvXs5_NtNtNtCsaLOjE9VYtxK_3std2os4unix2fsNtNtBb_2fs8DirEntryNtB5_12DirEntryExt213file_name_ref, symObjAddr: 0x44224, symBinAddr: 0x100240C14, symSize: 0xC }
  - { offset: 0x14F851, size: 0x8, addend: 0x0, symName: __RNvXs5_NtNtNtCsaLOjE9VYtxK_3std2os4unix2fsNtNtBb_2fs8DirEntryNtB5_12DirEntryExt213file_name_ref, symObjAddr: 0x44224, symBinAddr: 0x100240C14, symSize: 0xC }
  - { offset: 0x14F868, size: 0x8, addend: 0x0, symName: __RNvXs5_NtNtNtCsaLOjE9VYtxK_3std2os4unix2fsNtNtBb_2fs8DirEntryNtB5_12DirEntryExt213file_name_ref, symObjAddr: 0x44224, symBinAddr: 0x100240C14, symSize: 0xC }
  - { offset: 0x14F884, size: 0x8, addend: 0x0, symName: __RNvNtNtNtCsaLOjE9VYtxK_3std2os4unix2io16replace_stdio_fd, symObjAddr: 0x3725C, symBinAddr: 0x100234718, symSize: 0x54 }
  - { offset: 0x14F93C, size: 0x8, addend: 0x0, symName: __RNvXNtNtNtCsaLOjE9VYtxK_3std2os4unix2ioNtNtNtB8_2io5stdio6StdoutNtB2_8StdioExt7take_fd, symObjAddr: 0x3D834, symBinAddr: 0x10023A284, symSize: 0x8C }
  - { offset: 0x14FB33, size: 0x8, addend: 0x0, symName: __RNvXs0_NtNtNtCsaLOjE9VYtxK_3std2os4unix2ioNtNtNtBb_2io5stdio5StdinNtB5_8StdioExt7take_fd, symObjAddr: 0x3F284, symBinAddr: 0x10023BCA4, symSize: 0xB8 }
  - { offset: 0x14FDFD, size: 0x8, addend: 0x0, symName: __RNvXs1_NtNtNtCsaLOjE9VYtxK_3std2os4unix2ioNtNtNtBb_2io5stdio9StdinLockNtB5_8StdioExt7take_fd, symObjAddr: 0x3FE68, symBinAddr: 0x10023C858, symSize: 0x154 }
  - { offset: 0x15008D, size: 0x8, addend: 0x0, symName: __RNvXs2_NtNtNtCsaLOjE9VYtxK_3std2os4unix2ioNtNtNtBb_2io5stdio6StderrNtB5_8StdioExt7take_fd, symObjAddr: 0x415B0, symBinAddr: 0x10023DFA0, symSize: 0x8C }
  - { offset: 0x150292, size: 0x8, addend: 0x0, symName: __RNvXs3_NtNtNtCsaLOjE9VYtxK_3std2os4unix2ioNtNtNtBb_2io5stdio10StderrLockNtB5_8StdioExt7take_fd, symObjAddr: 0x425B0, symBinAddr: 0x10023EFA0, symSize: 0x190 }
  - { offset: 0x1505EC, size: 0x8, addend: 0x0, symName: __RNvXs_NtNtNtCsaLOjE9VYtxK_3std2os4unix2ioNtNtNtBa_2io5stdio10StdoutLockNtB4_8StdioExt7take_fd, symObjAddr: 0x47C9C, symBinAddr: 0x10024468C, symSize: 0x1E0 }
  - { offset: 0x150A91, size: 0x8, addend: 0x0, symName: __RNvNtNtNtCsaLOjE9VYtxK_3std2os4unix7process9parent_id, symObjAddr: 0x372B0, symBinAddr: 0x10023476C, symSize: 0x4 }
  - { offset: 0x150AB1, size: 0x8, addend: 0x0, symName: __RNvNtNtNtCsaLOjE9VYtxK_3std2os4unix7process9parent_id, symObjAddr: 0x372B0, symBinAddr: 0x10023476C, symSize: 0x4 }
  - { offset: 0x150ACB, size: 0x8, addend: 0x0, symName: __RNvXNtNtNtCsaLOjE9VYtxK_3std2os4unix7processNtNtB8_7process7CommandNtB2_10CommandExt4exec, symObjAddr: 0x3D8C0, symBinAddr: 0x10023A310, symSize: 0x1C8 }
  - { offset: 0x150D5B, size: 0x8, addend: 0x0, symName: __RNvXNtNtNtCsaLOjE9VYtxK_3std2os4unix7processNtNtB8_7process7CommandNtB2_10CommandExt6groups, symObjAddr: 0x3DA88, symBinAddr: 0x10023A4D8, symSize: 0xA8 }
  - { offset: 0x150F51, size: 0x8, addend: 0x0, symName: __RNvXs0_NtNtNtCsaLOjE9VYtxK_3std2os4unix7processNtNtBb_7process15ExitStatusErrorNtB5_13ExitStatusExt8from_raw, symObjAddr: 0x3F33C, symBinAddr: 0x10023BD5C, symSize: 0x38 }
  - { offset: 0x150F84, size: 0x8, addend: 0x0, symName: __RNvXs1_NtNtNtCsaLOjE9VYtxK_3std2os4unix7processNtNtBb_7process5ChildNtB5_8ChildExt11send_signal, symObjAddr: 0x3FFBC, symBinAddr: 0x10023C9AC, symSize: 0x48 }
  - { offset: 0x151050, size: 0x8, addend: 0x0, symName: __RNvXs0_NtNtNtNtCsaLOjE9VYtxK_3std12backtrace_rs9symbolize5gimli4mmapNtB5_4MmapNtNtNtCs6sq8b9ugfBC_4core3ops4drop4Drop4drop, symObjAddr: 0x3F3C4, symBinAddr: 0x10023BDE4, symSize: 0xC }
  - { offset: 0x15107F, size: 0x8, addend: 0x0, symName: __RNvXs_NtNtNtNtCsaLOjE9VYtxK_3std12backtrace_rs9symbolize5gimli4mmapNtB4_4MmapNtNtNtCs6sq8b9ugfBC_4core3ops5deref5Deref5deref, symObjAddr: 0x48184, symBinAddr: 0x100244B74, symSize: 0xC }
  - { offset: 0x15115B, size: 0x8, addend: 0x0, symName: __RNvMs_NtNtNtNtCsaLOjE9VYtxK_3std12backtrace_rs9symbolize5gimli5machoNtB4_6Object5parse, symObjAddr: 0x280E4, symBinAddr: 0x100225844, symSize: 0xC98 }
  - { offset: 0x1531C8, size: 0x8, addend: 0x0, symName: __RNvMs_NtNtNtNtCsaLOjE9VYtxK_3std12backtrace_rs9symbolize5gimli5machoNtB4_6Object7section, symObjAddr: 0x28D7C, symBinAddr: 0x1002264DC, symSize: 0x150 }
  - { offset: 0x153639, size: 0x8, addend: 0x0, symName: __RNvNtNtNtNtCsaLOjE9VYtxK_3std12backtrace_rs9symbolize5gimli5macho11find_header, symObjAddr: 0x39458, symBinAddr: 0x100235F98, symSize: 0x1DC }
  - { offset: 0x153657, size: 0x8, addend: 0x0, symName: __RNvNtNtNtNtCsaLOjE9VYtxK_3std12backtrace_rs9symbolize5gimli5macho11find_header, symObjAddr: 0x39458, symBinAddr: 0x100235F98, symSize: 0x1DC }
  - { offset: 0x15366C, size: 0x8, addend: 0x0, symName: __RNvNtNtNtNtCsaLOjE9VYtxK_3std12backtrace_rs9symbolize5gimli5macho11find_header, symObjAddr: 0x39458, symBinAddr: 0x100235F98, symSize: 0x1DC }
  - { offset: 0x153681, size: 0x8, addend: 0x0, symName: __RNvNtNtNtNtCsaLOjE9VYtxK_3std12backtrace_rs9symbolize5gimli5macho11find_header, symObjAddr: 0x39458, symBinAddr: 0x100235F98, symSize: 0x1DC }
  - { offset: 0x153696, size: 0x8, addend: 0x0, symName: __RNvNtNtNtNtCsaLOjE9VYtxK_3std12backtrace_rs9symbolize5gimli5macho11find_header, symObjAddr: 0x39458, symBinAddr: 0x100235F98, symSize: 0x1DC }
  - { offset: 0x1536AC, size: 0x8, addend: 0x0, symName: __RNvNtNtNtNtCsaLOjE9VYtxK_3std12backtrace_rs9symbolize5gimli5macho11find_header, symObjAddr: 0x39458, symBinAddr: 0x100235F98, symSize: 0x1DC }
  - { offset: 0x1536C2, size: 0x8, addend: 0x0, symName: __RNvNtNtNtNtCsaLOjE9VYtxK_3std12backtrace_rs9symbolize5gimli5macho11find_header, symObjAddr: 0x39458, symBinAddr: 0x100235F98, symSize: 0x1DC }
  - { offset: 0x153CFA, size: 0x8, addend: 0x0, symName: __RNvMs_NtNtNtCsaLOjE9VYtxK_3std12backtrace_rs9symbolize5gimliNtB4_7Context11find_frames, symObjAddr: 0x25674, symBinAddr: 0x100222F60, symSize: 0x398 }
  - { offset: 0x1541BF, size: 0x8, addend: 0x0, symName: __RNvMs_NtNtNtCsaLOjE9VYtxK_3std12backtrace_rs9symbolize5gimliNtB4_7Context3new, symObjAddr: 0x25A0C, symBinAddr: 0x1002232F8, symSize: 0x1E88 }
  - { offset: 0x1588BD, size: 0x8, addend: 0x0, symName: __RNvNtNtNtCsaLOjE9VYtxK_3std12backtrace_rs9symbolize5gimli4mmap, symObjAddr: 0x34B98, symBinAddr: 0x100232054, symSize: 0x1E0 }
  - { offset: 0x158EB9, size: 0x8, addend: 0x0, symName: __RNvNtNtNtCsaLOjE9VYtxK_3std12backtrace_rs9symbolize5gimli7resolve, symObjAddr: 0x34D78, symBinAddr: 0x100232234, symSize: 0x24E4 }
  - { offset: 0x15E8B1, size: 0x8, addend: 0x0, symName: __RNvMs_NtNtCsaLOjE9VYtxK_3std12backtrace_rs9symbolizeNtB4_6Symbol12filename_raw, symObjAddr: 0x2504C, symBinAddr: 0x100222938, symSize: 0x38 }
  - { offset: 0x15E8EB, size: 0x8, addend: 0x0, symName: __RNvMs_NtNtCsaLOjE9VYtxK_3std12backtrace_rs9symbolizeNtB4_6Symbol4name, symObjAddr: 0x25084, symBinAddr: 0x100222970, symSize: 0xD4 }
  - { offset: 0x15EA70, size: 0x8, addend: 0x0, symName: __RNvXs0_NtNtCsaLOjE9VYtxK_3std12backtrace_rs9symbolizeNtB5_6SymbolNtNtCs6sq8b9ugfBC_4core3fmt5Debug3fmt, symObjAddr: 0x3EC48, symBinAddr: 0x10023B668, symSize: 0xF8 }
  - { offset: 0x15EB26, size: 0x8, addend: 0x0, symName: __RNvXs2_NtNtCsaLOjE9VYtxK_3std12backtrace_rs9symbolizeNtB5_10SymbolNameNtNtCs6sq8b9ugfBC_4core3fmt7Display3fmt, symObjAddr: 0x412D0, symBinAddr: 0x10023DCC0, symSize: 0x104 }
  - { offset: 0x15EBCD, size: 0x8, addend: 0x0, symName: __RNvXs3_NtNtCsaLOjE9VYtxK_3std12backtrace_rs9symbolizeNtB5_10SymbolNameNtNtCs6sq8b9ugfBC_4core3fmt5Debug3fmt, symObjAddr: 0x418E0, symBinAddr: 0x10023E2D0, symSize: 0x104 }
  - { offset: 0x15EC8E, size: 0x8, addend: 0x0, symName: __RNvXs2_NtNtNtCsaLOjE9VYtxK_3std12backtrace_rs9backtrace9libunwindNtB5_4BombNtNtNtCs6sq8b9ugfBC_4core3ops4drop4Drop4drop, symObjAddr: 0x41570, symBinAddr: 0x10023DF60, symSize: 0x2C }
  - { offset: 0x15ECE4, size: 0x8, addend: 0x0, symName: __RNvXs1_NtNtNtCsaLOjE9VYtxK_3std12backtrace_rs9backtrace9libunwindNtB5_5FrameNtNtCs6sq8b9ugfBC_4core5clone5Clone5clone, symObjAddr: 0x3FE00, symBinAddr: 0x10023C7F0, symSize: 0x68 }
  - { offset: 0x15ED4A, size: 0x8, addend: 0x0, symName: __RNvNvNtNtNtCsaLOjE9VYtxK_3std12backtrace_rs9backtrace9libunwind5trace8trace_fn, symObjAddr: 0x3C75C, symBinAddr: 0x1002391DC, symSize: 0x48 }
  - { offset: 0x15EDDE, size: 0x8, addend: 0x0, symName: __RNvXs_NtNtCsaLOjE9VYtxK_3std12backtrace_rs9backtraceNtB4_5FrameNtNtCs6sq8b9ugfBC_4core3fmt5Debug3fmt, symObjAddr: 0x47088, symBinAddr: 0x100243A78, symSize: 0xDC }
  - { offset: 0x15EEE4, size: 0x8, addend: 0x0, symName: __RNvMs_NtNtCsaLOjE9VYtxK_3std12backtrace_rs5printNtB4_17BacktraceFrameFmt21print_raw_with_column, symObjAddr: 0x24CD0, symBinAddr: 0x1002225BC, symSize: 0x37C }
  - { offset: 0x15F267, size: 0x8, addend: 0x0, symName: __RNvNtNtCsaLOjE9VYtxK_3std9panicking11panic_count17is_zero_slow_path, symObjAddr: 0x34A80, symBinAddr: 0x10030E94C, symSize: 0x2C }
  - { offset: 0x15F2F3, size: 0x8, addend: 0x0, symName: __RNvNtNtCsaLOjE9VYtxK_3std9panicking11panic_count19finished_panic_hook, symObjAddr: 0x34AAC, symBinAddr: 0x100231F68, symSize: 0x24 }
  - { offset: 0x15F3BD, size: 0x8, addend: 0x0, symName: __RNvNtNtCsaLOjE9VYtxK_3std9panicking11panic_count8decrease, symObjAddr: 0x34AD0, symBinAddr: 0x100231F8C, symSize: 0x40 }
  - { offset: 0x15F4CA, size: 0x8, addend: 0x0, symName: __RNvNtNtCsaLOjE9VYtxK_3std9panicking11panic_count8increase, symObjAddr: 0x34B10, symBinAddr: 0x100231FCC, symSize: 0x64 }
  - { offset: 0x15F4E2, size: 0x8, addend: 0x0, symName: __RNvNtNtCsaLOjE9VYtxK_3std9panicking11panic_count8increase, symObjAddr: 0x34B10, symBinAddr: 0x100231FCC, symSize: 0x64 }
  - { offset: 0x15F4F8, size: 0x8, addend: 0x0, symName: __RNvNtNtCsaLOjE9VYtxK_3std9panicking11panic_count8increase, symObjAddr: 0x34B10, symBinAddr: 0x100231FCC, symSize: 0x64 }
  - { offset: 0x15F5B7, size: 0x8, addend: 0x0, symName: __RNvNtNtCsaLOjE9VYtxK_3std9panicking11panic_count9get_count, symObjAddr: 0x34B74, symBinAddr: 0x100232030, symSize: 0x24 }
  - { offset: 0x15F635, size: 0x8, addend: 0x0, symName: __RINvNtCsaLOjE9VYtxK_3std9panicking11begin_panicReEB4_, symObjAddr: 0x8F60, symBinAddr: 0x10030CEF8, symSize: 0x1C }
  - { offset: 0x15F664, size: 0x8, addend: 0x0, symName: __RNCINvNtCsaLOjE9VYtxK_3std9panicking11begin_panicReE0B6_, symObjAddr: 0x1392C, symBinAddr: 0x100212418, symSize: 0x30 }
  - { offset: 0x15F685, size: 0x8, addend: 0x0, symName: __RNvXNvNtCsaLOjE9VYtxK_3std9panicking11begin_panicINtB2_7PayloadReENtNtCs6sq8b9ugfBC_4core5panic12PanicPayload3getB6_, symObjAddr: 0x3E6A4, symBinAddr: 0x10023B0F4, symSize: 0x20 }
  - { offset: 0x15F6A0, size: 0x8, addend: 0x0, symName: __RNvXNvNtCsaLOjE9VYtxK_3std9panicking11begin_panicINtB2_7PayloadReENtNtCs6sq8b9ugfBC_4core5panic12PanicPayload8take_boxB6_, symObjAddr: 0x3E6C4, symBinAddr: 0x10023B114, symSize: 0x54 }
  - { offset: 0x15F767, size: 0x8, addend: 0x0, symName: __RNvXs_NvNtCsaLOjE9VYtxK_3std9panicking11begin_panicINtB4_7PayloadReENtNtCs6sq8b9ugfBC_4core3fmt7Display3fmtB8_, symObjAddr: 0x48A38, symBinAddr: 0x100245428, symSize: 0x24 }
  - { offset: 0x15F7CB, size: 0x8, addend: 0x0, symName: __RNCNvNtCsaLOjE9VYtxK_3std9panicking12default_hook0B5_, symObjAddr: 0x14AEC, symBinAddr: 0x100213574, symSize: 0x134 }
  - { offset: 0x15F90E, size: 0x8, addend: 0x0, symName: __RNCNvNtCsaLOjE9VYtxK_3std9panicking13panic_handler0B5_, symObjAddr: 0x14C20, symBinAddr: 0x1002136A8, symSize: 0x98 }
  - { offset: 0x15FA97, size: 0x8, addend: 0x0, symName: __RNvXs0_NvNtCsaLOjE9VYtxK_3std9panicking13panic_handlerNtB5_19FormatStringPayloadNtNtCs6sq8b9ugfBC_4core3fmt7Display3fmt, symObjAddr: 0x3F66C, symBinAddr: 0x10023C05C, symSize: 0x34 }
  - { offset: 0x15FB9D, size: 0x8, addend: 0x0, symName: __RNvXs1_NvNtCsaLOjE9VYtxK_3std9panicking13panic_handlerNtB5_16StaticStrPayloadNtNtCs6sq8b9ugfBC_4core5panic12PanicPayload3get, symObjAddr: 0x40254, symBinAddr: 0x10023CC44, symSize: 0xC }
  - { offset: 0x15FBB8, size: 0x8, addend: 0x0, symName: __RNvXs1_NvNtCsaLOjE9VYtxK_3std9panicking13panic_handlerNtB5_16StaticStrPayloadNtNtCs6sq8b9ugfBC_4core5panic12PanicPayload6as_str, symObjAddr: 0x40260, symBinAddr: 0x10023CC50, symSize: 0xC }
  - { offset: 0x15FBD3, size: 0x8, addend: 0x0, symName: __RNvXs1_NvNtCsaLOjE9VYtxK_3std9panicking13panic_handlerNtB5_16StaticStrPayloadNtNtCs6sq8b9ugfBC_4core5panic12PanicPayload8take_box, symObjAddr: 0x4026C, symBinAddr: 0x10023CC5C, symSize: 0x48 }
  - { offset: 0x15FC6D, size: 0x8, addend: 0x0, symName: __RNvXs2_NvNtCsaLOjE9VYtxK_3std9panicking13panic_handlerNtB5_16StaticStrPayloadNtNtCs6sq8b9ugfBC_4core3fmt7Display3fmt, symObjAddr: 0x417D8, symBinAddr: 0x10023E1C8, symSize: 0x10 }
  - { offset: 0x15FCC0, size: 0x8, addend: 0x0, symName: __RNvXs_NvNtCsaLOjE9VYtxK_3std9panicking13panic_handlerNtB4_19FormatStringPayloadNtNtCs6sq8b9ugfBC_4core5panic12PanicPayload3get, symObjAddr: 0x48A5C, symBinAddr: 0x10024544C, symSize: 0xA0 }
  - { offset: 0x15FE43, size: 0x8, addend: 0x0, symName: __RNvXs_NvNtCsaLOjE9VYtxK_3std9panicking13panic_handlerNtB4_19FormatStringPayloadNtNtCs6sq8b9ugfBC_4core5panic12PanicPayload8take_box, symObjAddr: 0x48AFC, symBinAddr: 0x1002454EC, symSize: 0x108 }
  - { offset: 0x160165, size: 0x8, addend: 0x0, symName: __RNSINvNtCsaLOjE9VYtxK_3std9panicking11begin_panicReE5reifyB6_, symObjAddr: 0x15B94, symBinAddr: 0x10030D614, symSize: 0x14 }
  - { offset: 0x160180, size: 0x8, addend: 0x0, symName: __RNvCsGIExRX8pES_7___rustc10rust_panic, symObjAddr: 0x15EFC, symBinAddr: 0x10030D628, symSize: 0x48 }
  - { offset: 0x16019B, size: 0x8, addend: 0x0, symName: __RNvCsGIExRX8pES_7___rustc17___rust_drop_panic, symObjAddr: 0x16070, symBinAddr: 0x1002148DC, symSize: 0xD4 }
  - { offset: 0x1602DD, size: 0x8, addend: 0x0, symName: __RNvCsGIExRX8pES_7___rustc17rust_begin_unwind, symObjAddr: 0x16144, symBinAddr: 0x1002149B0, symSize: 0x20 }
  - { offset: 0x16030F, size: 0x8, addend: 0x0, symName: __RNvCsGIExRX8pES_7___rustc24___rust_foreign_exception, symObjAddr: 0x161F4, symBinAddr: 0x100214A60, symSize: 0xD4 }
  - { offset: 0x1604B9, size: 0x8, addend: 0x0, symName: __RNvNvNtCsaLOjE9VYtxK_3std9panicking12catch_unwind7cleanup, symObjAddr: 0x3C71C, symBinAddr: 0x10030F374, symSize: 0x40 }
  - { offset: 0x1605EA, size: 0x8, addend: 0x0, symName: __RNvNtCsaLOjE9VYtxK_3std9panicking12default_hook, symObjAddr: 0x31684, symBinAddr: 0x10022EDB4, symSize: 0x13C }
  - { offset: 0x160781, size: 0x8, addend: 0x0, symName: __RNvNtCsaLOjE9VYtxK_3std9panicking13resume_unwind, symObjAddr: 0x317C0, symBinAddr: 0x10030E704, symSize: 0xBC }
  - { offset: 0x160A4A, size: 0x8, addend: 0x0, symName: __RNvNtCsaLOjE9VYtxK_3std9panicking14payload_as_str, symObjAddr: 0x3187C, symBinAddr: 0x10022EEF0, symSize: 0xC8 }
  - { offset: 0x160BA1, size: 0x8, addend: 0x0, symName: __RNvNtCsaLOjE9VYtxK_3std9panicking15panic_with_hook, symObjAddr: 0x31944, symBinAddr: 0x10022EFB8, symSize: 0x388 }
  - { offset: 0x161352, size: 0x8, addend: 0x0, symName: __RNvNtCsaLOjE9VYtxK_3std9panicking8set_hook, symObjAddr: 0x31CCC, symBinAddr: 0x10022F340, symSize: 0xDC }
  - { offset: 0x161593, size: 0x8, addend: 0x0, symName: __RNvNtCsaLOjE9VYtxK_3std9panicking9take_hook, symObjAddr: 0x31DA8, symBinAddr: 0x10022F41C, symSize: 0x5C }
  - { offset: 0x161635, size: 0x8, addend: 0x0, symName: __RNvXNvNtCsaLOjE9VYtxK_3std9panicking13resume_unwindNtB2_9RewrapBoxNtNtCs6sq8b9ugfBC_4core5panic12PanicPayload3get, symObjAddr: 0x3E718, symBinAddr: 0x10023B168, symSize: 0xC }
  - { offset: 0x161650, size: 0x8, addend: 0x0, symName: __RNvXNvNtCsaLOjE9VYtxK_3std9panicking13resume_unwindNtB2_9RewrapBoxNtNtCs6sq8b9ugfBC_4core5panic12PanicPayload8take_box, symObjAddr: 0x3E724, symBinAddr: 0x10023B174, symSize: 0x1C }
  - { offset: 0x16166F, size: 0x8, addend: 0x0, symName: __RNvXNvNtCsaLOjE9VYtxK_3std9panicking13resume_unwindNtB2_9RewrapBoxNtNtCs6sq8b9ugfBC_4core5panic12PanicPayload8take_box, symObjAddr: 0x3E724, symBinAddr: 0x10023B174, symSize: 0x1C }
  - { offset: 0x161689, size: 0x8, addend: 0x0, symName: __RNvXs_NvNtCsaLOjE9VYtxK_3std9panicking13resume_unwindNtB4_9RewrapBoxNtNtCs6sq8b9ugfBC_4core3fmt7Display3fmt, symObjAddr: 0x48C04, symBinAddr: 0x1002455F4, symSize: 0x14 }
  - { offset: 0x161715, size: 0x8, addend: 0x0, symName: __RNvXs7_NtCsaLOjE9VYtxK_3std2fsRNtB5_4FileNtNtB7_2io4Read11read_to_end, symObjAddr: 0x4525C, symBinAddr: 0x100241C4C, symSize: 0xE0 }
  - { offset: 0x161892, size: 0x8, addend: 0x0, symName: __RNvXs7_NtCsaLOjE9VYtxK_3std2fsRNtB5_4FileNtNtB7_2io4Read14read_to_string, symObjAddr: 0x4533C, symBinAddr: 0x100241D2C, symSize: 0x100 }
  - { offset: 0x161B6F, size: 0x8, addend: 0x0, symName: __RNvXsa_NtCsaLOjE9VYtxK_3std2fsNtB5_4FileNtNtB7_2io4Read11read_to_end, symObjAddr: 0x48D48, symBinAddr: 0x100245738, symSize: 0xDC }
  - { offset: 0x161D03, size: 0x8, addend: 0x0, symName: __RNvXsa_NtCsaLOjE9VYtxK_3std2fsNtB5_4FileNtNtB7_2io4Read13read_vectored, symObjAddr: 0x48E24, symBinAddr: 0x100245814, symSize: 0x54 }
  - { offset: 0x161E39, size: 0x8, addend: 0x0, symName: __RNvXsa_NtCsaLOjE9VYtxK_3std2fsNtB5_4FileNtNtB7_2io4Read14read_to_string, symObjAddr: 0x48E78, symBinAddr: 0x100245868, symSize: 0x24 }
  - { offset: 0x161E4D, size: 0x8, addend: 0x0, symName: __RNvXsa_NtCsaLOjE9VYtxK_3std2fsNtB5_4FileNtNtB7_2io4Read4read, symObjAddr: 0x48E9C, symBinAddr: 0x10024588C, symSize: 0x54 }
  - { offset: 0x161F83, size: 0x8, addend: 0x0, symName: __RNvXsa_NtCsaLOjE9VYtxK_3std2fsNtB5_4FileNtNtB7_2io4Read8read_buf, symObjAddr: 0x48EF0, symBinAddr: 0x1002458E0, symSize: 0x6C }
  - { offset: 0x1621C9, size: 0x8, addend: 0x0, symName: __RNvMso_NtCsaLOjE9VYtxK_3std2fsNtB5_8Metadata7created, symObjAddr: 0x2E84C, symBinAddr: 0x10022BFAC, symSize: 0x64 }
  - { offset: 0x16222C, size: 0x8, addend: 0x0, symName: __RNvMso_NtCsaLOjE9VYtxK_3std2fsNtB5_8Metadata8accessed, symObjAddr: 0x2E8B0, symBinAddr: 0x10022C010, symSize: 0x64 }
  - { offset: 0x16228F, size: 0x8, addend: 0x0, symName: __RNvMso_NtCsaLOjE9VYtxK_3std2fsNtB5_8Metadata8modified, symObjAddr: 0x2E914, symBinAddr: 0x10022C074, symSize: 0x64 }
  - { offset: 0x16235B, size: 0x8, addend: 0x0, symName: __RNvMs2_NtCsaLOjE9VYtxK_3std2fsNtB5_4File11lock_shared, symObjAddr: 0x1F1A4, symBinAddr: 0x10021D150, symSize: 0x3C }
  - { offset: 0x1623FE, size: 0x8, addend: 0x0, symName: __RNvMs2_NtCsaLOjE9VYtxK_3std2fsNtB5_4File15set_permissions, symObjAddr: 0x1F1E0, symBinAddr: 0x10021D18C, symSize: 0x98 }
  - { offset: 0x1624A5, size: 0x8, addend: 0x0, symName: __RNvMs2_NtCsaLOjE9VYtxK_3std2fsNtB5_4File15try_lock_shared, symObjAddr: 0x1F278, symBinAddr: 0x10021D224, symSize: 0x74 }
  - { offset: 0x16255E, size: 0x8, addend: 0x0, symName: __RNvMs2_NtCsaLOjE9VYtxK_3std2fsNtB5_4File4lock, symObjAddr: 0x1F2EC, symBinAddr: 0x10021D298, symSize: 0x3C }
  - { offset: 0x162601, size: 0x8, addend: 0x0, symName: __RNvMs2_NtCsaLOjE9VYtxK_3std2fsNtB5_4File6unlock, symObjAddr: 0x1F328, symBinAddr: 0x10021D2D4, symSize: 0x3C }
  - { offset: 0x1626A4, size: 0x8, addend: 0x0, symName: __RNvMs2_NtCsaLOjE9VYtxK_3std2fsNtB5_4File7set_len, symObjAddr: 0x1F364, symBinAddr: 0x10021D310, symSize: 0xA0 }
  - { offset: 0x1626D1, size: 0x8, addend: 0x0, symName: __RNvMs2_NtCsaLOjE9VYtxK_3std2fsNtB5_4File7set_len, symObjAddr: 0x1F364, symBinAddr: 0x10021D310, symSize: 0xA0 }
  - { offset: 0x1626E7, size: 0x8, addend: 0x0, symName: __RNvMs2_NtCsaLOjE9VYtxK_3std2fsNtB5_4File7set_len, symObjAddr: 0x1F364, symBinAddr: 0x10021D310, symSize: 0xA0 }
  - { offset: 0x1627AC, size: 0x8, addend: 0x0, symName: __RNvMs2_NtCsaLOjE9VYtxK_3std2fsNtB5_4File8metadata, symObjAddr: 0x1F404, symBinAddr: 0x10021D3B0, symSize: 0xAC }
  - { offset: 0x1628C7, size: 0x8, addend: 0x0, symName: __RNvMs2_NtCsaLOjE9VYtxK_3std2fsNtB5_4File8sync_all, symObjAddr: 0x1F4B0, symBinAddr: 0x10021D45C, symSize: 0x94 }
  - { offset: 0x162984, size: 0x8, addend: 0x0, symName: __RNvMs2_NtCsaLOjE9VYtxK_3std2fsNtB5_4File8try_lock, symObjAddr: 0x1F544, symBinAddr: 0x10021D4F0, symSize: 0x74 }
  - { offset: 0x162A3D, size: 0x8, addend: 0x0, symName: __RNvMs2_NtCsaLOjE9VYtxK_3std2fsNtB5_4File9set_times, symObjAddr: 0x1F5B8, symBinAddr: 0x10021D564, symSize: 0x134 }
  - { offset: 0x162BD0, size: 0x8, addend: 0x0, symName: __RNvMsC_NtCsaLOjE9VYtxK_3std2fsNtB5_8DirEntry4path, symObjAddr: 0x23D10, symBinAddr: 0x1002215FC, symSize: 0x18 }
  - { offset: 0x162BE8, size: 0x8, addend: 0x0, symName: __RNvMsC_NtCsaLOjE9VYtxK_3std2fsNtB5_8DirEntry4path, symObjAddr: 0x23D10, symBinAddr: 0x1002215FC, symSize: 0x18 }
  - { offset: 0x162BFE, size: 0x8, addend: 0x0, symName: __RNvMsC_NtCsaLOjE9VYtxK_3std2fsNtB5_8DirEntry4path, symObjAddr: 0x23D10, symBinAddr: 0x1002215FC, symSize: 0x18 }
  - { offset: 0x162C14, size: 0x8, addend: 0x0, symName: __RNvMsC_NtCsaLOjE9VYtxK_3std2fsNtB5_8DirEntry4path, symObjAddr: 0x23D10, symBinAddr: 0x1002215FC, symSize: 0x18 }
  - { offset: 0x162C2A, size: 0x8, addend: 0x0, symName: __RNvMsC_NtCsaLOjE9VYtxK_3std2fsNtB5_8DirEntry4path, symObjAddr: 0x23D10, symBinAddr: 0x1002215FC, symSize: 0x18 }
  - { offset: 0x162D7F, size: 0x8, addend: 0x0, symName: __RNvMsC_NtCsaLOjE9VYtxK_3std2fsNtB5_8DirEntry8metadata, symObjAddr: 0x23D28, symBinAddr: 0x100221614, symSize: 0xC8 }
  - { offset: 0x162F2D, size: 0x8, addend: 0x0, symName: __RNvMsC_NtCsaLOjE9VYtxK_3std2fsNtB5_8DirEntry9file_name, symObjAddr: 0x23DF0, symBinAddr: 0x1002216DC, symSize: 0x70 }
  - { offset: 0x163083, size: 0x8, addend: 0x0, symName: __RNvMsC_NtCsaLOjE9VYtxK_3std2fsNtB5_8DirEntry9file_type, symObjAddr: 0x23E60, symBinAddr: 0x10022174C, symSize: 0xC8 }
  - { offset: 0x16328C, size: 0x8, addend: 0x0, symName: __RNvMsF_NtCsaLOjE9VYtxK_3std2fsNtB5_10DirBuilder7__create, symObjAddr: 0x23F28, symBinAddr: 0x100221814, symSize: 0x800 }
  - { offset: 0x164277, size: 0x8, addend: 0x0, symName: __RNvMsl_NtCsaLOjE9VYtxK_3std2fsNtB5_11OpenOptions5__open, symObjAddr: 0x2E064, symBinAddr: 0x10022B7C4, symSize: 0xFC }
  - { offset: 0x16441F, size: 0x8, addend: 0x0, symName: __RNvXs9_NtCsaLOjE9VYtxK_3std2fsRNtB5_4FileNtNtB7_2io4Seek10stream_len, symObjAddr: 0x45C94, symBinAddr: 0x100242684, symSize: 0xFC }
  - { offset: 0x16466F, size: 0x8, addend: 0x0, symName: __RNvXs9_NtCsaLOjE9VYtxK_3std2fsRNtB5_4FileNtNtB7_2io4Seek15stream_position, symObjAddr: 0x45D90, symBinAddr: 0x100242780, symSize: 0x54 }
  - { offset: 0x164737, size: 0x8, addend: 0x0, symName: __RNvXs9_NtCsaLOjE9VYtxK_3std2fsRNtB5_4FileNtNtB7_2io4Seek4seek, symObjAddr: 0x45DE4, symBinAddr: 0x1002427D4, symSize: 0x60 }
  - { offset: 0x1647E9, size: 0x8, addend: 0x0, symName: __RNvNtCsaLOjE9VYtxK_3std2fs24buffer_capacity_required, symObjAddr: 0x2FB74, symBinAddr: 0x10022D2D4, symSize: 0xD4 }
  - { offset: 0x164A46, size: 0x8, addend: 0x0, symName: __RNvNvNtCsaLOjE9VYtxK_3std2fs14read_to_string5inner, symObjAddr: 0x3C020, symBinAddr: 0x100238AE0, symSize: 0x2C0 }
  - { offset: 0x165169, size: 0x8, addend: 0x0, symName: __RNvNvNtCsaLOjE9VYtxK_3std2fs4read5inner, symObjAddr: 0x3C2E0, symBinAddr: 0x100238DA0, symSize: 0x240 }
  - { offset: 0x165760, size: 0x8, addend: 0x0, symName: __RNvXs8_NtCsaLOjE9VYtxK_3std2fsRNtB5_4FileNtNtB7_2io5Write5write, symObjAddr: 0x45AB0, symBinAddr: 0x1002424A0, symSize: 0x58 }
  - { offset: 0x165886, size: 0x8, addend: 0x0, symName: __RNvXsb_NtCsaLOjE9VYtxK_3std2fsNtB5_4FileNtNtB7_2io5Write5write, symObjAddr: 0x4919C, symBinAddr: 0x100245B8C, symSize: 0x54 }
  - { offset: 0x165999, size: 0x8, addend: 0x0, symName: __RNvNvNtCsaLOjE9VYtxK_3std2fs5write5inner, symObjAddr: 0x3C520, symBinAddr: 0x100238FE0, symSize: 0x1FC }
  - { offset: 0x165D1B, size: 0x8, addend: 0x0, symName: __RNvXs0_NtCsaLOjE9VYtxK_3std2fsNtB5_12TryLockErrorNtNtCs6sq8b9ugfBC_4core3fmt7Display3fmt, symObjAddr: 0x3E97C, symBinAddr: 0x10023B39C, symSize: 0x30 }
  - { offset: 0x165D3D, size: 0x8, addend: 0x0, symName: __RNvXs6_NtCsaLOjE9VYtxK_3std2fsNtB5_4FileNtNtCs6sq8b9ugfBC_4core3fmt5Debug3fmt, symObjAddr: 0x442C4, symBinAddr: 0x100240CB4, symSize: 0x3C }
  - { offset: 0x165DD0, size: 0x8, addend: 0x0, symName: __RNvXsB_NtCsaLOjE9VYtxK_3std2fsNtB5_7ReadDirNtNtNtNtCs6sq8b9ugfBC_4core4iter6traits8iterator8Iterator4next, symObjAddr: 0x46430, symBinAddr: 0x100242E20, symSize: 0x18C }
  - { offset: 0x1660A5, size: 0x8, addend: 0x0, symName: __RNvXsD_NtCsaLOjE9VYtxK_3std2fsNtB5_8DirEntryNtNtCs6sq8b9ugfBC_4core3fmt5Debug3fmt, symObjAddr: 0x465BC, symBinAddr: 0x100242FAC, symSize: 0xB0 }
  - { offset: 0x166433, size: 0x8, addend: 0x0, symName: __RNvXsU_NtCsaLOjE9VYtxK_3std2fsNtB5_11PermissionsNtNtCs6sq8b9ugfBC_4core3fmt5Debug3fmt, symObjAddr: 0x46B2C, symBinAddr: 0x10024351C, symSize: 0x40 }
  - { offset: 0x166455, size: 0x8, addend: 0x0, symName: __RNvXs_NtCsaLOjE9VYtxK_3std2fsNtB4_12TryLockErrorNtNtCs6sq8b9ugfBC_4core3fmt5Debug3fmt, symObjAddr: 0x46DB8, symBinAddr: 0x1002437A8, symSize: 0x24 }
  - { offset: 0x16648E, size: 0x8, addend: 0x0, symName: __RNvXsc_NtCsaLOjE9VYtxK_3std2fsNtB5_4FileNtNtB7_2io4Seek10stream_len, symObjAddr: 0x4939C, symBinAddr: 0x100245D8C, symSize: 0x24 }
  - { offset: 0x1664A9, size: 0x8, addend: 0x0, symName: __RNvXsc_NtCsaLOjE9VYtxK_3std2fsNtB5_4FileNtNtB7_2io4Seek15stream_position, symObjAddr: 0x493C0, symBinAddr: 0x100245DB0, symSize: 0x50 }
  - { offset: 0x16658F, size: 0x8, addend: 0x0, symName: __RNvXsc_NtCsaLOjE9VYtxK_3std2fsNtB5_4FileNtNtB7_2io4Seek4seek, symObjAddr: 0x49410, symBinAddr: 0x100245E00, symSize: 0x5C }
  - { offset: 0x166665, size: 0x8, addend: 0x0, symName: __RNvXsd_NtCsaLOjE9VYtxK_3std2fsINtNtCs8dnTdrJsiec_5alloc4sync3ArcNtB5_4FileENtNtB7_2io4Read11read_to_end, symObjAddr: 0x4977C, symBinAddr: 0x10024616C, symSize: 0xE0 }
  - { offset: 0x166834, size: 0x8, addend: 0x0, symName: __RNvXsd_NtCsaLOjE9VYtxK_3std2fsINtNtCs8dnTdrJsiec_5alloc4sync3ArcNtB5_4FileENtNtB7_2io4Read13read_vectored, symObjAddr: 0x4985C, symBinAddr: 0x10024624C, symSize: 0x58 }
  - { offset: 0x1669B5, size: 0x8, addend: 0x0, symName: __RNvXsd_NtCsaLOjE9VYtxK_3std2fsINtNtCs8dnTdrJsiec_5alloc4sync3ArcNtB5_4FileENtNtB7_2io4Read14read_to_string, symObjAddr: 0x498B4, symBinAddr: 0x1002462A4, symSize: 0x2C }
  - { offset: 0x166A15, size: 0x8, addend: 0x0, symName: __RNvXsd_NtCsaLOjE9VYtxK_3std2fsINtNtCs8dnTdrJsiec_5alloc4sync3ArcNtB5_4FileENtNtB7_2io4Read4read, symObjAddr: 0x498E0, symBinAddr: 0x1002462D0, symSize: 0x58 }
  - { offset: 0x166B96, size: 0x8, addend: 0x0, symName: __RNvXsd_NtCsaLOjE9VYtxK_3std2fsINtNtCs8dnTdrJsiec_5alloc4sync3ArcNtB5_4FileENtNtB7_2io4Read8read_buf, symObjAddr: 0x49938, symBinAddr: 0x100246328, symSize: 0x70 }
  - { offset: 0x166D94, size: 0x8, addend: 0x0, symName: __RNvXse_NtCsaLOjE9VYtxK_3std2fsINtNtCs8dnTdrJsiec_5alloc4sync3ArcNtB5_4FileENtNtB7_2io5Write14write_vectored, symObjAddr: 0x49CA4, symBinAddr: 0x100246694, symSize: 0x58 }
  - { offset: 0x166EEB, size: 0x8, addend: 0x0, symName: __RNvXse_NtCsaLOjE9VYtxK_3std2fsINtNtCs8dnTdrJsiec_5alloc4sync3ArcNtB5_4FileENtNtB7_2io5Write5write, symObjAddr: 0x49CFC, symBinAddr: 0x1002466EC, symSize: 0x58 }
  - { offset: 0x167049, size: 0x8, addend: 0x0, symName: __RNvXsf_NtCsaLOjE9VYtxK_3std2fsINtNtCs8dnTdrJsiec_5alloc4sync3ArcNtB5_4FileENtNtB7_2io4Seek10stream_len, symObjAddr: 0x4A210, symBinAddr: 0x100246C00, symSize: 0x2C }
  - { offset: 0x1670A9, size: 0x8, addend: 0x0, symName: __RNvXsf_NtCsaLOjE9VYtxK_3std2fsINtNtCs8dnTdrJsiec_5alloc4sync3ArcNtB5_4FileENtNtB7_2io4Seek15stream_position, symObjAddr: 0x4A23C, symBinAddr: 0x100246C2C, symSize: 0x54 }
  - { offset: 0x1671D3, size: 0x8, addend: 0x0, symName: __RNvXsf_NtCsaLOjE9VYtxK_3std2fsINtNtCs8dnTdrJsiec_5alloc4sync3ArcNtB5_4FileENtNtB7_2io4Seek4seek, symObjAddr: 0x4A290, symBinAddr: 0x100246C80, symSize: 0x60 }
  - { offset: 0x1672ED, size: 0x8, addend: 0x0, symName: __RNvXsk_NtCsaLOjE9VYtxK_3std2fsNtB5_3DirNtNtCs6sq8b9ugfBC_4core3fmt5Debug3fmt, symObjAddr: 0x4B2C0, symBinAddr: 0x100247CB0, symSize: 0x3C }
  - { offset: 0x16733C, size: 0x8, addend: 0x0, symName: __RNvXsp_NtCsaLOjE9VYtxK_3std2fsNtB5_8MetadataNtNtCs6sq8b9ugfBC_4core3fmt5Debug3fmt, symObjAddr: 0x4BCA4, symBinAddr: 0x100248694, symSize: 0x268 }
  - { offset: 0x167516, size: 0x8, addend: 0x0, symName: __RNvXsx_NtCsaLOjE9VYtxK_3std2fsNtB5_8FileTypeNtNtCs6sq8b9ugfBC_4core3fmt5Debug3fmt, symObjAddr: 0x4D088, symBinAddr: 0x100249A78, symSize: 0xC8 }
  - { offset: 0x16761D, size: 0x8, addend: 0x0, symName: __RINvNtCsaLOjE9VYtxK_3std2rt15handle_rt_paniciEB4_, symObjAddr: 0x8F30, symBinAddr: 0x10030CEC8, symSize: 0x30 }
  - { offset: 0x16765E, size: 0x8, addend: 0x0, symName: __RNCNCNCNvNtCsaLOjE9VYtxK_3std2rt19lang_start_internal00s_0B9_, symObjAddr: 0x13C44, symBinAddr: 0x10030D4FC, symSize: 0x30 }
  - { offset: 0x1676A2, size: 0x8, addend: 0x0, symName: __RNvCsGIExRX8pES_7___rustc12___rust_abort, symObjAddr: 0x15FB0, symBinAddr: 0x10030D670, symSize: 0xC }
  - { offset: 0x1676D6, size: 0x8, addend: 0x0, symName: __RNvNtCsaLOjE9VYtxK_3std2rt19lang_start_internal, symObjAddr: 0x2FC48, symBinAddr: 0x10022D3A8, symSize: 0x618 }
  - { offset: 0x168245, size: 0x8, addend: 0x0, symName: __RNvNtCsaLOjE9VYtxK_3std2rt7cleanup, symObjAddr: 0x30260, symBinAddr: 0x10022D9C0, symSize: 0x60 }
  - { offset: 0x16826A, size: 0x8, addend: 0x0, symName: __RNvNtCsaLOjE9VYtxK_3std2rt7cleanup, symObjAddr: 0x30260, symBinAddr: 0x10022D9C0, symSize: 0x60 }
  - { offset: 0x16827F, size: 0x8, addend: 0x0, symName: __RNvNtCsaLOjE9VYtxK_3std2rt7cleanup, symObjAddr: 0x30260, symBinAddr: 0x10022D9C0, symSize: 0x60 }
  - { offset: 0x168294, size: 0x8, addend: 0x0, symName: __RNvNtCsaLOjE9VYtxK_3std2rt7cleanup, symObjAddr: 0x30260, symBinAddr: 0x10022D9C0, symSize: 0x60 }
  - { offset: 0x168315, size: 0x8, addend: 0x0, symName: __RNCNCNvNtNtCsaLOjE9VYtxK_3std9backtrace6helper12lazy_resolve00B9_, symObjAddr: 0x13F70, symBinAddr: 0x100212A2C, symSize: 0x1D0 }
  - { offset: 0x1687C4, size: 0x8, addend: 0x0, symName: __RNCNvMs2_NtCsaLOjE9VYtxK_3std9backtraceNtB7_9Backtrace6create0B9_, symObjAddr: 0x14928, symBinAddr: 0x1002133E4, symSize: 0x140 }
  - { offset: 0x1689CA, size: 0x8, addend: 0x0, symName: __RNvXs4_NtCsaLOjE9VYtxK_3std9backtraceNtB5_9BacktraceNtNtCs6sq8b9ugfBC_4core3fmt7Display3fmt, symObjAddr: 0x42CE4, symBinAddr: 0x10023F6D4, symSize: 0x3E8 }
  - { offset: 0x16924B, size: 0x8, addend: 0x0, symName: __RNvMs2_NtCsaLOjE9VYtxK_3std9backtraceNtB5_9Backtrace13force_capture, symObjAddr: 0x1F6F0, symBinAddr: 0x10021D69C, symSize: 0x10 }
  - { offset: 0x169266, size: 0x8, addend: 0x0, symName: __RNvMs2_NtCsaLOjE9VYtxK_3std9backtraceNtB5_9Backtrace6create, symObjAddr: 0x1F700, symBinAddr: 0x10021D6AC, symSize: 0x16C }
  - { offset: 0x169653, size: 0x8, addend: 0x0, symName: __RNvMs2_NtCsaLOjE9VYtxK_3std9backtraceNtB5_9Backtrace7capture, symObjAddr: 0x1F86C, symBinAddr: 0x10021D818, symSize: 0x190 }
  - { offset: 0x1699FA, size: 0x8, addend: 0x0, symName: __RNvMs3_NtCsaLOjE9VYtxK_3std9backtraceNtB5_9Backtrace6frames, symObjAddr: 0x1FF6C, symBinAddr: 0x10021DA10, symSize: 0x84 }
  - { offset: 0x169AF9, size: 0x8, addend: 0x0, symName: __RNvXNtCsaLOjE9VYtxK_3std9backtraceNtB2_9BacktraceNtNtCs6sq8b9ugfBC_4core3fmt5Debug3fmt, symObjAddr: 0x3CB84, symBinAddr: 0x100239604, symSize: 0x1B8 }
  - { offset: 0x169D32, size: 0x8, addend: 0x0, symName: __RNvXs0_NtCsaLOjE9VYtxK_3std9backtraceNtB5_15BacktraceSymbolNtNtCs6sq8b9ugfBC_4core3fmt5Debug3fmt, symObjAddr: 0x3EA84, symBinAddr: 0x10023B4A4, symSize: 0x1C4 }
  - { offset: 0x169F92, size: 0x8, addend: 0x0, symName: __RNvXs1_NtCsaLOjE9VYtxK_3std9backtraceNtB5_11BytesOrWideNtNtCs6sq8b9ugfBC_4core3fmt5Debug3fmt, symObjAddr: 0x3FBA0, symBinAddr: 0x10023C590, symSize: 0xB4 }
  - { offset: 0x16A0DD, size: 0x8, addend: 0x0, symName: __RNvXs_NtCsaLOjE9VYtxK_3std9backtraceNtB4_14BacktraceFrameNtNtCs6sq8b9ugfBC_4core3fmt5Debug3fmt, symObjAddr: 0x4700C, symBinAddr: 0x1002439FC, symSize: 0x7C }
  - { offset: 0x16A156, size: 0x8, addend: 0x0, symName: __RNCNvNtCsaLOjE9VYtxK_3std5alloc8rust_oom0B5_, symObjAddr: 0x14AB8, symBinAddr: 0x10030D52C, symSize: 0x34 }
  - { offset: 0x16A1A6, size: 0x8, addend: 0x0, symName: __RNvCsGIExRX8pES_7___rustc11___rdl_alloc, symObjAddr: 0x15F44, symBinAddr: 0x1002147BC, symSize: 0x6C }
  - { offset: 0x16A229, size: 0x8, addend: 0x0, symName: __RNvCsGIExRX8pES_7___rustc13___rdl_dealloc, symObjAddr: 0x15FBC, symBinAddr: 0x100214828, symSize: 0x4 }
  - { offset: 0x16A248, size: 0x8, addend: 0x0, symName: __RNvCsGIExRX8pES_7___rustc13___rdl_dealloc, symObjAddr: 0x15FBC, symBinAddr: 0x100214828, symSize: 0x4 }
  - { offset: 0x16A25B, size: 0x8, addend: 0x0, symName: __RNvCsGIExRX8pES_7___rustc13___rdl_realloc, symObjAddr: 0x15FC0, symBinAddr: 0x10021482C, symSize: 0xB0 }
  - { offset: 0x16A339, size: 0x8, addend: 0x0, symName: __RNvCsGIExRX8pES_7___rustc18___rdl_alloc_zeroed, symObjAddr: 0x16164, symBinAddr: 0x1002149D0, symSize: 0x90 }
  - { offset: 0x16A3E6, size: 0x8, addend: 0x0, symName: __RNvCsGIExRX8pES_7___rustc26___rust_alloc_error_handler, symObjAddr: 0x162C8, symBinAddr: 0x10030D67C, symSize: 0x18 }
  - { offset: 0x16A451, size: 0x8, addend: 0x0, symName: __RNvNtCsaLOjE9VYtxK_3std5alloc20set_alloc_error_hook, symObjAddr: 0x3136C, symBinAddr: 0x10022EACC, symSize: 0x10 }
  - { offset: 0x16A470, size: 0x8, addend: 0x0, symName: __RNvNtCsaLOjE9VYtxK_3std5alloc20set_alloc_error_hook, symObjAddr: 0x3136C, symBinAddr: 0x10022EACC, symSize: 0x10 }
  - { offset: 0x16A486, size: 0x8, addend: 0x0, symName: __RNvNtCsaLOjE9VYtxK_3std5alloc20set_alloc_error_hook, symObjAddr: 0x3136C, symBinAddr: 0x10022EACC, symSize: 0x10 }
  - { offset: 0x16A49A, size: 0x8, addend: 0x0, symName: __RNvNtCsaLOjE9VYtxK_3std5alloc24default_alloc_error_hook, symObjAddr: 0x3137C, symBinAddr: 0x10022EADC, symSize: 0x108 }
  - { offset: 0x16A50F, size: 0x8, addend: 0x0, symName: __RNvNtCsaLOjE9VYtxK_3std5alloc8rust_oom, symObjAddr: 0x31484, symBinAddr: 0x10030E6D4, symSize: 0x18 }
  - { offset: 0x16A537, size: 0x8, addend: 0x0, symName: __RNvMNtCsaLOjE9VYtxK_3std4timeNtB2_7Instant11checked_add, symObjAddr: 0x16920, symBinAddr: 0x100215174, symSize: 0x70 }
  - { offset: 0x16A5FC, size: 0x8, addend: 0x0, symName: __RNvMNtCsaLOjE9VYtxK_3std4timeNtB2_7Instant11checked_sub, symObjAddr: 0x16990, symBinAddr: 0x1002151E4, symSize: 0x60 }
  - { offset: 0x16A6CF, size: 0x8, addend: 0x0, symName: __RNvMNtCsaLOjE9VYtxK_3std4timeNtB2_7Instant14duration_since, symObjAddr: 0x169F0, symBinAddr: 0x100215244, symSize: 0x4C }
  - { offset: 0x16A73D, size: 0x8, addend: 0x0, symName: __RNvMNtCsaLOjE9VYtxK_3std4timeNtB2_7Instant22checked_duration_since, symObjAddr: 0x16A3C, symBinAddr: 0x100215290, symSize: 0x50 }
  - { offset: 0x16A77E, size: 0x8, addend: 0x0, symName: __RNvMNtCsaLOjE9VYtxK_3std4timeNtB2_7Instant3now, symObjAddr: 0x16A8C, symBinAddr: 0x1002152E0, symSize: 0x8 }
  - { offset: 0x16A796, size: 0x8, addend: 0x0, symName: __RNvMNtCsaLOjE9VYtxK_3std4timeNtB2_7Instant3now, symObjAddr: 0x16A8C, symBinAddr: 0x1002152E0, symSize: 0x8 }
  - { offset: 0x16A7C5, size: 0x8, addend: 0x0, symName: __RNvMNtCsaLOjE9VYtxK_3std4timeNtB2_7Instant7elapsed, symObjAddr: 0x16A94, symBinAddr: 0x1002152E8, symSize: 0x6C }
  - { offset: 0x16A8CD, size: 0x8, addend: 0x0, symName: __RNvXs3_NtCsaLOjE9VYtxK_3std4timeNtB5_7InstantNtNtNtCs6sq8b9ugfBC_4core3ops5arith3Sub3sub, symObjAddr: 0x417E8, symBinAddr: 0x10023E1D8, symSize: 0x50 }
  - { offset: 0x16A959, size: 0x8, addend: 0x0, symName: __RNvMs5_NtCsaLOjE9VYtxK_3std4timeNtB5_10SystemTime14duration_since, symObjAddr: 0x2227C, symBinAddr: 0x10021FB68, symSize: 0x50 }
  - { offset: 0x16A9A8, size: 0x8, addend: 0x0, symName: __RNvMs5_NtCsaLOjE9VYtxK_3std4timeNtB5_10SystemTime14saturating_add, symObjAddr: 0x222CC, symBinAddr: 0x10021FBB8, symSize: 0x90 }
  - { offset: 0x16AAA7, size: 0x8, addend: 0x0, symName: __RNvMs5_NtCsaLOjE9VYtxK_3std4timeNtB5_10SystemTime14saturating_sub, symObjAddr: 0x2235C, symBinAddr: 0x10021FC48, symSize: 0x8C }
  - { offset: 0x16AB9E, size: 0x8, addend: 0x0, symName: __RNvMs5_NtCsaLOjE9VYtxK_3std4timeNtB5_10SystemTime25saturating_duration_since, symObjAddr: 0x223E8, symBinAddr: 0x10021FCD4, symSize: 0x4C }
  - { offset: 0x16AC13, size: 0x8, addend: 0x0, symName: __RNvMs5_NtCsaLOjE9VYtxK_3std4timeNtB5_10SystemTime3now, symObjAddr: 0x22434, symBinAddr: 0x10021FD20, symSize: 0x8 }
  - { offset: 0x16AC2B, size: 0x8, addend: 0x0, symName: __RNvMs5_NtCsaLOjE9VYtxK_3std4timeNtB5_10SystemTime3now, symObjAddr: 0x22434, symBinAddr: 0x10021FD20, symSize: 0x8 }
  - { offset: 0x16AC4C, size: 0x8, addend: 0x0, symName: __RNvMs5_NtCsaLOjE9VYtxK_3std4timeNtB5_10SystemTime7elapsed, symObjAddr: 0x2243C, symBinAddr: 0x10021FD28, symSize: 0x68 }
  - { offset: 0x16ACED, size: 0x8, addend: 0x0, symName: __RNvXs_NtCsaLOjE9VYtxK_3std4timeNtB4_7InstantINtNtNtCs6sq8b9ugfBC_4core3ops5arith3AddNtNtBN_4time8DurationE3add, symObjAddr: 0x46E40, symBinAddr: 0x100243830, symSize: 0x64 }
  - { offset: 0x16AD05, size: 0x8, addend: 0x0, symName: __RNvXs_NtCsaLOjE9VYtxK_3std4timeNtB4_7InstantINtNtNtCs6sq8b9ugfBC_4core3ops5arith3AddNtNtBN_4time8DurationE3add, symObjAddr: 0x46E40, symBinAddr: 0x100243830, symSize: 0x64 }
  - { offset: 0x16AD1B, size: 0x8, addend: 0x0, symName: __RNvXs_NtCsaLOjE9VYtxK_3std4timeNtB4_7InstantINtNtNtCs6sq8b9ugfBC_4core3ops5arith3AddNtNtBN_4time8DurationE3add, symObjAddr: 0x46E40, symBinAddr: 0x100243830, symSize: 0x64 }
  - { offset: 0x16AD31, size: 0x8, addend: 0x0, symName: __RNvXs_NtCsaLOjE9VYtxK_3std4timeNtB4_7InstantINtNtNtCs6sq8b9ugfBC_4core3ops5arith3AddNtNtBN_4time8DurationE3add, symObjAddr: 0x46E40, symBinAddr: 0x100243830, symSize: 0x64 }
  - { offset: 0x16AD46, size: 0x8, addend: 0x0, symName: __RNvXs_NtCsaLOjE9VYtxK_3std4timeNtB4_7InstantINtNtNtCs6sq8b9ugfBC_4core3ops5arith3AddNtNtBN_4time8DurationE3add, symObjAddr: 0x46E40, symBinAddr: 0x100243830, symSize: 0x64 }
  - { offset: 0x16AD5B, size: 0x8, addend: 0x0, symName: __RNvXs_NtCsaLOjE9VYtxK_3std4timeNtB4_7InstantINtNtNtCs6sq8b9ugfBC_4core3ops5arith3AddNtNtBN_4time8DurationE3add, symObjAddr: 0x46E40, symBinAddr: 0x100243830, symSize: 0x64 }
  - { offset: 0x16AD71, size: 0x8, addend: 0x0, symName: __RNvXs_NtCsaLOjE9VYtxK_3std4timeNtB4_7InstantINtNtNtCs6sq8b9ugfBC_4core3ops5arith3AddNtNtBN_4time8DurationE3add, symObjAddr: 0x46E40, symBinAddr: 0x100243830, symSize: 0x64 }
  - { offset: 0x16ADFE, size: 0x8, addend: 0x0, symName: __RNvXs0_NtCsaLOjE9VYtxK_3std4timeNtB5_7InstantINtNtNtCs6sq8b9ugfBC_4core3ops5arith9AddAssignNtNtBO_4time8DurationE10add_assign, symObjAddr: 0x3EA10, symBinAddr: 0x10023B430, symSize: 0x74 }
  - { offset: 0x16AF0D, size: 0x8, addend: 0x0, symName: __RNvXs1_NtCsaLOjE9VYtxK_3std4timeNtB5_7InstantINtNtNtCs6sq8b9ugfBC_4core3ops5arith3SubNtNtBO_4time8DurationE3sub, symObjAddr: 0x3FAE4, symBinAddr: 0x10023C4D4, symSize: 0x5C }
  - { offset: 0x16AF4E, size: 0x8, addend: 0x0, symName: __RNvXs1_NtCsaLOjE9VYtxK_3std4timeNtB5_7InstantINtNtNtCs6sq8b9ugfBC_4core3ops5arith3SubNtNtBO_4time8DurationE3sub, symObjAddr: 0x3FAE4, symBinAddr: 0x10023C4D4, symSize: 0x5C }
  - { offset: 0x16AF63, size: 0x8, addend: 0x0, symName: __RNvXs1_NtCsaLOjE9VYtxK_3std4timeNtB5_7InstantINtNtNtCs6sq8b9ugfBC_4core3ops5arith3SubNtNtBO_4time8DurationE3sub, symObjAddr: 0x3FAE4, symBinAddr: 0x10023C4D4, symSize: 0x5C }
  - { offset: 0x16AF79, size: 0x8, addend: 0x0, symName: __RNvXs1_NtCsaLOjE9VYtxK_3std4timeNtB5_7InstantINtNtNtCs6sq8b9ugfBC_4core3ops5arith3SubNtNtBO_4time8DurationE3sub, symObjAddr: 0x3FAE4, symBinAddr: 0x10023C4D4, symSize: 0x5C }
  - { offset: 0x16B014, size: 0x8, addend: 0x0, symName: __RNvXs2_NtCsaLOjE9VYtxK_3std4timeNtB5_7InstantINtNtNtCs6sq8b9ugfBC_4core3ops5arith9SubAssignNtNtBO_4time8DurationE10sub_assign, symObjAddr: 0x411C0, symBinAddr: 0x10023DBB0, symSize: 0x74 }
  - { offset: 0x16B123, size: 0x8, addend: 0x0, symName: __RNvXs4_NtCsaLOjE9VYtxK_3std4timeNtB5_7InstantNtNtCs6sq8b9ugfBC_4core3fmt5Debug3fmt, symObjAddr: 0x42BB4, symBinAddr: 0x10023F5A4, symSize: 0x80 }
  - { offset: 0x16B15C, size: 0x8, addend: 0x0, symName: __RNvXs6_NtCsaLOjE9VYtxK_3std4timeNtB5_10SystemTimeINtNtNtCs6sq8b9ugfBC_4core3ops5arith3AddNtNtBS_4time8DurationE3add, symObjAddr: 0x44344, symBinAddr: 0x100240D34, symSize: 0x64 }
  - { offset: 0x16B174, size: 0x8, addend: 0x0, symName: __RNvXs6_NtCsaLOjE9VYtxK_3std4timeNtB5_10SystemTimeINtNtNtCs6sq8b9ugfBC_4core3ops5arith3AddNtNtBS_4time8DurationE3add, symObjAddr: 0x44344, symBinAddr: 0x100240D34, symSize: 0x64 }
  - { offset: 0x16B18A, size: 0x8, addend: 0x0, symName: __RNvXs6_NtCsaLOjE9VYtxK_3std4timeNtB5_10SystemTimeINtNtNtCs6sq8b9ugfBC_4core3ops5arith3AddNtNtBS_4time8DurationE3add, symObjAddr: 0x44344, symBinAddr: 0x100240D34, symSize: 0x64 }
  - { offset: 0x16B1A0, size: 0x8, addend: 0x0, symName: __RNvXs6_NtCsaLOjE9VYtxK_3std4timeNtB5_10SystemTimeINtNtNtCs6sq8b9ugfBC_4core3ops5arith3AddNtNtBS_4time8DurationE3add, symObjAddr: 0x44344, symBinAddr: 0x100240D34, symSize: 0x64 }
  - { offset: 0x16B1B5, size: 0x8, addend: 0x0, symName: __RNvXs6_NtCsaLOjE9VYtxK_3std4timeNtB5_10SystemTimeINtNtNtCs6sq8b9ugfBC_4core3ops5arith3AddNtNtBS_4time8DurationE3add, symObjAddr: 0x44344, symBinAddr: 0x100240D34, symSize: 0x64 }
  - { offset: 0x16B1CA, size: 0x8, addend: 0x0, symName: __RNvXs6_NtCsaLOjE9VYtxK_3std4timeNtB5_10SystemTimeINtNtNtCs6sq8b9ugfBC_4core3ops5arith3AddNtNtBS_4time8DurationE3add, symObjAddr: 0x44344, symBinAddr: 0x100240D34, symSize: 0x64 }
  - { offset: 0x16B1E0, size: 0x8, addend: 0x0, symName: __RNvXs6_NtCsaLOjE9VYtxK_3std4timeNtB5_10SystemTimeINtNtNtCs6sq8b9ugfBC_4core3ops5arith3AddNtNtBS_4time8DurationE3add, symObjAddr: 0x44344, symBinAddr: 0x100240D34, symSize: 0x64 }
  - { offset: 0x16B27B, size: 0x8, addend: 0x0, symName: __RNvXs7_NtCsaLOjE9VYtxK_3std4timeNtB5_10SystemTimeINtNtNtCs6sq8b9ugfBC_4core3ops5arith9AddAssignNtNtBS_4time8DurationE10add_assign, symObjAddr: 0x454A0, symBinAddr: 0x100241E90, symSize: 0x74 }
  - { offset: 0x16B38A, size: 0x8, addend: 0x0, symName: __RNvXs8_NtCsaLOjE9VYtxK_3std4timeNtB5_10SystemTimeINtNtNtCs6sq8b9ugfBC_4core3ops5arith3SubNtNtBS_4time8DurationE3sub, symObjAddr: 0x45B08, symBinAddr: 0x1002424F8, symSize: 0x5C }
  - { offset: 0x16B3CB, size: 0x8, addend: 0x0, symName: __RNvXs8_NtCsaLOjE9VYtxK_3std4timeNtB5_10SystemTimeINtNtNtCs6sq8b9ugfBC_4core3ops5arith3SubNtNtBS_4time8DurationE3sub, symObjAddr: 0x45B08, symBinAddr: 0x1002424F8, symSize: 0x5C }
  - { offset: 0x16B3E0, size: 0x8, addend: 0x0, symName: __RNvXs8_NtCsaLOjE9VYtxK_3std4timeNtB5_10SystemTimeINtNtNtCs6sq8b9ugfBC_4core3ops5arith3SubNtNtBS_4time8DurationE3sub, symObjAddr: 0x45B08, symBinAddr: 0x1002424F8, symSize: 0x5C }
  - { offset: 0x16B3F6, size: 0x8, addend: 0x0, symName: __RNvXs8_NtCsaLOjE9VYtxK_3std4timeNtB5_10SystemTimeINtNtNtCs6sq8b9ugfBC_4core3ops5arith3SubNtNtBS_4time8DurationE3sub, symObjAddr: 0x45B08, symBinAddr: 0x1002424F8, symSize: 0x5C }
  - { offset: 0x16B491, size: 0x8, addend: 0x0, symName: __RNvXs9_NtCsaLOjE9VYtxK_3std4timeNtB5_10SystemTimeINtNtNtCs6sq8b9ugfBC_4core3ops5arith9SubAssignNtNtBS_4time8DurationE10sub_assign, symObjAddr: 0x45E44, symBinAddr: 0x100242834, symSize: 0x74 }
  - { offset: 0x16B5A0, size: 0x8, addend: 0x0, symName: __RNvXsa_NtCsaLOjE9VYtxK_3std4timeNtB5_10SystemTimeNtNtCs6sq8b9ugfBC_4core3fmt5Debug3fmt, symObjAddr: 0x49044, symBinAddr: 0x100245A34, symSize: 0x80 }
  - { offset: 0x16B5D9, size: 0x8, addend: 0x0, symName: __RNvXsd_NtCsaLOjE9VYtxK_3std4timeNtB5_15SystemTimeErrorNtNtCs6sq8b9ugfBC_4core3fmt7Display3fmt, symObjAddr: 0x49A0C, symBinAddr: 0x1002463FC, symSize: 0x18 }
  - { offset: 0x16B5F8, size: 0x8, addend: 0x0, symName: __RNvXsd_NtCsaLOjE9VYtxK_3std4timeNtB5_15SystemTimeErrorNtNtCs6sq8b9ugfBC_4core3fmt7Display3fmt, symObjAddr: 0x49A0C, symBinAddr: 0x1002463FC, symSize: 0x18 }
  - { offset: 0x16B620, size: 0x8, addend: 0x0, symName: __RNvMNtNtCsaLOjE9VYtxK_3std3net3tcpNtB2_9TcpStream10local_addr, symObjAddr: 0x16B00, symBinAddr: 0x100215354, symSize: 0xC }
  - { offset: 0x16B63A, size: 0x8, addend: 0x0, symName: __RNvMNtNtCsaLOjE9VYtxK_3std3net3tcpNtB2_9TcpStream10set_linger, symObjAddr: 0x16B0C, symBinAddr: 0x100215360, symSize: 0x74 }
  - { offset: 0x16B75B, size: 0x8, addend: 0x0, symName: __RNvMNtNtCsaLOjE9VYtxK_3std3net3tcpNtB2_9TcpStream10take_error, symObjAddr: 0x16B80, symBinAddr: 0x1002153D4, symSize: 0x74 }
  - { offset: 0x16B85E, size: 0x8, addend: 0x0, symName: __RNvMNtNtCsaLOjE9VYtxK_3std3net3tcpNtB2_9TcpStream11set_nodelay, symObjAddr: 0x16BF4, symBinAddr: 0x100215448, symSize: 0x54 }
  - { offset: 0x16B92E, size: 0x8, addend: 0x0, symName: __RNvMNtNtCsaLOjE9VYtxK_3std3net3tcpNtB2_9TcpStream12read_timeout, symObjAddr: 0x16C48, symBinAddr: 0x10021549C, symSize: 0xE0 }
  - { offset: 0x16BA5B, size: 0x8, addend: 0x0, symName: __RNvMNtNtCsaLOjE9VYtxK_3std3net3tcpNtB2_9TcpStream13write_timeout, symObjAddr: 0x16D28, symBinAddr: 0x10021557C, symSize: 0xE0 }
  - { offset: 0x16BB88, size: 0x8, addend: 0x0, symName: __RNvMNtNtCsaLOjE9VYtxK_3std3net3tcpNtB2_9TcpStream15connect_timeout, symObjAddr: 0x16E08, symBinAddr: 0x10021565C, symSize: 0x420 }
  - { offset: 0x16C22C, size: 0x8, addend: 0x0, symName: __RNvMNtNtCsaLOjE9VYtxK_3std3net3tcpNtB2_9TcpStream15set_nonblocking, symObjAddr: 0x17228, symBinAddr: 0x100215A7C, symSize: 0x54 }
  - { offset: 0x16C2E6, size: 0x8, addend: 0x0, symName: __RNvMNtNtCsaLOjE9VYtxK_3std3net3tcpNtB2_9TcpStream16set_read_timeout, symObjAddr: 0x1727C, symBinAddr: 0x100215AD0, symSize: 0xC0 }
  - { offset: 0x16C3C4, size: 0x8, addend: 0x0, symName: __RNvMNtNtCsaLOjE9VYtxK_3std3net3tcpNtB2_9TcpStream17set_write_timeout, symObjAddr: 0x1733C, symBinAddr: 0x100215B90, symSize: 0xC0 }
  - { offset: 0x16C4A2, size: 0x8, addend: 0x0, symName: __RNvMNtNtCsaLOjE9VYtxK_3std3net3tcpNtB2_9TcpStream3ttl, symObjAddr: 0x173FC, symBinAddr: 0x100215C50, symSize: 0x78 }
  - { offset: 0x16C578, size: 0x8, addend: 0x0, symName: __RNvMNtNtCsaLOjE9VYtxK_3std3net3tcpNtB2_9TcpStream4peek, symObjAddr: 0x17474, symBinAddr: 0x100215CC8, symSize: 0x44 }
  - { offset: 0x16C649, size: 0x8, addend: 0x0, symName: __RNvMNtNtCsaLOjE9VYtxK_3std3net3tcpNtB2_9TcpStream6linger, symObjAddr: 0x174B8, symBinAddr: 0x100215D0C, symSize: 0x88 }
  - { offset: 0x16C735, size: 0x8, addend: 0x0, symName: __RNvMNtNtCsaLOjE9VYtxK_3std3net3tcpNtB2_9TcpStream7nodelay, symObjAddr: 0x17540, symBinAddr: 0x100215D94, symSize: 0x80 }
  - { offset: 0x16C822, size: 0x8, addend: 0x0, symName: __RNvMNtNtCsaLOjE9VYtxK_3std3net3tcpNtB2_9TcpStream7set_ttl, symObjAddr: 0x175C0, symBinAddr: 0x100215E14, symSize: 0x54 }
  - { offset: 0x16C8DB, size: 0x8, addend: 0x0, symName: __RNvMNtNtCsaLOjE9VYtxK_3std3net3tcpNtB2_9TcpStream8shutdown, symObjAddr: 0x17614, symBinAddr: 0x100215E68, symSize: 0x3C }
  - { offset: 0x16C993, size: 0x8, addend: 0x0, symName: __RNvMNtNtCsaLOjE9VYtxK_3std3net3tcpNtB2_9TcpStream9peer_addr, symObjAddr: 0x17650, symBinAddr: 0x100215EA4, symSize: 0xC }
  - { offset: 0x16C9AD, size: 0x8, addend: 0x0, symName: __RNvMNtNtCsaLOjE9VYtxK_3std3net3tcpNtB2_9TcpStream9try_clone, symObjAddr: 0x1765C, symBinAddr: 0x100215EB0, symSize: 0x68 }
  - { offset: 0x16CA8F, size: 0x8, addend: 0x0, symName: __RNvMs7_NtNtCsaLOjE9VYtxK_3std3net3tcpNtB5_11TcpListener11set_only_v6, symObjAddr: 0x229CC, symBinAddr: 0x1002202B8, symSize: 0x54 }
  - { offset: 0x16CB48, size: 0x8, addend: 0x0, symName: __RNvMs7_NtNtCsaLOjE9VYtxK_3std3net3tcpNtB5_11TcpListener6accept, symObjAddr: 0x22A20, symBinAddr: 0x10022030C, symSize: 0x1CC }
  - { offset: 0x16CE18, size: 0x8, addend: 0x0, symName: __RNvMs7_NtNtCsaLOjE9VYtxK_3std3net3tcpNtB5_11TcpListener7only_v6, symObjAddr: 0x22BEC, symBinAddr: 0x1002204D8, symSize: 0x80 }
  - { offset: 0x16CEF5, size: 0x8, addend: 0x0, symName: __RNvXs0_NtNtCsaLOjE9VYtxK_3std3net3tcpNtB5_9TcpStreamNtNtB9_2io5Write14write_vectored, symObjAddr: 0x3F150, symBinAddr: 0x10023BB70, symSize: 0x54 }
  - { offset: 0x16D00F, size: 0x8, addend: 0x0, symName: __RNvXs1_NtNtCsaLOjE9VYtxK_3std3net3tcpRNtB5_9TcpStreamNtNtB9_2io4Read13read_vectored, symObjAddr: 0x3FC54, symBinAddr: 0x10023C644, symSize: 0x58 }
  - { offset: 0x16D120, size: 0x8, addend: 0x0, symName: __RNvXs1_NtNtCsaLOjE9VYtxK_3std3net3tcpRNtB5_9TcpStreamNtNtB9_2io4Read4read, symObjAddr: 0x3FCAC, symBinAddr: 0x10023C69C, symSize: 0x48 }
  - { offset: 0x16D1F1, size: 0x8, addend: 0x0, symName: __RNvXs1_NtNtCsaLOjE9VYtxK_3std3net3tcpRNtB5_9TcpStreamNtNtB9_2io4Read8read_buf, symObjAddr: 0x3FCF4, symBinAddr: 0x10023C6E4, symSize: 0x68 }
  - { offset: 0x16D357, size: 0x8, addend: 0x0, symName: __RNvXs2_NtNtCsaLOjE9VYtxK_3std3net3tcpRNtB5_9TcpStreamNtNtB9_2io5Write14write_vectored, symObjAddr: 0x4140C, symBinAddr: 0x10023DDFC, symSize: 0x58 }
  - { offset: 0x16D46A, size: 0x8, addend: 0x0, symName: __RNvXs2_NtNtCsaLOjE9VYtxK_3std3net3tcpRNtB5_9TcpStreamNtNtB9_2io5Write5write, symObjAddr: 0x41464, symBinAddr: 0x10023DE54, symSize: 0x50 }
  - { offset: 0x16D529, size: 0x8, addend: 0x0, symName: __RNvXs6_NtNtCsaLOjE9VYtxK_3std3net3tcpNtB5_9TcpStreamNtNtCs6sq8b9ugfBC_4core3fmt5Debug3fmt, symObjAddr: 0x44928, symBinAddr: 0x100241318, symSize: 0x4 }
  - { offset: 0x16D54B, size: 0x8, addend: 0x0, symName: __RNvXs8_NtNtCsaLOjE9VYtxK_3std3net3tcpNtB5_8IncomingNtNtNtNtCs6sq8b9ugfBC_4core4iter6traits8iterator8Iterator4next, symObjAddr: 0x45C54, symBinAddr: 0x100242644, symSize: 0x40 }
  - { offset: 0x16D584, size: 0x8, addend: 0x0, symName: __RNvXs_NtNtCsaLOjE9VYtxK_3std3net3tcpNtB4_9TcpStreamNtNtB8_2io4Read13read_vectored, symObjAddr: 0x476E0, symBinAddr: 0x1002440D0, symSize: 0x54 }
  - { offset: 0x16D695, size: 0x8, addend: 0x0, symName: __RNvXs_NtNtCsaLOjE9VYtxK_3std3net3tcpNtB4_9TcpStreamNtNtB8_2io4Read8read_buf, symObjAddr: 0x47734, symBinAddr: 0x100244124, symSize: 0x64 }
  - { offset: 0x16D7FB, size: 0x8, addend: 0x0, symName: __RNvXsa_NtNtCsaLOjE9VYtxK_3std3net3tcpNtB5_12IntoIncomingNtNtNtNtCs6sq8b9ugfBC_4core4iter6traits8iterator8Iterator4next, symObjAddr: 0x490C4, symBinAddr: 0x100245AB4, symSize: 0x3C }
  - { offset: 0x16D834, size: 0x8, addend: 0x0, symName: __RNvXsf_NtNtCsaLOjE9VYtxK_3std3net3tcpNtB5_11TcpListenerNtNtCs6sq8b9ugfBC_4core3fmt5Debug3fmt, symObjAddr: 0x4A2F0, symBinAddr: 0x100246CE0, symSize: 0x4 }
  - { offset: 0x16D85D, size: 0x8, addend: 0x0, symName: __RNvMNtNtCsaLOjE9VYtxK_3std3net3udpNtB2_9UdpSocket13set_broadcast, symObjAddr: 0x176C4, symBinAddr: 0x100215F18, symSize: 0x54 }
  - { offset: 0x16D916, size: 0x8, addend: 0x0, symName: __RNvMNtNtCsaLOjE9VYtxK_3std3net3udpNtB2_9UdpSocket16multicast_ttl_v4, symObjAddr: 0x17718, symBinAddr: 0x100215F6C, symSize: 0x78 }
  - { offset: 0x16D9EC, size: 0x8, addend: 0x0, symName: __RNvMNtNtCsaLOjE9VYtxK_3std3net3udpNtB2_9UdpSocket17join_multicast_v4, symObjAddr: 0x17790, symBinAddr: 0x100215FE4, symSize: 0x60 }
  - { offset: 0x16DAA5, size: 0x8, addend: 0x0, symName: __RNvMNtNtCsaLOjE9VYtxK_3std3net3udpNtB2_9UdpSocket17join_multicast_v6, symObjAddr: 0x177F0, symBinAddr: 0x100216044, symSize: 0x5C }
  - { offset: 0x16DB74, size: 0x8, addend: 0x0, symName: __RNvMNtNtCsaLOjE9VYtxK_3std3net3udpNtB2_9UdpSocket17multicast_loop_v4, symObjAddr: 0x1784C, symBinAddr: 0x1002160A0, symSize: 0x80 }
  - { offset: 0x16DC4A, size: 0x8, addend: 0x0, symName: __RNvMNtNtCsaLOjE9VYtxK_3std3net3udpNtB2_9UdpSocket17multicast_loop_v6, symObjAddr: 0x178CC, symBinAddr: 0x100216120, symSize: 0x80 }
  - { offset: 0x16DD20, size: 0x8, addend: 0x0, symName: __RNvMNtNtCsaLOjE9VYtxK_3std3net3udpNtB2_9UdpSocket18leave_multicast_v4, symObjAddr: 0x1794C, symBinAddr: 0x1002161A0, symSize: 0x60 }
  - { offset: 0x16DDD9, size: 0x8, addend: 0x0, symName: __RNvMNtNtCsaLOjE9VYtxK_3std3net3udpNtB2_9UdpSocket18leave_multicast_v6, symObjAddr: 0x179AC, symBinAddr: 0x100216200, symSize: 0x5C }
  - { offset: 0x16DEA8, size: 0x8, addend: 0x0, symName: __RNvMNtNtCsaLOjE9VYtxK_3std3net3udpNtB2_9UdpSocket20set_multicast_ttl_v4, symObjAddr: 0x17A08, symBinAddr: 0x10021625C, symSize: 0x54 }
  - { offset: 0x16DF61, size: 0x8, addend: 0x0, symName: __RNvMNtNtCsaLOjE9VYtxK_3std3net3udpNtB2_9UdpSocket21set_multicast_loop_v4, symObjAddr: 0x17A5C, symBinAddr: 0x1002162B0, symSize: 0x54 }
  - { offset: 0x16E01A, size: 0x8, addend: 0x0, symName: __RNvMNtNtCsaLOjE9VYtxK_3std3net3udpNtB2_9UdpSocket21set_multicast_loop_v6, symObjAddr: 0x17AB0, symBinAddr: 0x100216304, symSize: 0x54 }
  - { offset: 0x16E0D3, size: 0x8, addend: 0x0, symName: __RNvMNtNtCsaLOjE9VYtxK_3std3net3udpNtB2_9UdpSocket4recv, symObjAddr: 0x17B04, symBinAddr: 0x100216358, symSize: 0x44 }
  - { offset: 0x16E1A4, size: 0x8, addend: 0x0, symName: __RNvMNtNtCsaLOjE9VYtxK_3std3net3udpNtB2_9UdpSocket4send, symObjAddr: 0x17B48, symBinAddr: 0x10021639C, symSize: 0x4C }
  - { offset: 0x16E25C, size: 0x8, addend: 0x0, symName: __RNvMNtNtCsaLOjE9VYtxK_3std3net3udpNtB2_9UdpSocket9broadcast, symObjAddr: 0x17B94, symBinAddr: 0x1002163E8, symSize: 0x80 }
  - { offset: 0x16E332, size: 0x8, addend: 0x0, symName: __RNvMNtNtCsaLOjE9VYtxK_3std3net3udpNtB2_9UdpSocket9peek_from, symObjAddr: 0x17C14, symBinAddr: 0x100216468, symSize: 0x18 }
  - { offset: 0x16E379, size: 0x8, addend: 0x0, symName: __RNvMNtNtCsaLOjE9VYtxK_3std3net3udpNtB2_9UdpSocket9peer_addr, symObjAddr: 0x17C2C, symBinAddr: 0x100216480, symSize: 0x144 }
  - { offset: 0x16E51E, size: 0x8, addend: 0x0, symName: __RNvMNtNtCsaLOjE9VYtxK_3std3net3udpNtB2_9UdpSocket9recv_from, symObjAddr: 0x17D70, symBinAddr: 0x1002165C4, symSize: 0x18 }
  - { offset: 0x16E56C, size: 0x8, addend: 0x0, symName: __RNvXs2_NtNtCsaLOjE9VYtxK_3std3net3udpNtB5_9UdpSocketNtNtCs6sq8b9ugfBC_4core3fmt5Debug3fmt, symObjAddr: 0x414B4, symBinAddr: 0x10023DEA4, symSize: 0x4 }
  - { offset: 0x16E58F, size: 0x8, addend: 0x0, symName: __RNvNtNtCsaLOjE9VYtxK_3std3net8hostname8hostname, symObjAddr: 0x3246C, symBinAddr: 0x10022FAE0, symSize: 0x14C }
  - { offset: 0x16E8D6, size: 0x8, addend: 0x0, symName: __RNvXs4_NtNtCsaLOjE9VYtxK_3std3net11socket_addrTRetENtB5_13ToSocketAddrs15to_socket_addrs, symObjAddr: 0x43844, symBinAddr: 0x100240234, symSize: 0x1BC }
  - { offset: 0x16EAE5, size: 0x8, addend: 0x0, symName: __RNvXs5_NtNtCsaLOjE9VYtxK_3std3net11socket_addrTNtNtCs8dnTdrJsiec_5alloc6string6StringtENtB5_13ToSocketAddrs15to_socket_addrs, symObjAddr: 0x441F4, symBinAddr: 0x100240BE4, symSize: 0x30 }
  - { offset: 0x16EBBD, size: 0x8, addend: 0x0, symName: __RNvXs6_NtNtCsaLOjE9VYtxK_3std3net11socket_addreNtB5_13ToSocketAddrs15to_socket_addrs, symObjAddr: 0x4466C, symBinAddr: 0x10024105C, symSize: 0x2BC }
  - { offset: 0x16F011, size: 0x8, addend: 0x0, symName: __RNvXs9_NtNtCsaLOjE9VYtxK_3std3net11socket_addrNtNtCs8dnTdrJsiec_5alloc6string6StringNtB5_13ToSocketAddrs15to_socket_addrs, symObjAddr: 0x462FC, symBinAddr: 0x100242CEC, symSize: 0xC }
  - { offset: 0x16F030, size: 0x8, addend: 0x0, symName: __RNvXs9_NtNtCsaLOjE9VYtxK_3std3net11socket_addrNtNtCs8dnTdrJsiec_5alloc6string6StringNtB5_13ToSocketAddrs15to_socket_addrs, symObjAddr: 0x462FC, symBinAddr: 0x100242CEC, symSize: 0xC }
  - { offset: 0x16F046, size: 0x8, addend: 0x0, symName: __RNvXs9_NtNtCsaLOjE9VYtxK_3std3net11socket_addrNtNtCs8dnTdrJsiec_5alloc6string6StringNtB5_13ToSocketAddrs15to_socket_addrs, symObjAddr: 0x462FC, symBinAddr: 0x100242CEC, symSize: 0xC }
  - { offset: 0x16F05C, size: 0x8, addend: 0x0, symName: __RNvXs9_NtNtCsaLOjE9VYtxK_3std3net11socket_addrNtNtCs8dnTdrJsiec_5alloc6string6StringNtB5_13ToSocketAddrs15to_socket_addrs, symObjAddr: 0x462FC, symBinAddr: 0x100242CEC, symSize: 0xC }
  - { offset: 0x16F072, size: 0x8, addend: 0x0, symName: __RNvXs9_NtNtCsaLOjE9VYtxK_3std3net11socket_addrNtNtCs8dnTdrJsiec_5alloc6string6StringNtB5_13ToSocketAddrs15to_socket_addrs, symObjAddr: 0x462FC, symBinAddr: 0x100242CEC, symSize: 0xC }
  - { offset: 0x16F088, size: 0x8, addend: 0x0, symName: __RNvXs9_NtNtCsaLOjE9VYtxK_3std3net11socket_addrNtNtCs8dnTdrJsiec_5alloc6string6StringNtB5_13ToSocketAddrs15to_socket_addrs, symObjAddr: 0x462FC, symBinAddr: 0x100242CEC, symSize: 0xC }
  - { offset: 0x16F09E, size: 0x8, addend: 0x0, symName: __RNvXs9_NtNtCsaLOjE9VYtxK_3std3net11socket_addrNtNtCs8dnTdrJsiec_5alloc6string6StringNtB5_13ToSocketAddrs15to_socket_addrs, symObjAddr: 0x462FC, symBinAddr: 0x100242CEC, symSize: 0xC }
  - { offset: 0x16F0B4, size: 0x8, addend: 0x0, symName: __RNvXs9_NtNtCsaLOjE9VYtxK_3std3net11socket_addrNtNtCs8dnTdrJsiec_5alloc6string6StringNtB5_13ToSocketAddrs15to_socket_addrs, symObjAddr: 0x462FC, symBinAddr: 0x100242CEC, symSize: 0xC }
  - { offset: 0x16F10E, size: 0x8, addend: 0x0, symName: __RNvNtCsaLOjE9VYtxK_3std5panic13resume_unwind, symObjAddr: 0x3149C, symBinAddr: 0x10030E6EC, symSize: 0xC }
  - { offset: 0x16F14C, size: 0x8, addend: 0x0, symName: __RNvNtCsaLOjE9VYtxK_3std5panic19get_backtrace_style, symObjAddr: 0x314A8, symBinAddr: 0x10022EBE4, symSize: 0x1A0 }
  - { offset: 0x16F16B, size: 0x8, addend: 0x0, symName: __RNvNtCsaLOjE9VYtxK_3std5panic19get_backtrace_style, symObjAddr: 0x314A8, symBinAddr: 0x10022EBE4, symSize: 0x1A0 }
  - { offset: 0x16F181, size: 0x8, addend: 0x0, symName: __RNvNtCsaLOjE9VYtxK_3std5panic19get_backtrace_style, symObjAddr: 0x314A8, symBinAddr: 0x10022EBE4, symSize: 0x1A0 }
  - { offset: 0x16F6CF, size: 0x8, addend: 0x0, symName: __RNvNtCsaLOjE9VYtxK_3std5panic19set_backtrace_style, symObjAddr: 0x31648, symBinAddr: 0x10022ED84, symSize: 0x10 }
  - { offset: 0x16F6EE, size: 0x8, addend: 0x0, symName: __RNvNtCsaLOjE9VYtxK_3std5panic19set_backtrace_style, symObjAddr: 0x31648, symBinAddr: 0x10022ED84, symSize: 0x10 }
  - { offset: 0x16F78A, size: 0x8, addend: 0x0, symName: __RNvXs_NtCsaLOjE9VYtxK_3std5panicNtB4_13PanicHookInfoNtNtCs6sq8b9ugfBC_4core3fmt7Display3fmt, symObjAddr: 0x46EA4, symBinAddr: 0x100243894, symSize: 0x168 }
  - { offset: 0x16FA0E, size: 0x8, addend: 0x0, symName: __RNvXs0_NtCsaLOjE9VYtxK_3std3envNtB5_6VarsOsNtNtNtNtCs6sq8b9ugfBC_4core4iter6traits8iterator8Iterator4next, symObjAddr: 0x3E9AC, symBinAddr: 0x10023B3CC, symSize: 0x38 }
  - { offset: 0x16FA98, size: 0x8, addend: 0x0, symName: __RNvXs0_NtCsaLOjE9VYtxK_3std3envNtB5_6VarsOsNtNtNtNtCs6sq8b9ugfBC_4core4iter6traits8iterator8Iterator9size_hint, symObjAddr: 0x3E9E4, symBinAddr: 0x10023B404, symSize: 0x2C }
  - { offset: 0x16FAB0, size: 0x8, addend: 0x0, symName: __RNvXs0_NtCsaLOjE9VYtxK_3std3envNtB5_6VarsOsNtNtNtNtCs6sq8b9ugfBC_4core4iter6traits8iterator8Iterator9size_hint, symObjAddr: 0x3E9E4, symBinAddr: 0x10023B404, symSize: 0x2C }
  - { offset: 0x16FB1E, size: 0x8, addend: 0x0, symName: __RNvNtCsaLOjE9VYtxK_3std3env11current_dir, symObjAddr: 0x302C0, symBinAddr: 0x10022DA20, symSize: 0x198 }
  - { offset: 0x16FFBC, size: 0x8, addend: 0x0, symName: __RNvNtCsaLOjE9VYtxK_3std3env11current_exe, symObjAddr: 0x30458, symBinAddr: 0x10022DBB8, symSize: 0xCC }
  - { offset: 0x170219, size: 0x8, addend: 0x0, symName: __RNvNtCsaLOjE9VYtxK_3std3env4__var, symObjAddr: 0x30524, symBinAddr: 0x10022DC84, symSize: 0x144 }
  - { offset: 0x170404, size: 0x8, addend: 0x0, symName: __RNvNtCsaLOjE9VYtxK_3std3env4args, symObjAddr: 0x30668, symBinAddr: 0x10022DDC8, symSize: 0x4 }
  - { offset: 0x17041F, size: 0x8, addend: 0x0, symName: __RNvNtCsaLOjE9VYtxK_3std3env4vars, symObjAddr: 0x3066C, symBinAddr: 0x10022DDCC, symSize: 0x4 }
  - { offset: 0x170439, size: 0x8, addend: 0x0, symName: __RNvNtCsaLOjE9VYtxK_3std3env7__var_os, symObjAddr: 0x30670, symBinAddr: 0x10022DDD0, symSize: 0xF0 }
  - { offset: 0x1704FB, size: 0x8, addend: 0x0, symName: __RNvNtCsaLOjE9VYtxK_3std3env7args_os, symObjAddr: 0x30760, symBinAddr: 0x10022DEC0, symSize: 0x1A4 }
  - { offset: 0x170A17, size: 0x8, addend: 0x0, symName: __RNvNtCsaLOjE9VYtxK_3std3env7vars_os, symObjAddr: 0x30904, symBinAddr: 0x10022E064, symSize: 0x338 }
  - { offset: 0x171070, size: 0x8, addend: 0x0, symName: __RNvNtCsaLOjE9VYtxK_3std3env8home_dir, symObjAddr: 0x30C3C, symBinAddr: 0x10022E39C, symSize: 0x200 }
  - { offset: 0x17162A, size: 0x8, addend: 0x0, symName: __RNvNtCsaLOjE9VYtxK_3std3env8temp_dir, symObjAddr: 0x30E3C, symBinAddr: 0x10022E59C, symSize: 0x234 }
  - { offset: 0x171BB6, size: 0x8, addend: 0x0, symName: __RNvXNtCsaLOjE9VYtxK_3std3envNtB2_4VarsNtNtNtNtCs6sq8b9ugfBC_4core4iter6traits8iterator8Iterator4next, symObjAddr: 0x3C94C, symBinAddr: 0x1002393CC, symSize: 0x1B8 }
  - { offset: 0x172203, size: 0x8, addend: 0x0, symName: __RNvXNtCsaLOjE9VYtxK_3std3envNtB2_4VarsNtNtNtNtCs6sq8b9ugfBC_4core4iter6traits8iterator8Iterator9size_hint, symObjAddr: 0x3CB04, symBinAddr: 0x100239584, symSize: 0x2C }
  - { offset: 0x172221, size: 0x8, addend: 0x0, symName: __RNvXNtCsaLOjE9VYtxK_3std3envNtB2_4VarsNtNtNtNtCs6sq8b9ugfBC_4core4iter6traits8iterator8Iterator9size_hint, symObjAddr: 0x3CB04, symBinAddr: 0x100239584, symSize: 0x2C }
  - { offset: 0x172236, size: 0x8, addend: 0x0, symName: __RNvXNtCsaLOjE9VYtxK_3std3envNtB2_4VarsNtNtNtNtCs6sq8b9ugfBC_4core4iter6traits8iterator8Iterator9size_hint, symObjAddr: 0x3CB04, symBinAddr: 0x100239584, symSize: 0x2C }
  - { offset: 0x1722AB, size: 0x8, addend: 0x0, symName: __RNvXs1_NtCsaLOjE9VYtxK_3std3envNtB5_6VarsOsNtNtCs6sq8b9ugfBC_4core3fmt5Debug3fmt, symObjAddr: 0x3FA80, symBinAddr: 0x10023C470, symSize: 0x64 }
  - { offset: 0x1722CC, size: 0x8, addend: 0x0, symName: __RNvXs2_NtCsaLOjE9VYtxK_3std3envNtB5_8VarErrorNtNtCs6sq8b9ugfBC_4core3fmt7Display3fmt, symObjAddr: 0x41158, symBinAddr: 0x10023DB48, symSize: 0x68 }
  - { offset: 0x17231D, size: 0x8, addend: 0x0, symName: __RNvXs4_NtCsaLOjE9VYtxK_3std3envNtB5_10SplitPathsNtNtNtNtCs6sq8b9ugfBC_4core4iter6traits8iterator8Iterator4next, symObjAddr: 0x42AEC, symBinAddr: 0x10023F4DC, symSize: 0xC8 }
  - { offset: 0x172503, size: 0x8, addend: 0x0, symName: __RNvXs5_NtCsaLOjE9VYtxK_3std3envNtB5_10SplitPathsNtNtCs6sq8b9ugfBC_4core3fmt5Debug3fmt, symObjAddr: 0x43A9C, symBinAddr: 0x10024048C, symSize: 0x38 }
  - { offset: 0x172525, size: 0x8, addend: 0x0, symName: __RNvXs6_NtCsaLOjE9VYtxK_3std3envNtB5_14JoinPathsErrorNtNtCs6sq8b9ugfBC_4core3fmt7Display3fmt, symObjAddr: 0x44300, symBinAddr: 0x100240CF0, symSize: 0x44 }
  - { offset: 0x17258A, size: 0x8, addend: 0x0, symName: __RNvXs_NtCsaLOjE9VYtxK_3std3envNtB4_4VarsNtNtCs6sq8b9ugfBC_4core3fmt5Debug3fmt, symObjAddr: 0x46DDC, symBinAddr: 0x1002437CC, symSize: 0x64 }
  - { offset: 0x1725D5, size: 0x8, addend: 0x0, symName: __RNvXsa_NtCsaLOjE9VYtxK_3std3envNtB5_4ArgsNtNtNtNtCs6sq8b9ugfBC_4core4iter6traits8iterator8Iterator4next, symObjAddr: 0x48F5C, symBinAddr: 0x10024594C, symSize: 0xE8 }
  - { offset: 0x1728BE, size: 0x8, addend: 0x0, symName: __RNvXsc_NtCsaLOjE9VYtxK_3std3envNtB5_4ArgsNtNtNtNtCs6sq8b9ugfBC_4core4iter6traits12double_ended19DoubleEndedIterator9next_back, symObjAddr: 0x4946C, symBinAddr: 0x100245E5C, symSize: 0xE4 }
  - { offset: 0x172B50, size: 0x8, addend: 0x0, symName: __RNvXsd_NtCsaLOjE9VYtxK_3std3envNtB5_4ArgsNtNtCs6sq8b9ugfBC_4core3fmt5Debug3fmt, symObjAddr: 0x499A8, symBinAddr: 0x100246398, symSize: 0x64 }
  - { offset: 0x172B72, size: 0x8, addend: 0x0, symName: __RNvXsj_NtCsaLOjE9VYtxK_3std3envNtB5_6ArgsOsNtNtCs6sq8b9ugfBC_4core3fmt5Debug3fmt, symObjAddr: 0x4AE80, symBinAddr: 0x100247870, symSize: 0x64 }
  - { offset: 0x172B9B, size: 0x8, addend: 0x0, symName: __RNvMsN_NtCsaLOjE9VYtxK_3std7processNtB5_15ExitStatusError12code_nonzero, symObjAddr: 0x24728, symBinAddr: 0x100222014, symSize: 0x50 }
  - { offset: 0x172C70, size: 0x8, addend: 0x0, symName: __RNvMsN_NtCsaLOjE9VYtxK_3std7processNtB5_15ExitStatusError4code, symObjAddr: 0x24778, symBinAddr: 0x100222064, symSize: 0x58 }
  - { offset: 0x172D70, size: 0x8, addend: 0x0, symName: __RNvMsS_NtCsaLOjE9VYtxK_3std7processNtB5_8ExitCode12exit_process, symObjAddr: 0x247D0, symBinAddr: 0x1002220BC, symSize: 0x10 }
  - { offset: 0x172DF8, size: 0x8, addend: 0x0, symName: __RNvMsY_NtCsaLOjE9VYtxK_3std7processNtB5_5Child16wait_with_output, symObjAddr: 0x247E0, symBinAddr: 0x1002220CC, symSize: 0x2F8 }
  - { offset: 0x1732EB, size: 0x8, addend: 0x0, symName: __RNvMsY_NtCsaLOjE9VYtxK_3std7processNtB5_5Child4kill, symObjAddr: 0x24AD8, symBinAddr: 0x1002223C4, symSize: 0x4C }
  - { offset: 0x173395, size: 0x8, addend: 0x0, symName: __RNvMsY_NtCsaLOjE9VYtxK_3std7processNtB5_5Child4wait, symObjAddr: 0x24B24, symBinAddr: 0x100222410, symSize: 0xFC }
  - { offset: 0x173500, size: 0x8, addend: 0x0, symName: __RNvMsY_NtCsaLOjE9VYtxK_3std7processNtB5_5Child8try_wait, symObjAddr: 0x24C20, symBinAddr: 0x10022250C, symSize: 0xB0 }
  - { offset: 0x1735CF, size: 0x8, addend: 0x0, symName: __RNvMsk_NtCsaLOjE9VYtxK_3std7processNtB5_7Command11get_program, symObjAddr: 0x2DA08, symBinAddr: 0x10022B168, symSize: 0x10 }
  - { offset: 0x173617, size: 0x8, addend: 0x0, symName: __RNvMsk_NtCsaLOjE9VYtxK_3std7processNtB5_7Command15get_current_dir, symObjAddr: 0x2DA18, symBinAddr: 0x10022B178, symSize: 0x10 }
  - { offset: 0x173660, size: 0x8, addend: 0x0, symName: __RNvMsk_NtCsaLOjE9VYtxK_3std7processNtB5_7Command5spawn, symObjAddr: 0x2DA28, symBinAddr: 0x10022B188, symSize: 0x78 }
  - { offset: 0x173692, size: 0x8, addend: 0x0, symName: __RNvMsk_NtCsaLOjE9VYtxK_3std7processNtB5_7Command6output, symObjAddr: 0x2DAA0, symBinAddr: 0x10022B200, symSize: 0x338 }
  - { offset: 0x173C5C, size: 0x8, addend: 0x0, symName: __RNvMsk_NtCsaLOjE9VYtxK_3std7processNtB5_7Command6status, symObjAddr: 0x2DDD8, symBinAddr: 0x10022B538, symSize: 0x168 }
  - { offset: 0x173ED4, size: 0x8, addend: 0x0, symName: __RNvMsk_NtCsaLOjE9VYtxK_3std7processNtB5_7Command8get_args, symObjAddr: 0x2DF40, symBinAddr: 0x10022B6A0, symSize: 0x44 }
  - { offset: 0x173FBB, size: 0x8, addend: 0x0, symName: __RNvMsk_NtCsaLOjE9VYtxK_3std7processNtB5_7Command9env_clear, symObjAddr: 0x2DF84, symBinAddr: 0x10022B6E4, symSize: 0xE0 }
  - { offset: 0x17433E, size: 0x8, addend: 0x0, symName: __RNvMst_NtCsaLOjE9VYtxK_3std7processNtB5_6Output7exit_ok, symObjAddr: 0x2F4B0, symBinAddr: 0x10022CC10, symSize: 0x7C }
  - { offset: 0x17454C, size: 0x8, addend: 0x0, symName: __RNvNtCsaLOjE9VYtxK_3std7process2id, symObjAddr: 0x31658, symBinAddr: 0x10022ED94, symSize: 0x4 }
  - { offset: 0x17456B, size: 0x8, addend: 0x0, symName: __RNvNtCsaLOjE9VYtxK_3std7process2id, symObjAddr: 0x31658, symBinAddr: 0x10022ED94, symSize: 0x4 }
  - { offset: 0x17457E, size: 0x8, addend: 0x0, symName: __RNvNtCsaLOjE9VYtxK_3std7process4exit, symObjAddr: 0x3165C, symBinAddr: 0x10022ED98, symSize: 0x1C }
  - { offset: 0x174599, size: 0x8, addend: 0x0, symName: __RNvNtCsaLOjE9VYtxK_3std7process5abort, symObjAddr: 0x31678, symBinAddr: 0x10030E6F8, symSize: 0xC }
  - { offset: 0x1745BA, size: 0x8, addend: 0x0, symName: __RNvXs1_NtCsaLOjE9VYtxK_3std7processNtB5_5ChildINtNtB7_3sys9IntoInnerNtNtNtNtBL_7process4unix4unix7ProcessE10into_inner, symObjAddr: 0x3FB40, symBinAddr: 0x10023C530, symSize: 0x60 }
  - { offset: 0x17474A, size: 0x8, addend: 0x0, symName: __RNvXs1f_NtCsaLOjE9VYtxK_3std7processNtB6_10ExitStatusNtNtCs6sq8b9ugfBC_4core3fmt5Debug3fmt, symObjAddr: 0x402EC, symBinAddr: 0x10023CCDC, symSize: 0x40 }
  - { offset: 0x17477A, size: 0x8, addend: 0x0, symName: __RNvXs8_NtCsaLOjE9VYtxK_3std7processNtB5_10ChildStdinNtNtCs6sq8b9ugfBC_4core3fmt5Debug3fmt, symObjAddr: 0x45B64, symBinAddr: 0x100242554, symSize: 0x38 }
  - { offset: 0x1747A3, size: 0x8, addend: 0x0, symName: __RNvXsi_NtCsaLOjE9VYtxK_3std7processNtB5_11ChildStderrNtNtCs6sq8b9ugfBC_4core3fmt5Debug3fmt, symObjAddr: 0x4AE10, symBinAddr: 0x100247800, symSize: 0x38 }
  - { offset: 0x1747CC, size: 0x8, addend: 0x0, symName: __RNvXsd_NtCsaLOjE9VYtxK_3std7processNtB5_11ChildStdoutNtNtCs6sq8b9ugfBC_4core3fmt5Debug3fmt, symObjAddr: 0x49A24, symBinAddr: 0x100246414, symSize: 0x38 }
  - { offset: 0x1747E7, size: 0x8, addend: 0x0, symName: __RNvXs2_NtCsaLOjE9VYtxK_3std7processNtB5_5ChildNtNtCs6sq8b9ugfBC_4core3fmt5Debug3fmt, symObjAddr: 0x41234, symBinAddr: 0x10023DC24, symSize: 0x9C }
  - { offset: 0x174825, size: 0x8, addend: 0x0, symName: __RNvXs4_NtCsaLOjE9VYtxK_3std7processRNtB5_10ChildStdinNtNtB7_2io5Write14write_vectored, symObjAddr: 0x42C34, symBinAddr: 0x10023F624, symSize: 0x58 }
  - { offset: 0x174930, size: 0x8, addend: 0x0, symName: __RNvXs4_NtCsaLOjE9VYtxK_3std7processRNtB5_10ChildStdinNtNtB7_2io5Write5write, symObjAddr: 0x42C8C, symBinAddr: 0x10023F67C, symSize: 0x58 }
  - { offset: 0x174A42, size: 0x8, addend: 0x0, symName: __RNvXs3_NtCsaLOjE9VYtxK_3std7processNtB5_10ChildStdinNtNtB7_2io5Write14write_vectored, symObjAddr: 0x41838, symBinAddr: 0x10023E228, symSize: 0x54 }
  - { offset: 0x174B6B, size: 0x8, addend: 0x0, symName: __RNvXs3_NtCsaLOjE9VYtxK_3std7processNtB5_10ChildStdinNtNtB7_2io5Write5write, symObjAddr: 0x4188C, symBinAddr: 0x10023E27C, symSize: 0x54 }
  - { offset: 0x174C9B, size: 0x8, addend: 0x0, symName: __RNvXsL_NtCsaLOjE9VYtxK_3std7processNtB5_10ExitStatusNtNtCs6sq8b9ugfBC_4core3fmt7Display3fmt, symObjAddr: 0x46720, symBinAddr: 0x100243110, symSize: 0x4 }
  - { offset: 0x174CBD, size: 0x8, addend: 0x0, symName: __RNvXsP_NtCsaLOjE9VYtxK_3std7processNtB5_15ExitStatusErrorNtNtCs6sq8b9ugfBC_4core3fmt7Display3fmt, symObjAddr: 0x46724, symBinAddr: 0x100243114, symSize: 0x44 }
  - { offset: 0x174D0D, size: 0x8, addend: 0x0, symName: __RNvXsl_NtCsaLOjE9VYtxK_3std7processNtB5_7CommandNtNtCs6sq8b9ugfBC_4core3fmt5Debug3fmt, symObjAddr: 0x4B488, symBinAddr: 0x100247E78, symSize: 0x4 }
  - { offset: 0x174D2F, size: 0x8, addend: 0x0, symName: __RNvXso_NtCsaLOjE9VYtxK_3std7processNtB5_11CommandArgsNtNtNtNtCs6sq8b9ugfBC_4core4iter6traits8iterator8Iterator4next, symObjAddr: 0x4B6FC, symBinAddr: 0x1002480EC, symSize: 0x44 }
  - { offset: 0x174DE7, size: 0x8, addend: 0x0, symName: __RNvXso_NtCsaLOjE9VYtxK_3std7processNtB5_11CommandArgsNtNtNtNtCs6sq8b9ugfBC_4core4iter6traits8iterator8Iterator9size_hint, symObjAddr: 0x4B740, symBinAddr: 0x100248130, symSize: 0x1C }
  - { offset: 0x174E06, size: 0x8, addend: 0x0, symName: __RNvXso_NtCsaLOjE9VYtxK_3std7processNtB5_11CommandArgsNtNtNtNtCs6sq8b9ugfBC_4core4iter6traits8iterator8Iterator9size_hint, symObjAddr: 0x4B740, symBinAddr: 0x100248130, symSize: 0x1C }
  - { offset: 0x174E1C, size: 0x8, addend: 0x0, symName: __RNvXso_NtCsaLOjE9VYtxK_3std7processNtB5_11CommandArgsNtNtNtNtCs6sq8b9ugfBC_4core4iter6traits8iterator8Iterator9size_hint, symObjAddr: 0x4B740, symBinAddr: 0x100248130, symSize: 0x1C }
  - { offset: 0x174E91, size: 0x8, addend: 0x0, symName: __RNvXsp_NtCsaLOjE9VYtxK_3std7processNtB5_11CommandArgsNtNtNtNtCs6sq8b9ugfBC_4core4iter6traits10exact_size17ExactSizeIterator3len, symObjAddr: 0x4BF0C, symBinAddr: 0x1002488FC, symSize: 0x10 }
  - { offset: 0x174EB0, size: 0x8, addend: 0x0, symName: __RNvXsp_NtCsaLOjE9VYtxK_3std7processNtB5_11CommandArgsNtNtNtNtCs6sq8b9ugfBC_4core4iter6traits10exact_size17ExactSizeIterator3len, symObjAddr: 0x4BF0C, symBinAddr: 0x1002488FC, symSize: 0x10 }
  - { offset: 0x174EC6, size: 0x8, addend: 0x0, symName: __RNvXsp_NtCsaLOjE9VYtxK_3std7processNtB5_11CommandArgsNtNtNtNtCs6sq8b9ugfBC_4core4iter6traits10exact_size17ExactSizeIterator3len, symObjAddr: 0x4BF0C, symBinAddr: 0x1002488FC, symSize: 0x10 }
  - { offset: 0x174EDC, size: 0x8, addend: 0x0, symName: __RNvXsp_NtCsaLOjE9VYtxK_3std7processNtB5_11CommandArgsNtNtNtNtCs6sq8b9ugfBC_4core4iter6traits10exact_size17ExactSizeIterator3len, symObjAddr: 0x4BF0C, symBinAddr: 0x1002488FC, symSize: 0x10 }
  - { offset: 0x174F3B, size: 0x8, addend: 0x0, symName: __RNvXsq_NtCsaLOjE9VYtxK_3std7processNtB5_11CommandEnvsNtNtNtNtCs6sq8b9ugfBC_4core4iter6traits8iterator8Iterator4next, symObjAddr: 0x4BFC8, symBinAddr: 0x1002489B8, symSize: 0x50 }
  - { offset: 0x174FCE, size: 0x8, addend: 0x0, symName: __RNvXss_NtCsaLOjE9VYtxK_3std7processNtB5_11CommandEnvsNtNtCs6sq8b9ugfBC_4core3fmt5Debug3fmt, symObjAddr: 0x4C390, symBinAddr: 0x100248D80, symSize: 0x4C }
  - { offset: 0x175007, size: 0x8, addend: 0x0, symName: __RNvXsu_NtCsaLOjE9VYtxK_3std7processNtB5_6OutputNtNtCs6sq8b9ugfBC_4core3fmt5Debug3fmt, symObjAddr: 0x4CC10, symBinAddr: 0x100249600, symSize: 0x10C }
  - { offset: 0x175141, size: 0x8, addend: 0x0, symName: __RNvXsx_NtCsaLOjE9VYtxK_3std7processNtB5_5StdioNtNtCs6sq8b9ugfBC_4core3fmt5Debug3fmt, symObjAddr: 0x4D150, symBinAddr: 0x100249B40, symSize: 0x38 }
  - { offset: 0x17516A, size: 0x8, addend: 0x0, symName: __RNvXNtCsaLOjE9VYtxK_3std6randomNtB2_19DefaultRandomSourceNtNtCs6sq8b9ugfBC_4core6random12RandomSource10fill_bytes, symObjAddr: 0x3CB30, symBinAddr: 0x1002395B0, symSize: 0x54 }
  - { offset: 0x1751A8, size: 0x8, addend: 0x0, symName: __RNvXs4_NtNtCsaLOjE9VYtxK_3std4hash6randomNtB5_11RandomStateNtNtCs6sq8b9ugfBC_4core3fmt5Debug3fmt, symObjAddr: 0x43A00, symBinAddr: 0x1002403F0, symSize: 0x38 }
  - { offset: 0x175330, size: 0x8, addend: 0x0, symName: __RINvMs0_NtNtCsgmVNXhSCXCV_6object4read7archiveNtB6_13ArchiveMember5parseRShECsaLOjE9VYtxK_3std, symObjAddr: 0x2EFC, symBinAddr: 0x100202438, symSize: 0x5AC }
  - { offset: 0x176C75, size: 0x8, addend: 0x0, symName: _OUTLINED_FUNCTION_0, symObjAddr: 0x4E7F4, symBinAddr: 0x10024B1E4, symSize: 0xC }
  - { offset: 0x176C8D, size: 0x8, addend: 0x0, symName: _OUTLINED_FUNCTION_1, symObjAddr: 0x4E800, symBinAddr: 0x10024B1F0, symSize: 0x8 }
  - { offset: 0x176CA5, size: 0x8, addend: 0x0, symName: _OUTLINED_FUNCTION_2, symObjAddr: 0x4E808, symBinAddr: 0x10024B1F8, symSize: 0xC }
  - { offset: 0x176CBD, size: 0x8, addend: 0x0, symName: _OUTLINED_FUNCTION_3, symObjAddr: 0x4E814, symBinAddr: 0x10024B204, symSize: 0xC }
  - { offset: 0x176CD5, size: 0x8, addend: 0x0, symName: _OUTLINED_FUNCTION_4, symObjAddr: 0x4E820, symBinAddr: 0x10024B210, symSize: 0x10 }
  - { offset: 0x176CED, size: 0x8, addend: 0x0, symName: _OUTLINED_FUNCTION_5, symObjAddr: 0x4E830, symBinAddr: 0x10024B220, symSize: 0xC }
  - { offset: 0x176D05, size: 0x8, addend: 0x0, symName: _OUTLINED_FUNCTION_6, symObjAddr: 0x4E83C, symBinAddr: 0x10024B22C, symSize: 0x10 }
  - { offset: 0x176D1D, size: 0x8, addend: 0x0, symName: _OUTLINED_FUNCTION_7, symObjAddr: 0x4E84C, symBinAddr: 0x10024B23C, symSize: 0xC }
  - { offset: 0x176D35, size: 0x8, addend: 0x0, symName: _OUTLINED_FUNCTION_8, symObjAddr: 0x4E858, symBinAddr: 0x10024B248, symSize: 0xC }
  - { offset: 0x176D4D, size: 0x8, addend: 0x0, symName: _OUTLINED_FUNCTION_9, symObjAddr: 0x4E864, symBinAddr: 0x10024B254, symSize: 0xC }
  - { offset: 0x176D65, size: 0x8, addend: 0x0, symName: _OUTLINED_FUNCTION_10, symObjAddr: 0x4E870, symBinAddr: 0x10024B260, symSize: 0x8 }
  - { offset: 0x176D7D, size: 0x8, addend: 0x0, symName: _OUTLINED_FUNCTION_11, symObjAddr: 0x4E878, symBinAddr: 0x10024B268, symSize: 0x8 }
  - { offset: 0x176D95, size: 0x8, addend: 0x0, symName: _OUTLINED_FUNCTION_12, symObjAddr: 0x4E880, symBinAddr: 0x10024B270, symSize: 0x28 }
  - { offset: 0x176DAD, size: 0x8, addend: 0x0, symName: _OUTLINED_FUNCTION_13, symObjAddr: 0x4E8A8, symBinAddr: 0x10024B298, symSize: 0x14 }
  - { offset: 0x176DC5, size: 0x8, addend: 0x0, symName: _OUTLINED_FUNCTION_14, symObjAddr: 0x4E8BC, symBinAddr: 0x10024B2AC, symSize: 0x8 }
  - { offset: 0x176DDD, size: 0x8, addend: 0x0, symName: _OUTLINED_FUNCTION_15, symObjAddr: 0x4E8C4, symBinAddr: 0x10024B2B4, symSize: 0xC }
  - { offset: 0x176DF5, size: 0x8, addend: 0x0, symName: _OUTLINED_FUNCTION_16, symObjAddr: 0x4E8D0, symBinAddr: 0x10024B2C0, symSize: 0x10 }
  - { offset: 0x176E0D, size: 0x8, addend: 0x0, symName: _OUTLINED_FUNCTION_17, symObjAddr: 0x4E8E0, symBinAddr: 0x10024B2D0, symSize: 0x8 }
  - { offset: 0x176E25, size: 0x8, addend: 0x0, symName: _OUTLINED_FUNCTION_18, symObjAddr: 0x4E8E8, symBinAddr: 0x10024B2D8, symSize: 0x8 }
  - { offset: 0x176E3D, size: 0x8, addend: 0x0, symName: _OUTLINED_FUNCTION_19, symObjAddr: 0x4E8F0, symBinAddr: 0x10024B2E0, symSize: 0x8 }
  - { offset: 0x176E55, size: 0x8, addend: 0x0, symName: _OUTLINED_FUNCTION_20, symObjAddr: 0x4E8F8, symBinAddr: 0x10024B2E8, symSize: 0x10 }
  - { offset: 0x176E6D, size: 0x8, addend: 0x0, symName: _OUTLINED_FUNCTION_21, symObjAddr: 0x4E908, symBinAddr: 0x10024B2F8, symSize: 0x18 }
  - { offset: 0x176E85, size: 0x8, addend: 0x0, symName: _OUTLINED_FUNCTION_22, symObjAddr: 0x4E920, symBinAddr: 0x10024B310, symSize: 0x18 }
  - { offset: 0x176E9D, size: 0x8, addend: 0x0, symName: _OUTLINED_FUNCTION_23, symObjAddr: 0x4E938, symBinAddr: 0x10024B328, symSize: 0x8 }
  - { offset: 0x176EB5, size: 0x8, addend: 0x0, symName: _OUTLINED_FUNCTION_24, symObjAddr: 0x4E940, symBinAddr: 0x10024B330, symSize: 0xC }
  - { offset: 0x176ECD, size: 0x8, addend: 0x0, symName: _OUTLINED_FUNCTION_25, symObjAddr: 0x4E94C, symBinAddr: 0x10024B33C, symSize: 0x8 }
  - { offset: 0x176EE5, size: 0x8, addend: 0x0, symName: _OUTLINED_FUNCTION_26, symObjAddr: 0x4E954, symBinAddr: 0x10024B344, symSize: 0x8 }
  - { offset: 0x176EFD, size: 0x8, addend: 0x0, symName: _OUTLINED_FUNCTION_27, symObjAddr: 0x4E95C, symBinAddr: 0x10024B34C, symSize: 0xC }
  - { offset: 0x176F15, size: 0x8, addend: 0x0, symName: _OUTLINED_FUNCTION_28, symObjAddr: 0x4E968, symBinAddr: 0x10024B358, symSize: 0x8 }
  - { offset: 0x176F2D, size: 0x8, addend: 0x0, symName: _OUTLINED_FUNCTION_29, symObjAddr: 0x4E970, symBinAddr: 0x10024B360, symSize: 0xC }
  - { offset: 0x176F45, size: 0x8, addend: 0x0, symName: _OUTLINED_FUNCTION_30, symObjAddr: 0x4E97C, symBinAddr: 0x10024B36C, symSize: 0x8 }
  - { offset: 0x176F5D, size: 0x8, addend: 0x0, symName: _OUTLINED_FUNCTION_31, symObjAddr: 0x4E984, symBinAddr: 0x10024B374, symSize: 0xC }
  - { offset: 0x176F75, size: 0x8, addend: 0x0, symName: _OUTLINED_FUNCTION_32, symObjAddr: 0x4E990, symBinAddr: 0x10024B380, symSize: 0xC }
  - { offset: 0x176F8D, size: 0x8, addend: 0x0, symName: _OUTLINED_FUNCTION_33, symObjAddr: 0x4E99C, symBinAddr: 0x10024B38C, symSize: 0xC }
  - { offset: 0x176FA5, size: 0x8, addend: 0x0, symName: _OUTLINED_FUNCTION_34, symObjAddr: 0x4E9A8, symBinAddr: 0x10024B398, symSize: 0x10 }
  - { offset: 0x176FBD, size: 0x8, addend: 0x0, symName: _OUTLINED_FUNCTION_35, symObjAddr: 0x4E9B8, symBinAddr: 0x10024B3A8, symSize: 0xC }
  - { offset: 0x176FD5, size: 0x8, addend: 0x0, symName: _OUTLINED_FUNCTION_36, symObjAddr: 0x4E9C4, symBinAddr: 0x10024B3B4, symSize: 0x14 }
  - { offset: 0x176FED, size: 0x8, addend: 0x0, symName: _OUTLINED_FUNCTION_37, symObjAddr: 0x4E9D8, symBinAddr: 0x10024B3C8, symSize: 0x14 }
  - { offset: 0x177005, size: 0x8, addend: 0x0, symName: _OUTLINED_FUNCTION_38, symObjAddr: 0x4E9EC, symBinAddr: 0x10024B3DC, symSize: 0x14 }
  - { offset: 0x17701D, size: 0x8, addend: 0x0, symName: _OUTLINED_FUNCTION_39, symObjAddr: 0x4EA00, symBinAddr: 0x10024B3F0, symSize: 0x14 }
  - { offset: 0x177035, size: 0x8, addend: 0x0, symName: _OUTLINED_FUNCTION_40, symObjAddr: 0x4EA14, symBinAddr: 0x10024B404, symSize: 0x14 }
  - { offset: 0x17704D, size: 0x8, addend: 0x0, symName: _OUTLINED_FUNCTION_41, symObjAddr: 0x4EA28, symBinAddr: 0x10024B418, symSize: 0x14 }
  - { offset: 0x177065, size: 0x8, addend: 0x0, symName: _OUTLINED_FUNCTION_42, symObjAddr: 0x4EA3C, symBinAddr: 0x10024B42C, symSize: 0xC }
  - { offset: 0x17707D, size: 0x8, addend: 0x0, symName: _OUTLINED_FUNCTION_43, symObjAddr: 0x4EA48, symBinAddr: 0x10024B438, symSize: 0xC }
  - { offset: 0x177095, size: 0x8, addend: 0x0, symName: _OUTLINED_FUNCTION_44, symObjAddr: 0x4EA54, symBinAddr: 0x10024B444, symSize: 0xC }
  - { offset: 0x1770CB, size: 0x8, addend: 0x0, symName: __RINvNtCs6sq8b9ugfBC_4core3ptr13drop_in_placeINtNtCs8dnTdrJsiec_5alloc5boxed3BoxNtNtCs7JivflSCvRx_12panic_unwind3imp9ExceptionEEB1j_, symObjAddr: 0x0, symBinAddr: 0x10024B450, symSize: 0x8C }
  - { offset: 0x177101, size: 0x8, addend: 0x0, symName: __RINvNtCs6sq8b9ugfBC_4core3ptr13drop_in_placeINtNtCs8dnTdrJsiec_5alloc5boxed3BoxNtNtCs7JivflSCvRx_12panic_unwind3imp9ExceptionEEB1j_, symObjAddr: 0x0, symBinAddr: 0x10024B450, symSize: 0x8C }
  - { offset: 0x17739D, size: 0x8, addend: 0x0, symName: __RINvNtCs6sq8b9ugfBC_4core3ptr13drop_in_placeNtNtCs7JivflSCvRx_12panic_unwind3imp9ExceptionEBK_, symObjAddr: 0x8C, symBinAddr: 0x10024B4DC, symSize: 0x78 }
  - { offset: 0x1776DB, size: 0x8, addend: 0x0, symName: __RNvNvNtCs7JivflSCvRx_12panic_unwind3imp5panic17exception_cleanup, symObjAddr: 0x20C, symBinAddr: 0x10024B65C, symSize: 0x18 }
  - { offset: 0x1776F7, size: 0x8, addend: 0x0, symName: __RNvCsGIExRX8pES_7___rustc18___rust_start_panic, symObjAddr: 0x104, symBinAddr: 0x10024B554, symSize: 0xA0 }
  - { offset: 0x17779E, size: 0x8, addend: 0x0, symName: __RNvCsGIExRX8pES_7___rustc20___rust_panic_cleanup, symObjAddr: 0x1A4, symBinAddr: 0x10024B5F4, symSize: 0x68 }
  - { offset: 0x177897, size: 0x8, addend: 0x0, symName: __RNvMs0_NtNtNtCsihoA8JAwX66_6memchr4arch3all6twowayNtB5_5Shift7forward, symObjAddr: 0x0, symBinAddr: 0x100250144, symSize: 0xE0 }
  - { offset: 0x177FA6, size: 0x8, addend: 0x0, symName: __RNvXs1g_NtCs6sq8b9ugfBC_4core3fmtReNtB6_5Debug3fmtCsihoA8JAwX66_6memchr, symObjAddr: 0x1EEC, symBinAddr: 0x100251FC8, symSize: 0x10 }
  - { offset: 0x177FC1, size: 0x8, addend: 0x0, symName: __RNvXs1g_NtCs6sq8b9ugfBC_4core3fmtRmNtB6_5Debug3fmtCsihoA8JAwX66_6memchr, symObjAddr: 0x1EFC, symBinAddr: 0x100251FD8, symSize: 0x1C }
  - { offset: 0x17804D, size: 0x8, addend: 0x0, symName: __RNvXsU_NtNtCs6sq8b9ugfBC_4core3fmt3numhNtB7_5Debug3fmt, symObjAddr: 0x2088, symBinAddr: 0x100252164, symSize: 0x18 }
  - { offset: 0x17806B, size: 0x8, addend: 0x0, symName: __RNvXsU_NtNtCs6sq8b9ugfBC_4core3fmt3numhNtB7_5Debug3fmt, symObjAddr: 0x2088, symBinAddr: 0x100252164, symSize: 0x18 }
  - { offset: 0x1780C6, size: 0x8, addend: 0x0, symName: __RNvMs0_NtNtNtCsihoA8JAwX66_6memchr4arch3all6twowayNtB5_5Shift7forward, symObjAddr: 0x0, symBinAddr: 0x100250144, symSize: 0xE0 }
  - { offset: 0x17834F, size: 0x8, addend: 0x0, symName: __RNvMs0_NtNtNtCsihoA8JAwX66_6memchr4arch3all6twowayNtB5_5Shift7reverse, symObjAddr: 0xE0, symBinAddr: 0x100250224, symSize: 0xEC }
  - { offset: 0x178703, size: 0x8, addend: 0x0, symName: __RNvNtNtNtCsihoA8JAwX66_6memchr4arch3all9rabinkarp12is_equal_raw, symObjAddr: 0x1874, symBinAddr: 0x10030F52C, symSize: 0x68 }
  - { offset: 0x178722, size: 0x8, addend: 0x0, symName: __RNvNtNtNtCsihoA8JAwX66_6memchr4arch3all9rabinkarp12is_equal_raw, symObjAddr: 0x1874, symBinAddr: 0x10030F52C, symSize: 0x68 }
  - { offset: 0x1788C9, size: 0x8, addend: 0x0, symName: __RNvXs2_NtNtNtCsihoA8JAwX66_6memchr4arch3all9rabinkarpNtB5_6FinderNtNtCs6sq8b9ugfBC_4core3fmt5Debug3fmt, symObjAddr: 0x1F18, symBinAddr: 0x100251FF4, symSize: 0x70 }
  - { offset: 0x1788EA, size: 0x8, addend: 0x0, symName: __RNvXs8_NtNtNtCsihoA8JAwX66_6memchr4arch3all9rabinkarpNtB5_4HashNtNtCs6sq8b9ugfBC_4core3fmt5Debug3fmt, symObjAddr: 0x2048, symBinAddr: 0x100252124, symSize: 0x40 }
  - { offset: 0x178C78, size: 0x8, addend: 0x0, symName: __RNvNtNtCsihoA8JAwX66_6memchr6memmem8searcher18searcher_kind_neon, symObjAddr: 0x1CC, symBinAddr: 0x100250310, symSize: 0x4A0 }
  - { offset: 0x17956B, size: 0x8, addend: 0x0, symName: __RNvNtNtCsihoA8JAwX66_6memchr6memmem8searcher19prefilter_kind_neon, symObjAddr: 0x66C, symBinAddr: 0x1002507B0, symSize: 0x3C0 }
  - { offset: 0x17958A, size: 0x8, addend: 0x0, symName: __RNvNtNtCsihoA8JAwX66_6memchr6memmem8searcher19prefilter_kind_neon, symObjAddr: 0x66C, symBinAddr: 0x1002507B0, symSize: 0x3C0 }
  - { offset: 0x1795A0, size: 0x8, addend: 0x0, symName: __RNvNtNtCsihoA8JAwX66_6memchr6memmem8searcher19prefilter_kind_neon, symObjAddr: 0x66C, symBinAddr: 0x1002507B0, symSize: 0x3C0 }
  - { offset: 0x179BB5, size: 0x8, addend: 0x0, symName: __RNvNtNtCsihoA8JAwX66_6memchr6memmem8searcher21searcher_kind_two_way, symObjAddr: 0xA2C, symBinAddr: 0x100250B70, symSize: 0x3F4 }
  - { offset: 0x179E1B, size: 0x8, addend: 0x0, symName: __RNvNtNtCsihoA8JAwX66_6memchr6memmem8searcher22searcher_kind_one_byte, symObjAddr: 0xE20, symBinAddr: 0x100250F64, symSize: 0x20C }
  - { offset: 0x17A6BF, size: 0x8, addend: 0x0, symName: __RNvNtNtCsihoA8JAwX66_6memchr6memmem8searcher23prefilter_kind_fallback, symObjAddr: 0x102C, symBinAddr: 0x100251170, symSize: 0x2BC }
  - { offset: 0x17AFF1, size: 0x8, addend: 0x0, symName: __RNvNtNtCsihoA8JAwX66_6memchr6memmem8searcher36searcher_kind_two_way_with_prefilter, symObjAddr: 0x12E8, symBinAddr: 0x10025142C, symSize: 0x58C }
  - { offset: 0x17B474, size: 0x8, addend: 0x0, symName: __RNvXs4_NtNtCsihoA8JAwX66_6memchr6memmem8searcherNtB5_9PrefilterNtNtCs6sq8b9ugfBC_4core3fmt5Debug3fmt, symObjAddr: 0x1F88, symBinAddr: 0x100252064, symSize: 0xC0 }
  - { offset: 0x17B4AA, size: 0x8, addend: 0x0, symName: __RNvXs_NtNtCsihoA8JAwX66_6memchr6memmem8searcherNtB4_8SearcherNtNtCs6sq8b9ugfBC_4core3fmt5Debug3fmt, symObjAddr: 0x212C, symBinAddr: 0x100252208, symSize: 0xA4 }
  - { offset: 0x17B4E1, size: 0x8, addend: 0x0, symName: __RNvXs1_NtCsihoA8JAwX66_6memchr6memmemNtB5_11FindRevIterNtNtNtNtCs6sq8b9ugfBC_4core4iter6traits8iterator8Iterator4next, symObjAddr: 0x18DC, symBinAddr: 0x1002519B8, symSize: 0x610 }
  - { offset: 0x17BFDC, size: 0x8, addend: 0x0, symName: __RNvXs_NtCsihoA8JAwX66_6memchr6memmemNtB4_8FindIterNtNtNtNtCs6sq8b9ugfBC_4core4iter6traits8iterator8Iterator4next, symObjAddr: 0x20A0, symBinAddr: 0x10025217C, symSize: 0x8C }
  - { offset: 0x17C14D, size: 0x8, addend: 0x0, symName: __RNvMNtNtNtCsfHY2yLS8C86_10std_detect6detect4arch7aarch64NtB2_7Feature6to_str, symObjAddr: 0x0, symBinAddr: 0x100266B20, symSize: 0x4B8 }
  - { offset: 0x17C179, size: 0x8, addend: 0x0, symName: __RNvMNtNtNtCsfHY2yLS8C86_10std_detect6detect4arch7aarch64NtB2_7Feature6to_str, symObjAddr: 0x0, symBinAddr: 0x100266B20, symSize: 0x4B8 }
  - { offset: 0x17C1FF, size: 0x8, addend: 0x0, symName: __RNvNtNtCsfHY2yLS8C86_10std_detect6detect5cache21detect_and_initialize, symObjAddr: 0x4B8, symBinAddr: 0x10030F6B4, symSize: 0xC38 }
  - { offset: 0x17C8CF, size: 0x8, addend: 0x0, symName: __RNvMNtCsfb1wMKdJvND_9hashbrown3rawNtB2_11Fallibility17capacity_overflow, symObjAddr: 0x0, symBinAddr: 0x100266FD8, symSize: 0x2C }
  - { offset: 0x17C8EF, size: 0x8, addend: 0x0, symName: __RNvMNtCsfb1wMKdJvND_9hashbrown3rawNtB2_11Fallibility17capacity_overflow, symObjAddr: 0x0, symBinAddr: 0x100266FD8, symSize: 0x2C }
  - { offset: 0x17C909, size: 0x8, addend: 0x0, symName: __RNvMNtCsfb1wMKdJvND_9hashbrown3rawNtB2_11Fallibility9alloc_err, symObjAddr: 0x2C, symBinAddr: 0x100267004, symSize: 0x24 }
  - { offset: 0x17C94D, size: 0x8, addend: 0x0, symName: __RNvMsS_NtCsfb1wMKdJvND_9hashbrown3rawNtB5_18RawIterHashIndices3new, symObjAddr: 0x50, symBinAddr: 0x100267028, symSize: 0x38 }
  - { offset: 0x17C965, size: 0x8, addend: 0x0, symName: __RNvMsS_NtCsfb1wMKdJvND_9hashbrown3rawNtB5_18RawIterHashIndices3new, symObjAddr: 0x50, symBinAddr: 0x100267028, symSize: 0x38 }
  - { offset: 0x17CA80, size: 0x8, addend: 0x0, symName: __RNvXsR_NtCsfb1wMKdJvND_9hashbrown3rawNtB5_18RawIterHashIndicesNtNtCs6sq8b9ugfBC_4core7default7Default7default, symObjAddr: 0x88, symBinAddr: 0x100267060, symSize: 0x30 }
  - { offset: 0x17CACD, size: 0x8, addend: 0x0, symName: __RNvXsU_NtCsfb1wMKdJvND_9hashbrown3rawNtB5_18RawIterHashIndicesNtNtNtNtCs6sq8b9ugfBC_4core4iter6traits8iterator8Iterator4next, symObjAddr: 0xB8, symBinAddr: 0x100267090, symSize: 0x94 }
  - { offset: 0x17CC41, size: 0x8, addend: 0x0, symName: __RNvXsu_NtCsfb1wMKdJvND_9hashbrown3rawNtB5_18FullBucketsIndicesNtNtCs6sq8b9ugfBC_4core7default7Default7default, symObjAddr: 0x200, symBinAddr: 0x1002671D8, symSize: 0x14 }
  - { offset: 0x17CC60, size: 0x8, addend: 0x0, symName: __RNvXsu_NtCsfb1wMKdJvND_9hashbrown3rawNtB5_18FullBucketsIndicesNtNtCs6sq8b9ugfBC_4core7default7Default7default, symObjAddr: 0x200, symBinAddr: 0x1002671D8, symSize: 0x14 }
  - { offset: 0x17CC9B, size: 0x8, addend: 0x0, symName: __RNvXs_NtNtCsfb1wMKdJvND_9hashbrown7control3tagNtB4_3TagNtNtCs6sq8b9ugfBC_4core3fmt5Debug3fmt, symObjAddr: 0x164, symBinAddr: 0x10026713C, symSize: 0x9C }
  - { offset: 0x17CE73, size: 0x8, addend: 0x0, symName: __RNvXsU_NtNtCs6sq8b9ugfBC_4core3fmt3numhNtB7_5Debug3fmt, symObjAddr: 0x14C, symBinAddr: 0x100267124, symSize: 0x18 }
  - { offset: 0x17CE91, size: 0x8, addend: 0x0, symName: __RNvXsU_NtNtCs6sq8b9ugfBC_4core3fmt3numhNtB7_5Debug3fmt, symObjAddr: 0x14C, symBinAddr: 0x100267124, symSize: 0x18 }
  - { offset: 0x17CEC5, size: 0x8, addend: 0x0, symName: __RNvXs7Z_NtNtNtCs90KNAEDKYN5_4libc4unix3bsd5appleNtB6_22___c_anonymous_ifk_dataNtNtCs6sq8b9ugfBC_4core3fmt5Debug3fmt, symObjAddr: 0x0, symBinAddr: 0x100269A24, symSize: 0x38 }
  - { offset: 0x17CEF1, size: 0x8, addend: 0x0, symName: __RNvXs7Z_NtNtNtCs90KNAEDKYN5_4libc4unix3bsd5appleNtB6_22___c_anonymous_ifk_dataNtNtCs6sq8b9ugfBC_4core3fmt5Debug3fmt, symObjAddr: 0x0, symBinAddr: 0x100269A24, symSize: 0x38 }
  - { offset: 0x17CF12, size: 0x8, addend: 0x0, symName: __RNvXs83_NtNtNtCs90KNAEDKYN5_4libc4unix3bsd5appleNtB6_22___c_anonymous_ifr_ifruNtNtCs6sq8b9ugfBC_4core3fmt5Debug3fmt, symObjAddr: 0x38, symBinAddr: 0x100269A5C, symSize: 0x38 }
  - { offset: 0x17CF33, size: 0x8, addend: 0x0, symName: __RNvXs87_NtNtNtCs90KNAEDKYN5_4libc4unix3bsd5appleNtB6_22___c_anonymous_ifc_ifcuNtNtCs6sq8b9ugfBC_4core3fmt5Debug3fmt, symObjAddr: 0x70, symBinAddr: 0x100269A94, symSize: 0x38 }
  - { offset: 0x17CF54, size: 0x8, addend: 0x0, symName: __RNvXs8b_NtNtNtCs90KNAEDKYN5_4libc4unix3bsd5appleNtB6_23___c_anonymous_ifr_ifru6NtNtCs6sq8b9ugfBC_4core3fmt5Debug3fmt, symObjAddr: 0xA8, symBinAddr: 0x100269ACC, symSize: 0x38 }
  - { offset: 0x17CF75, size: 0x8, addend: 0x0, symName: __RNvXs8f_NtNtNtCs90KNAEDKYN5_4libc4unix3bsd5appleNtB6_5semunNtNtCs6sq8b9ugfBC_4core3fmt5Debug3fmt, symObjAddr: 0xE0, symBinAddr: 0x100269B04, symSize: 0x38 }
  - { offset: 0x17CFB2, size: 0x8, addend: 0x0, symName: __RINvNtCs6sq8b9ugfBC_4core3ptr13drop_in_placeNtNtCs8dnTdrJsiec_5alloc6string6StringEBK_, symObjAddr: 0x0, symBinAddr: 0x100269B3C, symSize: 0x18 }
  - { offset: 0x17D122, size: 0x8, addend: 0x0, symName: __RNvMs4_NtCs8dnTdrJsiec_5alloc7raw_vecNtB5_11RawVecInner11finish_growB7_, symObjAddr: 0x3280, symBinAddr: 0x100310400, symSize: 0x8C }
  - { offset: 0x17D37E, size: 0x8, addend: 0x0, symName: __RINvNvMs2_NtCs8dnTdrJsiec_5alloc7raw_vecINtB8_11RawVecInnerpE7reserve21do_reserve_and_handleNtNtBa_5alloc6GlobalEBa_, symObjAddr: 0x30, symBinAddr: 0x1003102EC, symSize: 0x78 }
  - { offset: 0x17D4E5, size: 0x8, addend: 0x0, symName: __RNvMs3_NtCs8dnTdrJsiec_5alloc7raw_vecINtB5_6RawVechE8grow_oneB7_, symObjAddr: 0x3220, symBinAddr: 0x1003103A0, symSize: 0x60 }
  - { offset: 0x17D680, size: 0x8, addend: 0x0, symName: __RNvNtCs8dnTdrJsiec_5alloc7raw_vec12handle_error, symObjAddr: 0x4110, symBinAddr: 0x1003104A4, symSize: 0x14 }
  - { offset: 0x17D6C8, size: 0x8, addend: 0x0, symName: __RNvNtCs8dnTdrJsiec_5alloc7raw_vec17capacity_overflow, symObjAddr: 0x4124, symBinAddr: 0x1003104B8, symSize: 0x20 }
  - { offset: 0x17D803, size: 0x8, addend: 0x0, symName: __RNvCsGIExRX8pES_7___rustc25___rdl_alloc_error_handler, symObjAddr: 0x2F8, symBinAddr: 0x100310364, symSize: 0x3C }
  - { offset: 0x17D85A, size: 0x8, addend: 0x0, symName: __RNvNvNtCs8dnTdrJsiec_5alloc5alloc18handle_alloc_error8ct_error, symObjAddr: 0x4398, symBinAddr: 0x100310570, symSize: 0x20 }
  - { offset: 0x17D876, size: 0x8, addend: 0x0, symName: __RNvNtCs8dnTdrJsiec_5alloc5alloc18handle_alloc_error, symObjAddr: 0x40F8, symBinAddr: 0x10031048C, symSize: 0x18 }
  - { offset: 0x17D909, size: 0x8, addend: 0x0, symName: __RNvMNtCs8dnTdrJsiec_5alloc6stringNtB2_6String10from_utf16, symObjAddr: 0x334, symBinAddr: 0x100269DBC, symSize: 0x25C }
  - { offset: 0x17DE0D, size: 0x8, addend: 0x0, symName: __RNvMNtCs8dnTdrJsiec_5alloc6stringNtB2_6String11try_reserve, symObjAddr: 0x590, symBinAddr: 0x10026A018, symSize: 0x9C }
  - { offset: 0x17DF61, size: 0x8, addend: 0x0, symName: __RNvMNtCs8dnTdrJsiec_5alloc6stringNtB2_6String12from_utf16be, symObjAddr: 0x62C, symBinAddr: 0x10026A0B4, symSize: 0x394 }
  - { offset: 0x17E3F3, size: 0x8, addend: 0x0, symName: __RNvMNtCs8dnTdrJsiec_5alloc6stringNtB2_6String12from_utf16le, symObjAddr: 0x9C0, symBinAddr: 0x10026A448, symSize: 0x3C0 }
  - { offset: 0x17E88D, size: 0x8, addend: 0x0, symName: __RNvMNtCs8dnTdrJsiec_5alloc6stringNtB2_6String15from_utf8_lossy, symObjAddr: 0xD80, symBinAddr: 0x10026A808, symSize: 0x230 }
  - { offset: 0x17EE61, size: 0x8, addend: 0x0, symName: __RNvMNtCs8dnTdrJsiec_5alloc6stringNtB2_6String17try_reserve_exact, symObjAddr: 0xFB0, symBinAddr: 0x10026AA38, symSize: 0x84 }
  - { offset: 0x17EF77, size: 0x8, addend: 0x0, symName: __RNvMNtCs8dnTdrJsiec_5alloc6stringNtB2_6String18from_utf16be_lossy, symObjAddr: 0x1034, symBinAddr: 0x10026AABC, symSize: 0x2C4 }
  - { offset: 0x17F5A3, size: 0x8, addend: 0x0, symName: __RNvMNtCs8dnTdrJsiec_5alloc6stringNtB2_6String18from_utf16le_lossy, symObjAddr: 0x12F8, symBinAddr: 0x10026AD80, symSize: 0x384 }
  - { offset: 0x17FFAC, size: 0x8, addend: 0x0, symName: __RNvMNtCs8dnTdrJsiec_5alloc6stringNtB2_6String21from_utf8_lossy_owned, symObjAddr: 0x167C, symBinAddr: 0x10026B104, symSize: 0xB8 }
  - { offset: 0x1803D9, size: 0x8, addend: 0x0, symName: __RNvXNvMNtCs8dnTdrJsiec_5alloc6stringNtB5_6String6retainNtB2_12SetLenOnDropNtNtNtCs6sq8b9ugfBC_4core3ops4drop4Drop4drop, symObjAddr: 0x43B8, symBinAddr: 0x10026DC50, symSize: 0x14 }
  - { offset: 0x180414, size: 0x8, addend: 0x0, symName: __RINvXs5_NtCs8dnTdrJsiec_5alloc6stringNtB6_6StringINtNtNtNtCs6sq8b9ugfBC_4core4iter6traits7collect12FromIteratorcE9from_iterINtNtNtBS_8adapters3map3MapINtNtNtBU_4char6decode11DecodeUtf16INtNtB22_6cloned6ClonedINtNtNtBU_5slice4iter4ItertEEENCNvMB6_Bz_16from_utf16_lossy0EEB8_, symObjAddr: 0xA8, symBinAddr: 0x100269B6C, symSize: 0x250 }
  - { offset: 0x180949, size: 0x8, addend: 0x0, symName: __RNvMs19_NtCs8dnTdrJsiec_5alloc6stringNtB6_5Drain6as_str, symObjAddr: 0x1734, symBinAddr: 0x10026B1BC, symSize: 0x10 }
  - { offset: 0x180961, size: 0x8, addend: 0x0, symName: __RNvMs19_NtCs8dnTdrJsiec_5alloc6stringNtB6_5Drain6as_str, symObjAddr: 0x1734, symBinAddr: 0x10026B1BC, symSize: 0x10 }
  - { offset: 0x180977, size: 0x8, addend: 0x0, symName: __RNvMs19_NtCs8dnTdrJsiec_5alloc6stringNtB6_5Drain6as_str, symObjAddr: 0x1734, symBinAddr: 0x10026B1BC, symSize: 0x10 }
  - { offset: 0x18098C, size: 0x8, addend: 0x0, symName: __RNvMs19_NtCs8dnTdrJsiec_5alloc6stringNtB6_5Drain6as_str, symObjAddr: 0x1734, symBinAddr: 0x10026B1BC, symSize: 0x10 }
  - { offset: 0x1809F9, size: 0x8, addend: 0x0, symName: __RNvMs_NtCs8dnTdrJsiec_5alloc6stringNtB4_13FromUtf8Error15into_utf8_lossy, symObjAddr: 0x39E8, symBinAddr: 0x10026D384, symSize: 0x1FC }
  - { offset: 0x1811D6, size: 0x8, addend: 0x0, symName: __RNvXs0_NtCs8dnTdrJsiec_5alloc6stringNtB5_13FromUtf8ErrorNtNtCs6sq8b9ugfBC_4core3fmt7Display3fmt, symObjAddr: 0x43CC, symBinAddr: 0x10026DC64, symSize: 0x8 }
  - { offset: 0x181245, size: 0x8, addend: 0x0, symName: __RNvXs10_NtCs8dnTdrJsiec_5alloc6stringNtB6_9IntoCharsNtNtCs6sq8b9ugfBC_4core3fmt5Debug3fmt, symObjAddr: 0x4500, symBinAddr: 0x10026DD98, symSize: 0x68 }
  - { offset: 0x18131C, size: 0x8, addend: 0x0, symName: __RNvXs15_NtCs8dnTdrJsiec_5alloc6stringNtB6_5DrainNtNtCs6sq8b9ugfBC_4core3fmt5Debug3fmt, symObjAddr: 0x4568, symBinAddr: 0x10026DE00, symSize: 0x64 }
  - { offset: 0x1813DC, size: 0x8, addend: 0x0, symName: __RNvXs18_NtCs8dnTdrJsiec_5alloc6stringNtB6_5DrainNtNtNtCs6sq8b9ugfBC_4core3ops4drop4Drop4drop, symObjAddr: 0x45CC, symBinAddr: 0x10026DE64, symSize: 0x78 }
  - { offset: 0x181551, size: 0x8, addend: 0x0, symName: __RNvXs1_NtCs8dnTdrJsiec_5alloc6stringNtB5_14FromUtf16ErrorNtNtCs6sq8b9ugfBC_4core3fmt7Display3fmt, symObjAddr: 0x467C, symBinAddr: 0x10026DF14, symSize: 0x14 }
  - { offset: 0x181573, size: 0x8, addend: 0x0, symName: __RNvXs1a_NtCs8dnTdrJsiec_5alloc6stringNtB6_5DrainINtNtCs6sq8b9ugfBC_4core7convert5AsRefeE6as_ref, symObjAddr: 0x47AC, symBinAddr: 0x10026E044, symSize: 0x10 }
  - { offset: 0x181592, size: 0x8, addend: 0x0, symName: __RNvXs1a_NtCs8dnTdrJsiec_5alloc6stringNtB6_5DrainINtNtCs6sq8b9ugfBC_4core7convert5AsRefeE6as_ref, symObjAddr: 0x47AC, symBinAddr: 0x10026E044, symSize: 0x10 }
  - { offset: 0x1815A8, size: 0x8, addend: 0x0, symName: __RNvXs1a_NtCs8dnTdrJsiec_5alloc6stringNtB6_5DrainINtNtCs6sq8b9ugfBC_4core7convert5AsRefeE6as_ref, symObjAddr: 0x47AC, symBinAddr: 0x10026E044, symSize: 0x10 }
  - { offset: 0x1815BE, size: 0x8, addend: 0x0, symName: __RNvXs1a_NtCs8dnTdrJsiec_5alloc6stringNtB6_5DrainINtNtCs6sq8b9ugfBC_4core7convert5AsRefeE6as_ref, symObjAddr: 0x47AC, symBinAddr: 0x10026E044, symSize: 0x10 }
  - { offset: 0x1815D3, size: 0x8, addend: 0x0, symName: __RNvXs1a_NtCs8dnTdrJsiec_5alloc6stringNtB6_5DrainINtNtCs6sq8b9ugfBC_4core7convert5AsRefeE6as_ref, symObjAddr: 0x47AC, symBinAddr: 0x10026E044, symSize: 0x10 }
  - { offset: 0x181633, size: 0x8, addend: 0x0, symName: __RNvXs1c_NtCs8dnTdrJsiec_5alloc6stringNtB6_5DrainNtNtNtNtCs6sq8b9ugfBC_4core4iter6traits8iterator8Iterator9size_hint, symObjAddr: 0x47BC, symBinAddr: 0x10026E054, symSize: 0x24 }
  - { offset: 0x181652, size: 0x8, addend: 0x0, symName: __RNvXs1c_NtCs8dnTdrJsiec_5alloc6stringNtB6_5DrainNtNtNtNtCs6sq8b9ugfBC_4core4iter6traits8iterator8Iterator9size_hint, symObjAddr: 0x47BC, symBinAddr: 0x10026E054, symSize: 0x24 }
  - { offset: 0x181668, size: 0x8, addend: 0x0, symName: __RNvXs1c_NtCs8dnTdrJsiec_5alloc6stringNtB6_5DrainNtNtNtNtCs6sq8b9ugfBC_4core4iter6traits8iterator8Iterator9size_hint, symObjAddr: 0x47BC, symBinAddr: 0x10026E054, symSize: 0x24 }
  - { offset: 0x1816DB, size: 0x8, addend: 0x0, symName: __RNvXs4_NtCs8dnTdrJsiec_5alloc6stringNtB5_6StringNtNtCs6sq8b9ugfBC_4core5clone5Clone10clone_from, symObjAddr: 0x4874, symBinAddr: 0x10026E10C, symSize: 0x88 }
  - { offset: 0x1818C0, size: 0x8, addend: 0x0, symName: __RNvXs4_NtCs8dnTdrJsiec_5alloc6stringNtB5_6StringNtNtCs6sq8b9ugfBC_4core5clone5Clone5clone, symObjAddr: 0x48FC, symBinAddr: 0x10026E194, symSize: 0x70 }
  - { offset: 0x1819D2, size: 0x8, addend: 0x0, symName: __RNvXsO_NtCs8dnTdrJsiec_5alloc6stringINtNtB7_5boxed3BoxeEINtNtCs6sq8b9ugfBC_4core7convert4FromNtB5_6StringE4from, symObjAddr: 0x4B54, symBinAddr: 0x10026E3EC, symSize: 0x98 }
  - { offset: 0x181BE7, size: 0x8, addend: 0x0, symName: __RNvXsP_NtCs8dnTdrJsiec_5alloc6stringNtB5_6StringINtNtCs6sq8b9ugfBC_4core7convert4FromINtNtB7_6borrow3CoweEE4from, symObjAddr: 0x4BEC, symBinAddr: 0x10026E484, symSize: 0x98 }
  - { offset: 0x181D41, size: 0x8, addend: 0x0, symName: __RNvXsY_NtCs8dnTdrJsiec_5alloc6stringNtB5_6StringINtNtCs6sq8b9ugfBC_4core7convert7TryFromINtNtB7_3vec3VechEE8try_from, symObjAddr: 0x4C84, symBinAddr: 0x10026E51C, symSize: 0xAC }
  - { offset: 0x181EC8, size: 0x8, addend: 0x0, symName: __RNvXsZ_NtCs8dnTdrJsiec_5alloc6stringNtB5_6StringNtNtCs6sq8b9ugfBC_4core3fmt5Write10write_char, symObjAddr: 0x4D30, symBinAddr: 0x10026E5C8, symSize: 0x114 }
  - { offset: 0x18207E, size: 0x8, addend: 0x0, symName: __RNvXsZ_NtCs8dnTdrJsiec_5alloc6stringNtB5_6StringNtNtCs6sq8b9ugfBC_4core3fmt5Write9write_str, symObjAddr: 0x4E44, symBinAddr: 0x10026E6DC, symSize: 0x7C }
  - { offset: 0x1821FE, size: 0x8, addend: 0x0, symName: __RNvXsh_NtCs8dnTdrJsiec_5alloc6stringSReNtB5_13SpecExtendStr16spec_extend_into, symObjAddr: 0x52F0, symBinAddr: 0x10026EB88, symSize: 0xCC }
  - { offset: 0x1823E1, size: 0x8, addend: 0x0, symName: __RNvXso_NtCs8dnTdrJsiec_5alloc6stringRNtB5_6StringNtNtNtCs6sq8b9ugfBC_4core3str7pattern7Pattern13into_searcher, symObjAddr: 0x57F4, symBinAddr: 0x10026F08C, symSize: 0x14 }
  - { offset: 0x1829EF, size: 0x8, addend: 0x0, symName: __RNvNvMs_NtCs8dnTdrJsiec_5alloc3vecINtB6_3VecppE10insert_mut13assert_failed, symObjAddr: 0x4144, symBinAddr: 0x1003104D8, symSize: 0x24 }
  - { offset: 0x182A11, size: 0x8, addend: 0x0, symName: __RNvNvMs_NtCs8dnTdrJsiec_5alloc3vecINtB6_3VecppE11swap_remove13assert_failed, symObjAddr: 0x4168, symBinAddr: 0x1003104FC, symSize: 0x2C }
  - { offset: 0x182A33, size: 0x8, addend: 0x0, symName: __RNvNvMs_NtCs8dnTdrJsiec_5alloc3vecINtB6_3VecppE6remove13assert_failed, symObjAddr: 0x4194, symBinAddr: 0x100310528, symSize: 0x24 }
  - { offset: 0x182A55, size: 0x8, addend: 0x0, symName: __RNvNvMs_NtCs8dnTdrJsiec_5alloc3vecINtB6_3VecppE9split_off13assert_failed, symObjAddr: 0x41B8, symBinAddr: 0x10031054C, symSize: 0x24 }
  - { offset: 0x182B2B, size: 0x8, addend: 0x0, symName: __RNvXsD_NtCs8dnTdrJsiec_5alloc3vecINtB5_3VechEINtNtCs6sq8b9ugfBC_4core7convert4FromReE4from, symObjAddr: 0x4ACC, symBinAddr: 0x10026E364, symSize: 0x74 }
  - { offset: 0x182C7E, size: 0x8, addend: 0x0, symName: __RNvMs2_NtCs8dnTdrJsiec_5alloc4wtf8NtB5_7Wtf8Buf11into_string, symObjAddr: 0x1744, symBinAddr: 0x10026B1CC, symSize: 0xCC }
  - { offset: 0x182DA8, size: 0x8, addend: 0x0, symName: __RNvMs2_NtCs8dnTdrJsiec_5alloc4wtf8NtB5_7Wtf8Buf17into_string_lossy, symObjAddr: 0x1810, symBinAddr: 0x10026B298, symSize: 0x164 }
  - { offset: 0x183032, size: 0x8, addend: 0x0, symName: __RNvMs2_NtCs8dnTdrJsiec_5alloc4wtf8NtB5_7Wtf8Buf25push_code_point_unchecked, symObjAddr: 0x1974, symBinAddr: 0x10026B3FC, symSize: 0x104 }
  - { offset: 0x1831C1, size: 0x8, addend: 0x0, symName: __RNvMs2_NtCs8dnTdrJsiec_5alloc4wtf8NtB5_7Wtf8Buf8from_box, symObjAddr: 0x1A78, symBinAddr: 0x10026B500, symSize: 0x10 }
  - { offset: 0x183204, size: 0x8, addend: 0x0, symName: __RNvMs2_NtCs8dnTdrJsiec_5alloc4wtf8NtB5_7Wtf8Buf9from_wide, symObjAddr: 0x1A88, symBinAddr: 0x10026B510, symSize: 0x42C }
  - { offset: 0x18373B, size: 0x8, addend: 0x0, symName: __RNvXs1_NtCs8dnTdrJsiec_5alloc4wtf8NtB5_7Wtf8BufNtNtCs6sq8b9ugfBC_4core3fmt7Display3fmt, symObjAddr: 0x465C, symBinAddr: 0x10026DEF4, symSize: 0x20 }
  - { offset: 0x1837D3, size: 0x8, addend: 0x0, symName: __RNvMs3_NtCs8dnTdrJsiec_5alloc3stre12to_lowercase, symObjAddr: 0x1EB4, symBinAddr: 0x10026B93C, symSize: 0xBC4 }
  - { offset: 0x184704, size: 0x8, addend: 0x0, symName: __RNvMs3_NtCs8dnTdrJsiec_5alloc3stre12to_uppercase, symObjAddr: 0x2A78, symBinAddr: 0x10026C500, symSize: 0x7A8 }
  - { offset: 0x185435, size: 0x8, addend: 0x0, symName: __RNvNtCs8dnTdrJsiec_5alloc2rc32rc_inner_layout_for_value_layout, symObjAddr: 0x4010, symBinAddr: 0x10026D9AC, symSize: 0x74 }
  - { offset: 0x1855F5, size: 0x8, addend: 0x0, symName: __RNvNtCs8dnTdrJsiec_5alloc4sync32arcinner_layout_for_value_layout, symObjAddr: 0x4084, symBinAddr: 0x10026DA20, symSize: 0x74 }
  - { offset: 0x1857E6, size: 0x8, addend: 0x0, symName: __RNvXs0_NvXsf_NtNtCs8dnTdrJsiec_5alloc5boxed7convertINtBd_3BoxDNtNtCs6sq8b9ugfBC_4core5error5ErrorNtNtB12_6marker4SyncNtB1z_4SendEL_EINtNtB12_7convert4FromNtNtBf_6string6StringE4fromNtB5_11StringErrorNtNtB12_3fmt5Debug3fmt, symObjAddr: 0x44F0, symBinAddr: 0x10026DD88, symSize: 0x10 }
  - { offset: 0x1858C0, size: 0x8, addend: 0x0, symName: __RNvXs_NvXsf_NtNtCs8dnTdrJsiec_5alloc5boxed7convertINtBc_3BoxDNtNtCs6sq8b9ugfBC_4core5error5ErrorNtNtB11_6marker4SyncNtB1y_4SendEL_EINtNtB11_7convert4FromNtNtBe_6string6StringE4fromNtB4_11StringErrorNtNtB11_3fmt7Display3fmt, symObjAddr: 0x4FDC, symBinAddr: 0x10026E874, symSize: 0x10 }
  - { offset: 0x1859B8, size: 0x8, addend: 0x0, symName: __RNvXsg_NtNtCs8dnTdrJsiec_5alloc5boxed7convertINtB7_3BoxDNtNtCs6sq8b9ugfBC_4core5error5ErrorEL_EINtNtBW_7convert4FromNtNtB9_6string6StringE4from, symObjAddr: 0x5068, symBinAddr: 0x10026E900, symSize: 0x7C }
  - { offset: 0x185B62, size: 0x8, addend: 0x0, symName: __RNvXsi_NtNtCs8dnTdrJsiec_5alloc5boxed7convertINtB7_3BoxDNtNtCs6sq8b9ugfBC_4core5error5ErrorEL_EINtNtBW_7convert4FromReE4from, symObjAddr: 0x564C, symBinAddr: 0x10026EEE4, symSize: 0xC8 }
  - { offset: 0x185E17, size: 0x8, addend: 0x0, symName: __RNvXsj_NtNtCs8dnTdrJsiec_5alloc5boxed7convertINtB7_3BoxDNtNtCs6sq8b9ugfBC_4core5error5ErrorNtNtBW_6marker4SyncNtB1t_4SendEL_EINtNtBW_7convert4FromINtNtB9_6borrow3CoweEE4from, symObjAddr: 0x5714, symBinAddr: 0x10026EFAC, symSize: 0xE0 }
  - { offset: 0x1860CD, size: 0x8, addend: 0x0, symName: __RNvXsf_NtCs8dnTdrJsiec_5alloc5boxedINtB5_3BoxeENtNtCs6sq8b9ugfBC_4core5clone5Clone5clone, symObjAddr: 0x5000, symBinAddr: 0x10026E898, symSize: 0x68 }
  - { offset: 0x18623C, size: 0x8, addend: 0x0, symName: __RNvMs_NtNtCs8dnTdrJsiec_5alloc3ffi5c_strNtB4_7CString10into_bytes, symObjAddr: 0x3BE4, symBinAddr: 0x10026D580, symSize: 0x18 }
  - { offset: 0x186254, size: 0x8, addend: 0x0, symName: __RNvMs_NtNtCs8dnTdrJsiec_5alloc3ffi5c_strNtB4_7CString10into_bytes, symObjAddr: 0x3BE4, symBinAddr: 0x10026D580, symSize: 0x18 }
  - { offset: 0x18626A, size: 0x8, addend: 0x0, symName: __RNvMs_NtNtCs8dnTdrJsiec_5alloc3ffi5c_strNtB4_7CString10into_bytes, symObjAddr: 0x3BE4, symBinAddr: 0x10026D580, symSize: 0x18 }
  - { offset: 0x1862A2, size: 0x8, addend: 0x0, symName: __RNvMs_NtNtCs8dnTdrJsiec_5alloc3ffi5c_strNtB4_7CString11into_string, symObjAddr: 0x3BFC, symBinAddr: 0x10026D598, symSize: 0xD4 }
  - { offset: 0x186401, size: 0x8, addend: 0x0, symName: __RNvMs_NtNtCs8dnTdrJsiec_5alloc3ffi5c_strNtB4_7CString17from_vec_with_nul, symObjAddr: 0x3CD0, symBinAddr: 0x10026D66C, symSize: 0x154 }
  - { offset: 0x186670, size: 0x8, addend: 0x0, symName: __RNvMs_NtNtCs8dnTdrJsiec_5alloc3ffi5c_strNtB4_7CString18from_vec_unchecked, symObjAddr: 0x3E24, symBinAddr: 0x10026D7C0, symSize: 0x4 }
  - { offset: 0x18668B, size: 0x8, addend: 0x0, symName: __RNvMs_NtNtCs8dnTdrJsiec_5alloc3ffi5c_strNtB4_7CString19__from_vec_unchecked, symObjAddr: 0x3E28, symBinAddr: 0x10026D7C4, symSize: 0x118 }
  - { offset: 0x186A1D, size: 0x8, addend: 0x0, symName: __RNvMs_NtNtCs8dnTdrJsiec_5alloc3ffi5c_strNtB4_7CString19into_bytes_with_nul, symObjAddr: 0x3F40, symBinAddr: 0x10026D8DC, symSize: 0xC }
  - { offset: 0x186A3C, size: 0x8, addend: 0x0, symName: __RNvMs_NtNtCs8dnTdrJsiec_5alloc3ffi5c_strNtB4_7CString19into_bytes_with_nul, symObjAddr: 0x3F40, symBinAddr: 0x10026D8DC, symSize: 0xC }
  - { offset: 0x186A52, size: 0x8, addend: 0x0, symName: __RNvMs_NtNtCs8dnTdrJsiec_5alloc3ffi5c_strNtB4_7CString19into_bytes_with_nul, symObjAddr: 0x3F40, symBinAddr: 0x10026D8DC, symSize: 0xC }
  - { offset: 0x186A66, size: 0x8, addend: 0x0, symName: __RNvMs_NtNtCs8dnTdrJsiec_5alloc3ffi5c_strNtB4_7CString27from_vec_with_nul_unchecked, symObjAddr: 0x3F4C, symBinAddr: 0x10026D8E8, symSize: 0x9C }
  - { offset: 0x186CB0, size: 0x8, addend: 0x0, symName: __RNvMs_NtNtCs8dnTdrJsiec_5alloc3ffi5c_strNtB4_7CString8from_raw, symObjAddr: 0x3FE8, symBinAddr: 0x10026D984, symSize: 0x28 }
  - { offset: 0x186D1D, size: 0x8, addend: 0x0, symName: __RNvXs0_NvMs_NtNtCs8dnTdrJsiec_5alloc3ffi5c_strNtBa_7CString3newReNtB5_11SpecNewImpl13spec_new_impl, symObjAddr: 0x43D4, symBinAddr: 0x10026DC6C, symSize: 0x11C }
  - { offset: 0x186F71, size: 0x8, addend: 0x0, symName: __RNvXs1_NvMs_NtNtCs8dnTdrJsiec_5alloc3ffi5c_strNtBa_7CString3newQShNtB5_11SpecNewImpl13spec_new_impl, symObjAddr: 0x4690, symBinAddr: 0x10026DF28, symSize: 0x11C }
  - { offset: 0x1871C5, size: 0x8, addend: 0x0, symName: __RNvXs_NvMs_NtNtCs8dnTdrJsiec_5alloc3ffi5c_strNtB9_7CString3newRShNtB4_11SpecNewImpl13spec_new_impl, symObjAddr: 0x4EC0, symBinAddr: 0x10026E758, symSize: 0x11C }
  - { offset: 0x18741B, size: 0x8, addend: 0x0, symName: __RNvXs2_NtNtCs8dnTdrJsiec_5alloc3ffi5c_strNtB5_7CStringNtNtCs6sq8b9ugfBC_4core3fmt5Debug3fmt, symObjAddr: 0x4864, symBinAddr: 0x10026E0FC, symSize: 0x10 }
  - { offset: 0x187479, size: 0x8, addend: 0x0, symName: __RNvXsw_NtNtCs8dnTdrJsiec_5alloc3ffi5c_strNtNtNtCs6sq8b9ugfBC_4core3ffi5c_str4CStrNtNtB9_6borrow7ToOwned10clone_into, symObjAddr: 0x5930, symBinAddr: 0x10026F1C8, symSize: 0x120 }
  - { offset: 0x187819, size: 0x8, addend: 0x0, symName: __RNvXs4_NtNtCs8dnTdrJsiec_5alloc3ffi5c_strNtB5_7CStringNtNtCs6sq8b9ugfBC_4core7default7Default7default, symObjAddr: 0x496C, symBinAddr: 0x10026E204, symSize: 0x38 }
  - { offset: 0x187950, size: 0x8, addend: 0x0, symName: __RNvXs7_NtNtCs8dnTdrJsiec_5alloc3ffi5c_strINtNtB9_5boxed3BoxNtNtNtCs6sq8b9ugfBC_4core3ffi5c_str4CStrEINtNtB11_7convert4FromRBV_E4from, symObjAddr: 0x49A4, symBinAddr: 0x10026E23C, symSize: 0x94 }
  - { offset: 0x187AB6, size: 0x8, addend: 0x0, symName: __RNvXs8_NtNtCs8dnTdrJsiec_5alloc3ffi5c_strINtNtB9_5boxed3BoxNtNtNtCs6sq8b9ugfBC_4core3ffi5c_str4CStrEINtNtB11_7convert4FromQBV_E4from, symObjAddr: 0x4A38, symBinAddr: 0x10026E2D0, symSize: 0x94 }
  - { offset: 0x187C24, size: 0x8, addend: 0x0, symName: __RNvXsq_NtNtCs8dnTdrJsiec_5alloc3ffi5c_strINtNtB9_5boxed3BoxNtNtNtCs6sq8b9ugfBC_4core3ffi5c_str4CStrENtNtB11_7default7Default7default, symObjAddr: 0x5808, symBinAddr: 0x10026F0A0, symSize: 0x74 }
  - { offset: 0x187D92, size: 0x8, addend: 0x0, symName: __RNvXss_NtNtCs8dnTdrJsiec_5alloc3ffi5c_strNtB5_8NulErrorNtNtCs6sq8b9ugfBC_4core3fmt7Display3fmt, symObjAddr: 0x587C, symBinAddr: 0x10026F114, symSize: 0x3C }
  - { offset: 0x187DCC, size: 0x8, addend: 0x0, symName: __RNvXst_NtNtCs8dnTdrJsiec_5alloc3ffi5c_strNtB5_19FromVecWithNulErrorNtNtCs6sq8b9ugfBC_4core3fmt7Display3fmt, symObjAddr: 0x58B8, symBinAddr: 0x10026F150, symSize: 0x64 }
  - { offset: 0x187E1D, size: 0x8, addend: 0x0, symName: __RNvXsv_NtNtCs8dnTdrJsiec_5alloc3ffi5c_strNtB5_15IntoStringErrorNtNtCs6sq8b9ugfBC_4core3fmt7Display3fmt, symObjAddr: 0x591C, symBinAddr: 0x10026F1B4, symSize: 0x14 }
  - { offset: 0x187E7B, size: 0x8, addend: 0x0, symName: __RNvXs1K_NtNtNtCs8dnTdrJsiec_5alloc11collections5btree3mapNtB6_17UnorderedKeyErrorNtNtCs6sq8b9ugfBC_4core3fmt7Display3fmt, symObjAddr: 0x4644, symBinAddr: 0x10026DEDC, symSize: 0x18 }
  - { offset: 0x187E9A, size: 0x8, addend: 0x0, symName: __RNvXs1K_NtNtNtCs8dnTdrJsiec_5alloc11collections5btree3mapNtB6_17UnorderedKeyErrorNtNtCs6sq8b9ugfBC_4core3fmt7Display3fmt, symObjAddr: 0x4644, symBinAddr: 0x10026DEDC, symSize: 0x18 }
  - { offset: 0x187EB7, size: 0x8, addend: 0x0, symName: __RNvXs2_NtCs8dnTdrJsiec_5alloc11collectionsNtB5_15TryReserveErrorNtNtCs6sq8b9ugfBC_4core3fmt7Display3fmt, symObjAddr: 0x47F0, symBinAddr: 0x10026E088, symSize: 0x74 }
  - { offset: 0x187EF5, size: 0x8, addend: 0x0, symName: __RNvNvNtCs8dnTdrJsiec_5alloc3fmt6format12format_inner, symObjAddr: 0x41DC, symBinAddr: 0x10026DA94, symSize: 0x1BC }
  - { offset: 0x18821F, size: 0x8, addend: 0x0, symName: __RNvXsh_NtCs8dnTdrJsiec_5alloc6borrowINtB5_3CoweEINtNtNtCs6sq8b9ugfBC_4core3ops5arith9AddAssignReE10add_assign, symObjAddr: 0x50E4, symBinAddr: 0x10026E97C, symSize: 0x20C }
  - { offset: 0x1887DE, size: 0x8, addend: 0x0, symName: __RNvXsi_NtCs8dnTdrJsiec_5alloc6borrowINtB5_3CoweENtNtNtCs6sq8b9ugfBC_4core3ops5arith9AddAssign10add_assign, symObjAddr: 0x53BC, symBinAddr: 0x10026EC54, symSize: 0x290 }
  - { offset: 0x188FB5, size: 0x8, addend: 0x0, symName: __RINvNtCs6sq8b9ugfBC_4core3ptr13drop_in_placeNtNtCs8dnTdrJsiec_5alloc6string6StringEBK_, symObjAddr: 0x0, symBinAddr: 0x100269B3C, symSize: 0x18 }
  - { offset: 0x189084, size: 0x8, addend: 0x0, symName: __RINvNtCs6sq8b9ugfBC_4core3ptr13drop_in_placeNtNvXsf_NtNtCs8dnTdrJsiec_5alloc5boxed7convertINtBQ_3BoxDNtNtB4_5error5ErrorNtNtB4_6marker4SyncNtB1W_4SendEL_EINtNtB4_7convert4FromNtNtBS_6string6StringE4from11StringErrorEBS_, symObjAddr: 0x18, symBinAddr: 0x100269B54, symSize: 0x18 }
  - { offset: 0x18909C, size: 0x8, addend: 0x0, symName: __RINvNtCs6sq8b9ugfBC_4core3ptr13drop_in_placeNtNvXsf_NtNtCs8dnTdrJsiec_5alloc5boxed7convertINtBQ_3BoxDNtNtB4_5error5ErrorNtNtB4_6marker4SyncNtB1W_4SendEL_EINtNtB4_7convert4FromNtNtBS_6string6StringE4from11StringErrorEBS_, symObjAddr: 0x18, symBinAddr: 0x100269B54, symSize: 0x18 }
  - { offset: 0x18A2A4, size: 0x8, addend: 0x0, symName: __RNvMs5_NtCs8dnTdrJsiec_5alloc4wtf8NtNtCs6sq8b9ugfBC_4core4wtf84Wtf810clone_into, symObjAddr: 0x330C, symBinAddr: 0x10026CCA8, symSize: 0x84 }
  - { offset: 0x18A426, size: 0x8, addend: 0x0, symName: __RNvMs5_NtCs8dnTdrJsiec_5alloc4wtf8NtNtCs6sq8b9ugfBC_4core4wtf84Wtf815to_string_lossy, symObjAddr: 0x3390, symBinAddr: 0x10026CD2C, symSize: 0x404 }
  - { offset: 0x18AC88, size: 0x8, addend: 0x0, symName: __RNvMs5_NtCs8dnTdrJsiec_5alloc4wtf8NtNtCs6sq8b9ugfBC_4core4wtf84Wtf87into_rc, symObjAddr: 0x3794, symBinAddr: 0x10026D130, symSize: 0xB4 }
  - { offset: 0x18AE4B, size: 0x8, addend: 0x0, symName: __RNvMs5_NtCs8dnTdrJsiec_5alloc4wtf8NtNtCs6sq8b9ugfBC_4core4wtf84Wtf88into_arc, symObjAddr: 0x3848, symBinAddr: 0x10026D1E4, symSize: 0xB4 }
  - { offset: 0x18AFE9, size: 0x8, addend: 0x0, symName: __RNvMs5_NtCs8dnTdrJsiec_5alloc4wtf8NtNtCs6sq8b9ugfBC_4core4wtf84Wtf88into_box, symObjAddr: 0x38FC, symBinAddr: 0x10026D298, symSize: 0x6C }
  - { offset: 0x18B122, size: 0x8, addend: 0x0, symName: __RNvMs5_NtCs8dnTdrJsiec_5alloc4wtf8NtNtCs6sq8b9ugfBC_4core4wtf84Wtf88to_owned, symObjAddr: 0x3968, symBinAddr: 0x10026D304, symSize: 0x74 }
  - { offset: 0x18B310, size: 0x8, addend: 0x0, symName: __RNvXsd_NtNtCs6sq8b9ugfBC_4core5alloc6layoutNtB5_11LayoutErrorNtNtB9_3fmt5Debug3fmt, symObjAddr: 0x4FEC, symBinAddr: 0x10026E884, symSize: 0x14 }
  - { offset: 0x18B3CC, size: 0x8, addend: 0x0, symName: __RNvMsD_NtNtCs8dnTdrJsiec_5alloc3ffi5c_strNtNtNtCs6sq8b9ugfBC_4core3ffi5c_str4CStr13into_c_string, symObjAddr: 0x39DC, symBinAddr: 0x10026D378, symSize: 0x4 }
  - { offset: 0x18B3F5, size: 0x8, addend: 0x0, symName: __RNvMsD_NtNtCs8dnTdrJsiec_5alloc3ffi5c_strNtNtNtCs6sq8b9ugfBC_4core3ffi5c_str4CStr15to_string_lossy, symObjAddr: 0x39E0, symBinAddr: 0x10026D37C, symSize: 0x8 }
  - { offset: 0x18B414, size: 0x8, addend: 0x0, symName: __RNvMsD_NtNtCs8dnTdrJsiec_5alloc3ffi5c_strNtNtNtCs6sq8b9ugfBC_4core3ffi5c_str4CStr15to_string_lossy, symObjAddr: 0x39E0, symBinAddr: 0x10026D37C, symSize: 0x8 }
  - { offset: 0x18B502, size: 0x8, addend: 0x0, symName: __RNvYNtNtCs8dnTdrJsiec_5alloc6string6StringNtNtCs6sq8b9ugfBC_4core3fmt5Write9write_fmtB6_, symObjAddr: 0x5A50, symBinAddr: 0x10026F2E8, symSize: 0x14 }
  - { offset: 0x18B56A, size: 0x8, addend: 0x0, symName: __RNvXs1g_NtCs6sq8b9ugfBC_4core3fmtReNtB6_5Debug3fmtCs8dnTdrJsiec_5alloc, symObjAddr: 0x47E0, symBinAddr: 0x10026E078, symSize: 0x10 }
  - { offset: 0x18B58C, size: 0x8, addend: 0x0, symName: __RNvXsK_NtCs6sq8b9ugfBC_4core3fmtNtB5_5ErrorNtB5_5Debug3fmt, symObjAddr: 0x4B40, symBinAddr: 0x10026E3D8, symSize: 0x14 }
  - { offset: 0x18B5B4, size: 0x8, addend: 0x0, symName: __RNvYNtNvXsf_NtNtCs8dnTdrJsiec_5alloc5boxed7convertINtBc_3BoxDNtNtCs6sq8b9ugfBC_4core5error5ErrorNtNtB11_6marker4SyncNtB1y_4SendEL_EINtNtB11_7convert4FromNtNtBe_6string6StringE4from11StringErrorBX_11descriptionBe_, symObjAddr: 0x5A64, symBinAddr: 0x10026F2FC, symSize: 0x10 }
  - { offset: 0x18B5CE, size: 0x8, addend: 0x0, symName: __RNvYNtNvXsf_NtNtCs8dnTdrJsiec_5alloc5boxed7convertINtBc_3BoxDNtNtCs6sq8b9ugfBC_4core5error5ErrorNtNtB11_6marker4SyncNtB1y_4SendEL_EINtNtB11_7convert4FromNtNtBe_6string6StringE4from11StringErrorBX_5causeBe_, symObjAddr: 0x5A74, symBinAddr: 0x10026F30C, symSize: 0x8 }
  - { offset: 0x18B5E8, size: 0x8, addend: 0x0, symName: __RNvYNtNvXsf_NtNtCs8dnTdrJsiec_5alloc5boxed7convertINtBc_3BoxDNtNtCs6sq8b9ugfBC_4core5error5ErrorNtNtB11_6marker4SyncNtB1y_4SendEL_EINtNtB11_7convert4FromNtNtBe_6string6StringE4from11StringErrorBX_7provideBe_, symObjAddr: 0x5A7C, symBinAddr: 0x10026F314, symSize: 0x4 }
  - { offset: 0x18B603, size: 0x8, addend: 0x0, symName: __RNvYNtNvXsf_NtNtCs8dnTdrJsiec_5alloc5boxed7convertINtBc_3BoxDNtNtCs6sq8b9ugfBC_4core5error5ErrorNtNtB11_6marker4SyncNtB1y_4SendEL_EINtNtB11_7convert4FromNtNtBe_6string6StringE4from11StringErrorBX_7type_idBe_, symObjAddr: 0x5A80, symBinAddr: 0x10026F318, symSize: 0x14 }
  - { offset: 0x18B621, size: 0x8, addend: 0x0, symName: __RNvYNtNvXsf_NtNtCs8dnTdrJsiec_5alloc5boxed7convertINtBc_3BoxDNtNtCs6sq8b9ugfBC_4core5error5ErrorNtNtB11_6marker4SyncNtB1y_4SendEL_EINtNtB11_7convert4FromNtNtBe_6string6StringE4from11StringErrorBX_7type_idBe_, symObjAddr: 0x5A80, symBinAddr: 0x10026F318, symSize: 0x14 }
  - { offset: 0x18B652, size: 0x8, addend: 0x0, symName: _OUTLINED_FUNCTION_0, symObjAddr: 0x5A94, symBinAddr: 0x10026F32C, symSize: 0x20 }
  - { offset: 0x18B66A, size: 0x8, addend: 0x0, symName: _OUTLINED_FUNCTION_1, symObjAddr: 0x5AB4, symBinAddr: 0x10026F34C, symSize: 0x8 }
  - { offset: 0x18B6A0, size: 0x8, addend: 0x0, symName: __RINvNtCs6sq8b9ugfBC_4core9panicking13assert_failedINtNtB4_6option6OptionjEBM_EB4_, symObjAddr: 0x0, symBinAddr: 0x100310590, symSize: 0x28 }
  - { offset: 0x18B6BA, size: 0x8, addend: 0x0, symName: __RINvNtCs6sq8b9ugfBC_4core9panicking13assert_failedINtNtB4_6option6OptionjEBM_EB4_, symObjAddr: 0x0, symBinAddr: 0x100310590, symSize: 0x28 }
  - { offset: 0x18B6D5, size: 0x8, addend: 0x0, symName: __RINvNtCs6sq8b9ugfBC_4core9panicking13assert_failedjjEB4_, symObjAddr: 0x28, symBinAddr: 0x1003105B8, symSize: 0x28 }
  - { offset: 0x18B6F0, size: 0x8, addend: 0x0, symName: __RINvNtCs6sq8b9ugfBC_4core9panicking13assert_failedyyEB4_, symObjAddr: 0x50, symBinAddr: 0x1003105E0, symSize: 0x28 }
  - { offset: 0x18B719, size: 0x8, addend: 0x0, symName: __RNvNtCs6sq8b9ugfBC_4core9panicking14panic_nounwind, symObjAddr: 0xB18C, symBinAddr: 0x10031087C, symSize: 0x20 }
  - { offset: 0x18B757, size: 0x8, addend: 0x0, symName: __RNvNtCs6sq8b9ugfBC_4core9panicking15const_panic_fmt, symObjAddr: 0xB1AC, symBinAddr: 0x10031089C, symSize: 0x3C }
  - { offset: 0x18B79F, size: 0x8, addend: 0x0, symName: __RNvNtCs6sq8b9ugfBC_4core9panicking16panic_in_cleanup, symObjAddr: 0xB1E8, symBinAddr: 0x1003108D8, symSize: 0x18 }
  - { offset: 0x18B7BA, size: 0x8, addend: 0x0, symName: __RNvNtCs6sq8b9ugfBC_4core9panicking18panic_bounds_check, symObjAddr: 0xB200, symBinAddr: 0x1003108F0, symSize: 0x38 }
  - { offset: 0x18B7EA, size: 0x8, addend: 0x0, symName: __RNvNtCs6sq8b9ugfBC_4core9panicking18panic_nounwind_fmt, symObjAddr: 0xB238, symBinAddr: 0x100310928, symSize: 0x30 }
  - { offset: 0x18B831, size: 0x8, addend: 0x0, symName: __RNvNtCs6sq8b9ugfBC_4core9panicking19assert_failed_inner, symObjAddr: 0xB268, symBinAddr: 0x100310958, symSize: 0xBC }
  - { offset: 0x18B84C, size: 0x8, addend: 0x0, symName: __RNvNtCs6sq8b9ugfBC_4core9panicking19panic_cannot_unwind, symObjAddr: 0xB324, symBinAddr: 0x100310A14, symSize: 0x18 }
  - { offset: 0x18B867, size: 0x8, addend: 0x0, symName: __RNvNtCs6sq8b9ugfBC_4core9panicking26panic_nounwind_nobacktrace, symObjAddr: 0xB33C, symBinAddr: 0x100310A2C, symSize: 0x20 }
  - { offset: 0x18B897, size: 0x8, addend: 0x0, symName: __RNvNtCs6sq8b9ugfBC_4core9panicking30panic_null_pointer_dereference, symObjAddr: 0xB35C, symBinAddr: 0x100310A4C, symSize: 0x1C }
  - { offset: 0x18B8B2, size: 0x8, addend: 0x0, symName: __RNvNtCs6sq8b9ugfBC_4core9panicking31panic_invalid_enum_construction, symObjAddr: 0xB378, symBinAddr: 0x100310A68, symSize: 0x34 }
  - { offset: 0x18B8CD, size: 0x8, addend: 0x0, symName: __RNvNtCs6sq8b9ugfBC_4core9panicking36panic_misaligned_pointer_dereference, symObjAddr: 0xB3AC, symBinAddr: 0x100310A9C, symSize: 0x3C }
  - { offset: 0x18B8E8, size: 0x8, addend: 0x0, symName: __RNvNtCs6sq8b9ugfBC_4core9panicking5panic, symObjAddr: 0xB3E8, symBinAddr: 0x100310AD8, symSize: 0x14 }
  - { offset: 0x18B918, size: 0x8, addend: 0x0, symName: __RNvNtCs6sq8b9ugfBC_4core9panicking9panic_fmt, symObjAddr: 0xB3FC, symBinAddr: 0x100310AEC, symSize: 0x28 }
  - { offset: 0x18B94E, size: 0x8, addend: 0x0, symName: __RNvNtNtCs6sq8b9ugfBC_4core9panicking11panic_const23panic_const_div_by_zero, symObjAddr: 0xD184, symBinAddr: 0x100310BE8, symSize: 0x1C }
  - { offset: 0x18B968, size: 0x8, addend: 0x0, symName: __RNvNtNtCs6sq8b9ugfBC_4core9panicking11panic_const23panic_const_gen_fn_none, symObjAddr: 0xD1A0, symBinAddr: 0x100310C04, symSize: 0x1C }
  - { offset: 0x18B982, size: 0x8, addend: 0x0, symName: __RNvNtNtCs6sq8b9ugfBC_4core9panicking11panic_const23panic_const_rem_by_zero, symObjAddr: 0xD1BC, symBinAddr: 0x100310C20, symSize: 0x1C }
  - { offset: 0x18B99C, size: 0x8, addend: 0x0, symName: __RNvNtNtCs6sq8b9ugfBC_4core9panicking11panic_const24panic_const_add_overflow, symObjAddr: 0xD1D8, symBinAddr: 0x100310C3C, symSize: 0x1C }
  - { offset: 0x18B9B6, size: 0x8, addend: 0x0, symName: __RNvNtNtCs6sq8b9ugfBC_4core9panicking11panic_const24panic_const_div_overflow, symObjAddr: 0xD1F4, symBinAddr: 0x100310C58, symSize: 0x1C }
  - { offset: 0x18B9D0, size: 0x8, addend: 0x0, symName: __RNvNtNtCs6sq8b9ugfBC_4core9panicking11panic_const24panic_const_mul_overflow, symObjAddr: 0xD210, symBinAddr: 0x100310C74, symSize: 0x1C }
  - { offset: 0x18B9EA, size: 0x8, addend: 0x0, symName: __RNvNtNtCs6sq8b9ugfBC_4core9panicking11panic_const24panic_const_neg_overflow, symObjAddr: 0xD22C, symBinAddr: 0x100310C90, symSize: 0x1C }
  - { offset: 0x18BA04, size: 0x8, addend: 0x0, symName: __RNvNtNtCs6sq8b9ugfBC_4core9panicking11panic_const24panic_const_rem_overflow, symObjAddr: 0xD248, symBinAddr: 0x100310CAC, symSize: 0x1C }
  - { offset: 0x18BA1E, size: 0x8, addend: 0x0, symName: __RNvNtNtCs6sq8b9ugfBC_4core9panicking11panic_const24panic_const_shl_overflow, symObjAddr: 0xD264, symBinAddr: 0x100310CC8, symSize: 0x1C }
  - { offset: 0x18BA38, size: 0x8, addend: 0x0, symName: __RNvNtNtCs6sq8b9ugfBC_4core9panicking11panic_const24panic_const_shr_overflow, symObjAddr: 0xD280, symBinAddr: 0x100310CE4, symSize: 0x1C }
  - { offset: 0x18BA52, size: 0x8, addend: 0x0, symName: __RNvNtNtCs6sq8b9ugfBC_4core9panicking11panic_const24panic_const_sub_overflow, symObjAddr: 0xD29C, symBinAddr: 0x100310D00, symSize: 0x1C }
  - { offset: 0x18BA6C, size: 0x8, addend: 0x0, symName: __RNvNtNtCs6sq8b9ugfBC_4core9panicking11panic_const28panic_const_async_fn_resumed, symObjAddr: 0xD2B8, symBinAddr: 0x100310D1C, symSize: 0x1C }
  - { offset: 0x18BA86, size: 0x8, addend: 0x0, symName: __RNvNtNtCs6sq8b9ugfBC_4core9panicking11panic_const28panic_const_gen_fn_none_drop, symObjAddr: 0xD2D4, symBinAddr: 0x100310D38, symSize: 0x1C }
  - { offset: 0x18BAA0, size: 0x8, addend: 0x0, symName: __RNvNtNtCs6sq8b9ugfBC_4core9panicking11panic_const29panic_const_coroutine_resumed, symObjAddr: 0xD2F0, symBinAddr: 0x100310D54, symSize: 0x1C }
  - { offset: 0x18BABA, size: 0x8, addend: 0x0, symName: __RNvNtNtCs6sq8b9ugfBC_4core9panicking11panic_const29panic_const_gen_fn_none_panic, symObjAddr: 0xD30C, symBinAddr: 0x100310D70, symSize: 0x1C }
  - { offset: 0x18BAD4, size: 0x8, addend: 0x0, symName: __RNvNtNtCs6sq8b9ugfBC_4core9panicking11panic_const32panic_const_async_gen_fn_resumed, symObjAddr: 0xD328, symBinAddr: 0x100310D8C, symSize: 0x1C }
  - { offset: 0x18BAEE, size: 0x8, addend: 0x0, symName: __RNvNtNtCs6sq8b9ugfBC_4core9panicking11panic_const33panic_const_async_fn_resumed_drop, symObjAddr: 0xD344, symBinAddr: 0x100310DA8, symSize: 0x1C }
  - { offset: 0x18BB08, size: 0x8, addend: 0x0, symName: __RNvNtNtCs6sq8b9ugfBC_4core9panicking11panic_const34panic_const_async_fn_resumed_panic, symObjAddr: 0xD360, symBinAddr: 0x100310DC4, symSize: 0x1C }
  - { offset: 0x18BB22, size: 0x8, addend: 0x0, symName: __RNvNtNtCs6sq8b9ugfBC_4core9panicking11panic_const34panic_const_coroutine_resumed_drop, symObjAddr: 0xD37C, symBinAddr: 0x100310DE0, symSize: 0x1C }
  - { offset: 0x18BB3C, size: 0x8, addend: 0x0, symName: __RNvNtNtCs6sq8b9ugfBC_4core9panicking11panic_const35panic_const_coroutine_resumed_panic, symObjAddr: 0xD398, symBinAddr: 0x100310DFC, symSize: 0x1C }
  - { offset: 0x18BB56, size: 0x8, addend: 0x0, symName: __RNvNtNtCs6sq8b9ugfBC_4core9panicking11panic_const37panic_const_async_gen_fn_resumed_drop, symObjAddr: 0xD3B4, symBinAddr: 0x100310E18, symSize: 0x1C }
  - { offset: 0x18BB70, size: 0x8, addend: 0x0, symName: __RNvNtNtCs6sq8b9ugfBC_4core9panicking11panic_const38panic_const_async_gen_fn_resumed_panic, symObjAddr: 0xD3D0, symBinAddr: 0x100310E34, symSize: 0x1C }
  - { offset: 0x18BB97, size: 0x8, addend: 0x0, symName: __RNvXNvNtCs6sq8b9ugfBC_4core9panicking21assert_matches_failedNtB2_7PatternNtNtB6_3fmt5Debug3fmt, symObjAddr: 0x1235C, symBinAddr: 0x100280C80, symSize: 0x14 }
  - { offset: 0x18BEE5, size: 0x8, addend: 0x0, symName: __RNvNtNtNtNtNtCs6sq8b9ugfBC_4core3num3imp7flt2dec8strategy5grisu12format_exact, symObjAddr: 0xEFF0, symBinAddr: 0x10027D94C, symSize: 0x90 }
  - { offset: 0x18BEF9, size: 0x8, addend: 0x0, symName: __RNvNtNtNtNtNtCs6sq8b9ugfBC_4core3num3imp7flt2dec8strategy5grisu15format_shortest, symObjAddr: 0xF080, symBinAddr: 0x10027D9DC, symSize: 0x7C }
  - { offset: 0x18BF27, size: 0x8, addend: 0x0, symName: __RNvNtNtNtNtNtCs6sq8b9ugfBC_4core3num3imp7flt2dec8strategy5grisu16format_exact_opt, symObjAddr: 0xF0FC, symBinAddr: 0x10027DA58, symSize: 0x378 }
  - { offset: 0x18BFE8, size: 0x8, addend: 0x0, symName: __RNvNtNtNtNtNtCs6sq8b9ugfBC_4core3num3imp7flt2dec8strategy5grisu19format_shortest_opt, symObjAddr: 0xF474, symBinAddr: 0x10027DDD0, symSize: 0x5C4 }
  - { offset: 0x18C1B7, size: 0x8, addend: 0x0, symName: __RNvNvNtNtNtNtNtCs6sq8b9ugfBC_4core3num3imp7flt2dec8strategy5grisu16format_exact_opt14possibly_round, symObjAddr: 0x114AC, symBinAddr: 0x10027FDD0, symSize: 0x1DC }
  - { offset: 0x18C348, size: 0x8, addend: 0x0, symName: __RNvNtNtNtNtNtCs6sq8b9ugfBC_4core3num3imp7flt2dec8strategy6dragon12format_exact, symObjAddr: 0xFA38, symBinAddr: 0x10027E394, symSize: 0xA3C }
  - { offset: 0x18DB31, size: 0x8, addend: 0x0, symName: __RNvNtNtNtNtNtCs6sq8b9ugfBC_4core3num3imp7flt2dec8strategy6dragon15format_shortest, symObjAddr: 0x10474, symBinAddr: 0x10027EDD0, symSize: 0xBB8 }
  - { offset: 0x18F6E9, size: 0x8, addend: 0x0, symName: __RNvNtNtNtNtNtCs6sq8b9ugfBC_4core3num3imp7flt2dec8strategy6dragon9mul_pow10, symObjAddr: 0x1102C, symBinAddr: 0x10027F988, symSize: 0x1E0 }
  - { offset: 0x18FB56, size: 0x8, addend: 0x0, symName: __RNvNtNtNtCs6sq8b9ugfBC_4core3num3imp7flt2dec17digits_to_dec_str, symObjAddr: 0xD994, symBinAddr: 0x10027C348, symSize: 0x148 }
  - { offset: 0x18FBB4, size: 0x8, addend: 0x0, symName: __RNvNtNtNtCs6sq8b9ugfBC_4core3num3imp7flt2dec17digits_to_exp_str, symObjAddr: 0xDADC, symBinAddr: 0x10027C490, symSize: 0x1B0 }
  - { offset: 0x18FC0D, size: 0x8, addend: 0x0, symName: __RNvNtNtNtCs6sq8b9ugfBC_4core3num3imp7flt2dec8round_up, symObjAddr: 0xDC8C, symBinAddr: 0x10027C640, symSize: 0x90 }
  - { offset: 0x18FD5E, size: 0x8, addend: 0x0, symName: __RINvNtNtNtNtCs6sq8b9ugfBC_4core3num3imp7dec2flt6lemire13compute_floatC3f16EBa_, symObjAddr: 0x24D0, symBinAddr: 0x1002717AC, symSize: 0x12C }
  - { offset: 0x18FE1B, size: 0x8, addend: 0x0, symName: __RINvNtNtNtNtCs6sq8b9ugfBC_4core3num3imp7dec2flt6lemire13compute_floatdEBa_, symObjAddr: 0x25FC, symBinAddr: 0x1002718D8, symSize: 0x14C }
  - { offset: 0x18FED8, size: 0x8, addend: 0x0, symName: __RINvNtNtNtNtCs6sq8b9ugfBC_4core3num3imp7dec2flt6lemire13compute_floatfEBa_, symObjAddr: 0x2748, symBinAddr: 0x100271A24, symSize: 0x150 }
  - { offset: 0x18FFB0, size: 0x8, addend: 0x0, symName: __RNvMs_NtNtNtNtCs6sq8b9ugfBC_4core3num3imp7dec2flt11decimal_seqNtB4_10DecimalSeq10left_shift, symObjAddr: 0x70B8, symBinAddr: 0x100276394, symSize: 0x20C }
  - { offset: 0x190036, size: 0x8, addend: 0x0, symName: __RNvMs_NtNtNtNtCs6sq8b9ugfBC_4core3num3imp7dec2flt11decimal_seqNtB4_10DecimalSeq11right_shift, symObjAddr: 0x72C4, symBinAddr: 0x1002765A0, symSize: 0x1B0 }
  - { offset: 0x19005E, size: 0x8, addend: 0x0, symName: __RNvMs_NtNtNtNtCs6sq8b9ugfBC_4core3num3imp7dec2flt11decimal_seqNtB4_10DecimalSeq5round, symObjAddr: 0x7474, symBinAddr: 0x100276750, symSize: 0xB4 }
  - { offset: 0x19010B, size: 0x8, addend: 0x0, symName: __RNvNtNtNtNtCs6sq8b9ugfBC_4core3num3imp7dec2flt11decimal_seq17parse_decimal_seq, symObjAddr: 0xE768, symBinAddr: 0x10027D0E4, symSize: 0x3EC }
  - { offset: 0x190598, size: 0x8, addend: 0x0, symName: __RNvNtNtNtNtCs6sq8b9ugfBC_4core3num3imp7dec2flt5parse12parse_number, symObjAddr: 0xEB54, symBinAddr: 0x10027D4D0, symSize: 0x450 }
  - { offset: 0x190CF7, size: 0x8, addend: 0x0, symName: __RNvNtNtNtCs6sq8b9ugfBC_4core3num3imp9int_log1030panic_for_nonpositive_argument, symObjAddr: 0xDD38, symBinAddr: 0x100310F4C, symSize: 0x1C }
  - { offset: 0x190D2B, size: 0x8, addend: 0x0, symName: __RNvMNtNtNtCs6sq8b9ugfBC_4core3num3imp3fmtNtB2_4Part3len, symObjAddr: 0x36F4, symBinAddr: 0x1002729D0, symSize: 0x64 }
  - { offset: 0x190DB4, size: 0x8, addend: 0x0, symName: __RNvMNtNtNtCs6sq8b9ugfBC_4core3num3imp3fmtNtB2_4Part5write, symObjAddr: 0x3758, symBinAddr: 0x100272A34, symSize: 0x164 }
  - { offset: 0x190FA2, size: 0x8, addend: 0x0, symName: __RNvMs_NtNtNtCs6sq8b9ugfBC_4core3num3imp3fmtNtB4_9Formatted3len, symObjAddr: 0x6F54, symBinAddr: 0x100276230, symSize: 0xA4 }
  - { offset: 0x19105E, size: 0x8, addend: 0x0, symName: __RNvMs_NtNtNtCs6sq8b9ugfBC_4core3num3imp3fmtNtB4_9Formatted5write, symObjAddr: 0x6FF8, symBinAddr: 0x1002762D4, symSize: 0xC0 }
  - { offset: 0x1911B0, size: 0x8, addend: 0x0, symName: __RNvMNtNtNtCs6sq8b9ugfBC_4core3num3imp9diy_floatNtB2_2Fp12normalize_to, symObjAddr: 0x38BC, symBinAddr: 0x100272B98, symSize: 0x7C }
  - { offset: 0x191226, size: 0x8, addend: 0x0, symName: __RNvMNtNtNtNtCs6sq8b9ugfBC_4core3num3imp6bignum5testsNtB2_6Big8x310bit_length, symObjAddr: 0x3938, symBinAddr: 0x100272C14, symSize: 0xC0 }
  - { offset: 0x191347, size: 0x8, addend: 0x0, symName: __RNvMNtNtNtNtCs6sq8b9ugfBC_4core3num3imp6bignum5testsNtB2_6Big8x310mul_digits, symObjAddr: 0x39F8, symBinAddr: 0x100272CD4, symSize: 0x368 }
  - { offset: 0x191673, size: 0x8, addend: 0x0, symName: __RNvMNtNtNtNtCs6sq8b9ugfBC_4core3num3imp6bignum5testsNtB2_6Big8x313div_rem_small, symObjAddr: 0x3D60, symBinAddr: 0x10027303C, symSize: 0xC4 }
  - { offset: 0x191745, size: 0x8, addend: 0x0, symName: __RNvMNtNtNtNtCs6sq8b9ugfBC_4core3num3imp6bignum5testsNtB2_6Big8x33add, symObjAddr: 0x3E24, symBinAddr: 0x100273100, symSize: 0xB4 }
  - { offset: 0x19183A, size: 0x8, addend: 0x0, symName: __RNvMNtNtNtNtCs6sq8b9ugfBC_4core3num3imp6bignum5testsNtB2_6Big8x33sub, symObjAddr: 0x3ED8, symBinAddr: 0x1002731B4, symSize: 0xA8 }
  - { offset: 0x19192F, size: 0x8, addend: 0x0, symName: __RNvMNtNtNtNtCs6sq8b9ugfBC_4core3num3imp6bignum5testsNtB2_6Big8x36digits, symObjAddr: 0x3F80, symBinAddr: 0x10027325C, symSize: 0x2C }
  - { offset: 0x191994, size: 0x8, addend: 0x0, symName: __RNvMNtNtNtNtCs6sq8b9ugfBC_4core3num3imp6bignum5testsNtB2_6Big8x37is_zero, symObjAddr: 0x3FAC, symBinAddr: 0x100273288, symSize: 0x7C }
  - { offset: 0x191A29, size: 0x8, addend: 0x0, symName: __RNvMNtNtNtNtCs6sq8b9ugfBC_4core3num3imp6bignum5testsNtB2_6Big8x38mul_pow2, symObjAddr: 0x4028, symBinAddr: 0x100273304, symSize: 0x25C }
  - { offset: 0x191B1C, size: 0x8, addend: 0x0, symName: __RNvMNtNtNtNtCs6sq8b9ugfBC_4core3num3imp6bignum5testsNtB2_6Big8x38mul_pow5, symObjAddr: 0x4284, symBinAddr: 0x100273560, symSize: 0x19C }
  - { offset: 0x191C6F, size: 0x8, addend: 0x0, symName: __RNvMNtNtNtNtCs6sq8b9ugfBC_4core3num3imp6bignum5testsNtB2_6Big8x39mul_small, symObjAddr: 0x4420, symBinAddr: 0x1002736FC, symSize: 0xC4 }
  - { offset: 0x191D2F, size: 0x8, addend: 0x0, symName: __RNvXs2_NtNtNtNtCs6sq8b9ugfBC_4core3num3imp6bignum5testsNtB5_6Big8x3NtNtBd_3cmp3Ord3cmp, symObjAddr: 0x177B4, symBinAddr: 0x1002860D8, symSize: 0xB4 }
  - { offset: 0x191F13, size: 0x8, addend: 0x0, symName: __RNvXs1_NtNtNtNtCs6sq8b9ugfBC_4core3num3imp6bignum5testsNtB5_6Big8x3NtNtBd_3cmp10PartialOrd11partial_cmp, symObjAddr: 0x14DC0, symBinAddr: 0x1002836E4, symSize: 0xB4 }
  - { offset: 0x19210D, size: 0x8, addend: 0x0, symName: __RNvXs5_NtNtNtNtCs6sq8b9ugfBC_4core3num3imp6bignum5testsNtB5_6Big8x3NtNtBd_3fmt5Debug3fmt, symObjAddr: 0x18988, symBinAddr: 0x1002872AC, symSize: 0x128 }
  - { offset: 0x192237, size: 0x8, addend: 0x0, symName: __RNvMs2_NtNtNtCs6sq8b9ugfBC_4core3num3imp6bignumNtB5_8Big32x4010bit_length, symObjAddr: 0x52E4, symBinAddr: 0x1002745C0, symSize: 0x7C }
  - { offset: 0x192370, size: 0x8, addend: 0x0, symName: __RNvMs2_NtNtNtCs6sq8b9ugfBC_4core3num3imp6bignumNtB5_8Big32x4010mul_digits, symObjAddr: 0x5360, symBinAddr: 0x10027463C, symSize: 0x2E0 }
  - { offset: 0x19270E, size: 0x8, addend: 0x0, symName: __RNvMs2_NtNtNtCs6sq8b9ugfBC_4core3num3imp6bignumNtB5_8Big32x4013div_rem_small, symObjAddr: 0x5640, symBinAddr: 0x10027491C, symSize: 0x8C }
  - { offset: 0x192800, size: 0x8, addend: 0x0, symName: __RNvMs2_NtNtNtCs6sq8b9ugfBC_4core3num3imp6bignumNtB5_8Big32x403add, symObjAddr: 0x56CC, symBinAddr: 0x1002749A8, symSize: 0xA0 }
  - { offset: 0x1928C2, size: 0x8, addend: 0x0, symName: __RNvMs2_NtNtNtCs6sq8b9ugfBC_4core3num3imp6bignumNtB5_8Big32x403sub, symObjAddr: 0x576C, symBinAddr: 0x100274A48, symSize: 0x98 }
  - { offset: 0x192984, size: 0x8, addend: 0x0, symName: __RNvMs2_NtNtNtCs6sq8b9ugfBC_4core3num3imp6bignumNtB5_8Big32x406digits, symObjAddr: 0x5804, symBinAddr: 0x100274AE0, symSize: 0x2C }
  - { offset: 0x1929E9, size: 0x8, addend: 0x0, symName: __RNvMs2_NtNtNtCs6sq8b9ugfBC_4core3num3imp6bignumNtB5_8Big32x407is_zero, symObjAddr: 0x5830, symBinAddr: 0x100274B0C, symSize: 0x50 }
  - { offset: 0x192A96, size: 0x8, addend: 0x0, symName: __RNvMs2_NtNtNtCs6sq8b9ugfBC_4core3num3imp6bignumNtB5_8Big32x408mul_pow2, symObjAddr: 0x5880, symBinAddr: 0x100274B5C, symSize: 0x278 }
  - { offset: 0x192B88, size: 0x8, addend: 0x0, symName: __RNvMs2_NtNtNtCs6sq8b9ugfBC_4core3num3imp6bignumNtB5_8Big32x408mul_pow5, symObjAddr: 0x5AF8, symBinAddr: 0x100274DD4, symSize: 0x1B4 }
  - { offset: 0x192D0F, size: 0x8, addend: 0x0, symName: __RNvMs2_NtNtNtCs6sq8b9ugfBC_4core3num3imp6bignumNtB5_8Big32x409mul_small, symObjAddr: 0x5CAC, symBinAddr: 0x100274F88, symSize: 0x88 }
  - { offset: 0x192E92, size: 0x8, addend: 0x0, symName: __RNvXs6_NtNtNtCs6sq8b9ugfBC_4core3num3imp6bignumNtB5_8Big32x40NtNtBb_3cmp3Ord3cmp, symObjAddr: 0x18F58, symBinAddr: 0x10028787C, symSize: 0x70 }
  - { offset: 0x1930CD, size: 0x8, addend: 0x0, symName: __RNvXs5_NtNtNtCs6sq8b9ugfBC_4core3num3imp6bignumNtB5_8Big32x40NtNtBb_3cmp10PartialOrd11partial_cmp, symObjAddr: 0x18918, symBinAddr: 0x10028723C, symSize: 0x70 }
  - { offset: 0x193309, size: 0x8, addend: 0x0, symName: __RNvXs9_NtNtNtCs6sq8b9ugfBC_4core3num3imp6bignumNtB5_8Big32x40NtNtBb_3fmt5Debug3fmt, symObjAddr: 0x19880, symBinAddr: 0x1002881A4, symSize: 0x108 }
  - { offset: 0x1933B3, size: 0x8, addend: 0x0, symName: __RNvNtNtNtCs6sq8b9ugfBC_4core3num3imp14overflow_panic3add, symObjAddr: 0xD8B4, symBinAddr: 0x100310E50, symSize: 0x1C }
  - { offset: 0x1933CD, size: 0x8, addend: 0x0, symName: __RNvNtNtNtCs6sq8b9ugfBC_4core3num3imp14overflow_panic3div, symObjAddr: 0xD8D0, symBinAddr: 0x100310E6C, symSize: 0x1C }
  - { offset: 0x1933E7, size: 0x8, addend: 0x0, symName: __RNvNtNtNtCs6sq8b9ugfBC_4core3num3imp14overflow_panic3mul, symObjAddr: 0xD8EC, symBinAddr: 0x100310E88, symSize: 0x1C }
  - { offset: 0x193401, size: 0x8, addend: 0x0, symName: __RNvNtNtNtCs6sq8b9ugfBC_4core3num3imp14overflow_panic3neg, symObjAddr: 0xD908, symBinAddr: 0x100310EA4, symSize: 0x1C }
  - { offset: 0x19341B, size: 0x8, addend: 0x0, symName: __RNvNtNtNtCs6sq8b9ugfBC_4core3num3imp14overflow_panic3rem, symObjAddr: 0xD924, symBinAddr: 0x100310EC0, symSize: 0x1C }
  - { offset: 0x193435, size: 0x8, addend: 0x0, symName: __RNvNtNtNtCs6sq8b9ugfBC_4core3num3imp14overflow_panic3shl, symObjAddr: 0xD940, symBinAddr: 0x100310EDC, symSize: 0x1C }
  - { offset: 0x19344F, size: 0x8, addend: 0x0, symName: __RNvNtNtNtCs6sq8b9ugfBC_4core3num3imp14overflow_panic3shr, symObjAddr: 0xD95C, symBinAddr: 0x100310EF8, symSize: 0x1C }
  - { offset: 0x193469, size: 0x8, addend: 0x0, symName: __RNvNtNtNtCs6sq8b9ugfBC_4core3num3imp14overflow_panic3sub, symObjAddr: 0xD978, symBinAddr: 0x100310F14, symSize: 0x1C }
  - { offset: 0x19348A, size: 0x8, addend: 0x0, symName: __RNvNtNtNtCs6sq8b9ugfBC_4core3num3imp8int_sqrt27panic_for_negative_argument, symObjAddr: 0xDD1C, symBinAddr: 0x100310F30, symSize: 0x1C }
  - { offset: 0x193F0F, size: 0x8, addend: 0x0, symName: __RNvXs11_NtNtCs6sq8b9ugfBC_4core3num7nonzeroINtB6_7NonZerotENtNtNtBa_3str6traits7FromStr8from_str, symObjAddr: 0x1311C, symBinAddr: 0x100281A40, symSize: 0x174 }
  - { offset: 0x19400F, size: 0x8, addend: 0x0, symName: __RNvXs18_NtNtCs6sq8b9ugfBC_4core3num7nonzeroINtB6_7NonZeromENtNtNtBa_3str6traits7FromStr8from_str, symObjAddr: 0x1359C, symBinAddr: 0x100281EC0, symSize: 0x1E4 }
  - { offset: 0x194117, size: 0x8, addend: 0x0, symName: __RNvXs1A_NtNtCs6sq8b9ugfBC_4core3num7nonzeroINtB6_7NonZeroaENtNtNtBa_3str6traits7FromStr8from_str, symObjAddr: 0x1383C, symBinAddr: 0x100282160, symSize: 0x1D4 }
  - { offset: 0x1942F3, size: 0x8, addend: 0x0, symName: __RNvXs1E_NtNtCs6sq8b9ugfBC_4core3num7nonzeroINtB6_7NonZerosENtNtNtBa_3str6traits7FromStr8from_str, symObjAddr: 0x13A10, symBinAddr: 0x100282334, symSize: 0x1EC }
  - { offset: 0x194489, size: 0x8, addend: 0x0, symName: __RNvXs1I_NtNtCs6sq8b9ugfBC_4core3num7nonzeroINtB6_7NonZerolENtNtNtBa_3str6traits7FromStr8from_str, symObjAddr: 0x13C24, symBinAddr: 0x100282548, symSize: 0x250 }
  - { offset: 0x194618, size: 0x8, addend: 0x0, symName: __RNvXs1M_NtNtCs6sq8b9ugfBC_4core3num7nonzeroINtB6_7NonZeroxENtNtNtBa_3str6traits7FromStr8from_str, symObjAddr: 0x13E74, symBinAddr: 0x100282798, symSize: 0x1DC }
  - { offset: 0x1947D6, size: 0x8, addend: 0x0, symName: __RNvXs1Q_NtNtCs6sq8b9ugfBC_4core3num7nonzeroINtB6_7NonZeronENtNtNtBa_3str6traits7FromStr8from_str, symObjAddr: 0x14078, symBinAddr: 0x10028299C, symSize: 0x294 }
  - { offset: 0x194994, size: 0x8, addend: 0x0, symName: __RNvXs1f_NtNtCs6sq8b9ugfBC_4core3num7nonzeroINtB6_7NonZeroyENtNtNtBa_3str6traits7FromStr8from_str, symObjAddr: 0x14EB0, symBinAddr: 0x1002837D4, symSize: 0x138 }
  - { offset: 0x194AA4, size: 0x8, addend: 0x0, symName: __RNvXs1m_NtNtCs6sq8b9ugfBC_4core3num7nonzeroINtB6_7NonZerooENtNtNtBa_3str6traits7FromStr8from_str, symObjAddr: 0x15494, symBinAddr: 0x100283DB8, symSize: 0x194 }
  - { offset: 0x194BA4, size: 0x8, addend: 0x0, symName: __RNvXsF_NtNtCs6sq8b9ugfBC_4core3num7nonzeroINtB5_7NonZerojENtNtB9_3fmt5Debug3fmtB9_, symObjAddr: 0x19CA8, symBinAddr: 0x1002885CC, symSize: 0x28 }
  - { offset: 0x194BDB, size: 0x8, addend: 0x0, symName: __RNvXsU_NtNtCs6sq8b9ugfBC_4core3num7nonzeroINtB5_7NonZerohENtNtNtB9_3str6traits7FromStr8from_str, symObjAddr: 0x1A6CC, symBinAddr: 0x100288FF0, symSize: 0x120 }
  - { offset: 0x1952EF, size: 0x8, addend: 0x0, symName: __RNvNtCs6sq8b9ugfBC_4core3num22from_ascii_radix_panic, symObjAddr: 0xAB34, symBinAddr: 0x100310608, symSize: 0x34 }
  - { offset: 0x195366, size: 0x8, addend: 0x0, symName: __RNvXNtNtCs6sq8b9ugfBC_4core3num5errorNtB2_15TryFromIntErrorNtNtB6_3fmt7Display3fmt, symObjAddr: 0x12268, symBinAddr: 0x100280B8C, symSize: 0x14 }
  - { offset: 0x19539D, size: 0x8, addend: 0x0, symName: __RNvXs3_NtNtCs6sq8b9ugfBC_4core3num5errorNtB5_13ParseIntErrorNtNtB9_3fmt7Display3fmt, symObjAddr: 0x18150, symBinAddr: 0x100286A74, symSize: 0x28 }
  - { offset: 0x1953DB, size: 0x8, addend: 0x0, symName: __RNvXs0_NtNtCs6sq8b9ugfBC_4core3num11float_parseC3f16NtNtNtB9_3str6traits7FromStr8from_str, symObjAddr: 0x127E8, symBinAddr: 0x10028110C, symSize: 0x47C }
  - { offset: 0x195406, size: 0x8, addend: 0x0, symName: __RNvXs0_NtNtCs6sq8b9ugfBC_4core3num11float_parseC3f16NtNtNtB9_3str6traits7FromStr8from_str, symObjAddr: 0x127E8, symBinAddr: 0x10028110C, symSize: 0x47C }
  - { offset: 0x195696, size: 0x8, addend: 0x0, symName: __RNvXs1_NtNtCs6sq8b9ugfBC_4core3num11float_parsefNtNtNtB9_3str6traits7FromStr8from_str, symObjAddr: 0x14604, symBinAddr: 0x100282F28, symSize: 0x498 }
  - { offset: 0x1956C1, size: 0x8, addend: 0x0, symName: __RNvXs1_NtNtCs6sq8b9ugfBC_4core3num11float_parsefNtNtNtB9_3str6traits7FromStr8from_str, symObjAddr: 0x14604, symBinAddr: 0x100282F28, symSize: 0x498 }
  - { offset: 0x19595A, size: 0x8, addend: 0x0, symName: __RNvXs2_NtNtCs6sq8b9ugfBC_4core3num11float_parsedNtNtNtB9_3str6traits7FromStr8from_str, symObjAddr: 0x16F34, symBinAddr: 0x100285858, symSize: 0x484 }
  - { offset: 0x195BF1, size: 0x8, addend: 0x0, symName: __RNvXs_NtNtCs6sq8b9ugfBC_4core3num11float_parseNtB4_15ParseFloatErrorNtNtB8_3fmt7Display3fmt, symObjAddr: 0x1B124, symBinAddr: 0x100289A48, symSize: 0x38 }
  - { offset: 0x195C67, size: 0x8, addend: 0x0, symName: __RNvXs12_NtNtCs6sq8b9ugfBC_4core3num11niche_typesNtB6_14NonZeroI8InnerNtNtBa_3fmt5Debug3fmt, symObjAddr: 0x13388, symBinAddr: 0x100281CAC, symSize: 0x8 }
  - { offset: 0x195C9C, size: 0x8, addend: 0x0, symName: __RNvXs1G_NtNtCs6sq8b9ugfBC_4core3num11niche_typesNtB6_14UsizeNoHighBitNtNtBa_3fmt5Debug3fmt, symObjAddr: 0x13BFC, symBinAddr: 0x100282520, symSize: 0x28 }
  - { offset: 0x195CE7, size: 0x8, addend: 0x0, symName: __RNvXs1O_NtNtCs6sq8b9ugfBC_4core3num11niche_typesNtB6_17NonZeroUsizeInnerNtNtBa_3fmt5Debug3fmt, symObjAddr: 0x14050, symBinAddr: 0x100282974, symSize: 0x28 }
  - { offset: 0x195D32, size: 0x8, addend: 0x0, symName: __RNvXs1W_NtNtCs6sq8b9ugfBC_4core3num11niche_typesNtB6_17NonZeroIsizeInnerNtNtBa_3fmt5Debug3fmt, symObjAddr: 0x1430C, symBinAddr: 0x100282C30, symSize: 0xBC }
  - { offset: 0x195E16, size: 0x8, addend: 0x0, symName: __RNvXs1a_NtNtCs6sq8b9ugfBC_4core3num11niche_typesNtB6_15NonZeroI16InnerNtNtBa_3fmt5Debug3fmt, symObjAddr: 0x14E74, symBinAddr: 0x100283798, symSize: 0x8 }
  - { offset: 0x195E4B, size: 0x8, addend: 0x0, symName: __RNvXs1i_NtNtCs6sq8b9ugfBC_4core3num11niche_typesNtB6_15NonZeroI32InnerNtNtBa_3fmt5Debug3fmt, symObjAddr: 0x153AC, symBinAddr: 0x100283CD0, symSize: 0xC8 }
  - { offset: 0x195F2F, size: 0x8, addend: 0x0, symName: __RNvXs1y_NtNtCs6sq8b9ugfBC_4core3num11niche_typesNtB6_16NonZeroI128InnerNtNtBa_3fmt5Debug3fmt, symObjAddr: 0x156DC, symBinAddr: 0x100284000, symSize: 0xC }
  - { offset: 0x195F50, size: 0x8, addend: 0x0, symName: __RNvXs24_NtNtCs6sq8b9ugfBC_4core3num11niche_typesNtB6_13U32NotAllOnesNtNtBa_3fmt5Debug3fmt, symObjAddr: 0x16364, symBinAddr: 0x100284C88, symSize: 0x1C8 }
  - { offset: 0x1960E1, size: 0x8, addend: 0x0, symName: __RNvXs2A_NtNtCs6sq8b9ugfBC_4core3num11niche_typesNtB6_16NonZeroCharInnerNtNtBa_3fmt5Debug3fmt, symObjAddr: 0x16888, symBinAddr: 0x1002851AC, symSize: 0xB0 }
  - { offset: 0x196219, size: 0x8, addend: 0x0, symName: __RNvXs2c_NtNtCs6sq8b9ugfBC_4core3num11niche_typesNtB6_13I32NotAllOnesNtNtBa_3fmt5Debug3fmt, symObjAddr: 0x17868, symBinAddr: 0x10028618C, symSize: 0xC8 }
  - { offset: 0x1962FD, size: 0x8, addend: 0x0, symName: __RNvXs2k_NtNtCs6sq8b9ugfBC_4core3num11niche_typesNtB6_13U64NotAllOnesNtNtBa_3fmt5Debug3fmt, symObjAddr: 0x17930, symBinAddr: 0x100286254, symSize: 0x8 }
  - { offset: 0x196332, size: 0x8, addend: 0x0, symName: __RNvXs2s_NtNtCs6sq8b9ugfBC_4core3num11niche_typesNtB6_13I64NotAllOnesNtNtBa_3fmt5Debug3fmt, symObjAddr: 0x17938, symBinAddr: 0x10028625C, symSize: 0xBC }
  - { offset: 0x196416, size: 0x8, addend: 0x0, symName: __RNvXs3A_NtNtCs6sq8b9ugfBC_4core3num11niche_typesNtB6_14CodePointInnerNtNtBa_3fmt5Debug3fmt, symObjAddr: 0x179F4, symBinAddr: 0x100286318, symSize: 0x1A0 }
  - { offset: 0x1965A7, size: 0x8, addend: 0x0, symName: __RNvXsE_NtNtCs6sq8b9ugfBC_4core3num11niche_typesNtB5_15NonZeroU32InnerNtNtB9_3fmt5Debug3fmt, symObjAddr: 0x19AA0, symBinAddr: 0x1002883C4, symSize: 0x1BC }
  - { offset: 0x196738, size: 0x8, addend: 0x0, symName: __RNvXsM_NtNtCs6sq8b9ugfBC_4core3num11niche_typesNtB5_15NonZeroU64InnerNtNtB9_3fmt5Debug3fmt, symObjAddr: 0x1A038, symBinAddr: 0x10028895C, symSize: 0x8 }
  - { offset: 0x196759, size: 0x8, addend: 0x0, symName: __RNvXsU_NtNtCs6sq8b9ugfBC_4core3num11niche_typesNtB5_16NonZeroU128InnerNtNtB9_3fmt5Debug3fmt, symObjAddr: 0x1A6C0, symBinAddr: 0x100288FE4, symSize: 0xC }
  - { offset: 0x19677A, size: 0x8, addend: 0x0, symName: __RNvXsd_NtNtCs6sq8b9ugfBC_4core3num11niche_typesNtB5_11NanosecondsNtNtB9_3fmt5Debug3fmt, symObjAddr: 0x1C678, symBinAddr: 0x10028AF9C, symSize: 0x1C8 }
  - { offset: 0x19690B, size: 0x8, addend: 0x0, symName: __RNvXso_NtNtCs6sq8b9ugfBC_4core3num11niche_typesNtB5_14NonZeroU8InnerNtNtB9_3fmt5Debug3fmt, symObjAddr: 0x1DE30, symBinAddr: 0x10028C754, symSize: 0x8 }
  - { offset: 0x19692C, size: 0x8, addend: 0x0, symName: __RNvXsw_NtNtCs6sq8b9ugfBC_4core3num11niche_typesNtB5_15NonZeroU16InnerNtNtB9_3fmt5Debug3fmt, symObjAddr: 0x1E3A4, symBinAddr: 0x10028CCC8, symSize: 0x8 }
  - { offset: 0x196AEF, size: 0x8, addend: 0x0, symName: __RNvYNCNvNvMs6_NtNtCs6sq8b9ugfBC_4core4task4wakeNtBc_5Waker11from_fn_ptr6VTABLE0INtNtNtBg_3ops8function6FnOnceTPuEE9call_onceBg_, symObjAddr: 0x1E994, symBinAddr: 0x10028D2B8, symSize: 0x10 }
  - { offset: 0x196B1F, size: 0x8, addend: 0x0, symName: __RNvYNCNvNvMs6_NtNtCs6sq8b9ugfBC_4core4task4wakeNtBc_5Waker11from_fn_ptr6VTABLEs0_0INtNtNtBg_3ops8function6FnOnceTPuEE9call_onceBg_, symObjAddr: 0x1E9A4, symBinAddr: 0x10028D2C8, symSize: 0x4 }
  - { offset: 0x196B3D, size: 0x8, addend: 0x0, symName: __RNvYNCNvNvMs6_NtNtCs6sq8b9ugfBC_4core4task4wakeNtBc_5Waker11from_fn_ptr6VTABLEs0_0INtNtNtBg_3ops8function6FnOnceTPuEE9call_onceBg_, symObjAddr: 0x1E9A4, symBinAddr: 0x10028D2C8, symSize: 0x4 }
  - { offset: 0x196B4F, size: 0x8, addend: 0x0, symName: __RNvYNCNvNvMs6_NtNtCs6sq8b9ugfBC_4core4task4wakeNtBc_5Waker11from_fn_ptr6VTABLEs1_0INtNtNtBg_3ops8function6FnOnceTPuEE9call_onceBg_, symObjAddr: 0x1E9A8, symBinAddr: 0x10028D2CC, symSize: 0x4 }
  - { offset: 0x196B69, size: 0x8, addend: 0x0, symName: __RNvYNCNvNvMsb_NtNtCs6sq8b9ugfBC_4core4task4wakeNtBc_10LocalWaker11from_fn_ptr6VTABLE0INtNtNtBg_3ops8function6FnOnceTPuEE9call_onceBg_, symObjAddr: 0x1E9AC, symBinAddr: 0x10028D2D0, symSize: 0x10 }
  - { offset: 0x196CD4, size: 0x8, addend: 0x0, symName: __RNvXNtNtCs6sq8b9ugfBC_4core3ops5rangeNtB2_9RangeFullNtNtB6_3fmt5Debug3fmt, symObjAddr: 0x1227C, symBinAddr: 0x100280BA0, symSize: 0x18 }
  - { offset: 0x196CF2, size: 0x8, addend: 0x0, symName: __RNvXNtNtCs6sq8b9ugfBC_4core3ops5rangeNtB2_9RangeFullNtNtB6_3fmt5Debug3fmt, symObjAddr: 0x1227C, symBinAddr: 0x100280BA0, symSize: 0x18 }
  - { offset: 0x196D0C, size: 0x8, addend: 0x0, symName: __RNvXs_NtNtCs6sq8b9ugfBC_4core3ops5rangeINtB4_5RangejENtNtB8_3fmt5Debug3fmtB8_, symObjAddr: 0x1B15C, symBinAddr: 0x100289A80, symSize: 0x5C }
  - { offset: 0x196EF5, size: 0x8, addend: 0x0, symName: __RINvNtNtCs6sq8b9ugfBC_4core3fmt5float29float_to_decimal_common_exactC3f16EB6_, symObjAddr: 0x78, symBinAddr: 0x10026F354, symSize: 0x340 }
  - { offset: 0x196FED, size: 0x8, addend: 0x0, symName: __RINvNtNtCs6sq8b9ugfBC_4core3fmt5float29float_to_decimal_common_exactdEB6_, symObjAddr: 0x3B8, symBinAddr: 0x10026F694, symSize: 0x340 }
  - { offset: 0x1970FC, size: 0x8, addend: 0x0, symName: __RINvNtNtCs6sq8b9ugfBC_4core3fmt5float29float_to_decimal_common_exactfEB6_, symObjAddr: 0x6F8, symBinAddr: 0x10026F9D4, symSize: 0x338 }
  - { offset: 0x1971F4, size: 0x8, addend: 0x0, symName: __RINvNtNtCs6sq8b9ugfBC_4core3fmt5float32float_to_decimal_common_shortestC3f16EB6_, symObjAddr: 0xA30, symBinAddr: 0x10026FD0C, symSize: 0x288 }
  - { offset: 0x1972DE, size: 0x8, addend: 0x0, symName: __RINvNtNtCs6sq8b9ugfBC_4core3fmt5float32float_to_decimal_common_shortestdEB6_, symObjAddr: 0xCB8, symBinAddr: 0x10026FF94, symSize: 0x284 }
  - { offset: 0x1973DF, size: 0x8, addend: 0x0, symName: __RINvNtNtCs6sq8b9ugfBC_4core3fmt5float32float_to_decimal_common_shortestfEB6_, symObjAddr: 0xF3C, symBinAddr: 0x100270218, symSize: 0x280 }
  - { offset: 0x1974C9, size: 0x8, addend: 0x0, symName: __RINvNtNtCs6sq8b9ugfBC_4core3fmt5float33float_to_exponential_common_exactC3f16EB6_, symObjAddr: 0x11BC, symBinAddr: 0x100270498, symSize: 0x330 }
  - { offset: 0x1975C9, size: 0x8, addend: 0x0, symName: __RINvNtNtCs6sq8b9ugfBC_4core3fmt5float33float_to_exponential_common_exactdEB6_, symObjAddr: 0x14EC, symBinAddr: 0x1002707C8, symSize: 0x330 }
  - { offset: 0x1976E0, size: 0x8, addend: 0x0, symName: __RINvNtNtCs6sq8b9ugfBC_4core3fmt5float33float_to_exponential_common_exactfEB6_, symObjAddr: 0x181C, symBinAddr: 0x100270AF8, symSize: 0x328 }
  - { offset: 0x1977E0, size: 0x8, addend: 0x0, symName: __RINvNtNtCs6sq8b9ugfBC_4core3fmt5float36float_to_exponential_common_shortestC3f16EB6_, symObjAddr: 0x1B44, symBinAddr: 0x100270E20, symSize: 0x334 }
  - { offset: 0x1978F1, size: 0x8, addend: 0x0, symName: __RINvNtNtCs6sq8b9ugfBC_4core3fmt5float36float_to_exponential_common_shortestdEB6_, symObjAddr: 0x1E78, symBinAddr: 0x100271154, symSize: 0x32C }
  - { offset: 0x197A19, size: 0x8, addend: 0x0, symName: __RINvNtNtCs6sq8b9ugfBC_4core3fmt5float36float_to_exponential_common_shortestfEB6_, symObjAddr: 0x21A4, symBinAddr: 0x100271480, symSize: 0x32C }
  - { offset: 0x197B51, size: 0x8, addend: 0x0, symName: __RNvXs2_NtNtCs6sq8b9ugfBC_4core3fmt5floatfNtB7_5Debug3fmt, symObjAddr: 0x16E34, symBinAddr: 0x100285758, symSize: 0x78 }
  - { offset: 0x197BEB, size: 0x8, addend: 0x0, symName: __RNvXs3_NtNtCs6sq8b9ugfBC_4core3fmt5floatfNtB7_7Display3fmt, symObjAddr: 0x1810C, symBinAddr: 0x100286A30, symSize: 0x30 }
  - { offset: 0x197C5A, size: 0x8, addend: 0x0, symName: __RNvXs4_NtNtCs6sq8b9ugfBC_4core3fmt5floatfNtB7_8LowerExp3fmt, symObjAddr: 0x18568, symBinAddr: 0x100286E8C, symSize: 0x34 }
  - { offset: 0x197CBC, size: 0x8, addend: 0x0, symName: __RNvXs5_NtNtCs6sq8b9ugfBC_4core3fmt5floatfNtB7_8UpperExp3fmt, symObjAddr: 0x188B0, symBinAddr: 0x1002871D4, symSize: 0x34 }
  - { offset: 0x197D3F, size: 0x8, addend: 0x0, symName: __RNvXs6_NtNtCs6sq8b9ugfBC_4core3fmt5floatdNtB7_5Debug3fmt, symObjAddr: 0x18B48, symBinAddr: 0x10028746C, symSize: 0x88 }
  - { offset: 0x197DD9, size: 0x8, addend: 0x0, symName: __RNvXs7_NtNtCs6sq8b9ugfBC_4core3fmt5floatdNtB7_7Display3fmt, symObjAddr: 0x19070, symBinAddr: 0x100287994, symSize: 0x30 }
  - { offset: 0x197E48, size: 0x8, addend: 0x0, symName: __RNvXs8_NtNtCs6sq8b9ugfBC_4core3fmt5floatdNtB7_8LowerExp3fmt, symObjAddr: 0x191A4, symBinAddr: 0x100287AC8, symSize: 0x34 }
  - { offset: 0x197EAA, size: 0x8, addend: 0x0, symName: __RNvXs9_NtNtCs6sq8b9ugfBC_4core3fmt5floatdNtB7_8UpperExp3fmt, symObjAddr: 0x195F8, symBinAddr: 0x100287F1C, symSize: 0x34 }
  - { offset: 0x197F2D, size: 0x8, addend: 0x0, symName: __RNvXsa_NtNtCs6sq8b9ugfBC_4core3fmt5floatC3f16NtB7_5Debug3fmt, symObjAddr: 0x1BCDC, symBinAddr: 0x10028A600, symSize: 0x70 }
  - { offset: 0x197FC7, size: 0x8, addend: 0x0, symName: __RNvXsb_NtNtCs6sq8b9ugfBC_4core3fmt5floatC3f16NtB7_7Display3fmt, symObjAddr: 0x1BE38, symBinAddr: 0x10028A75C, symSize: 0x30 }
  - { offset: 0x198036, size: 0x8, addend: 0x0, symName: __RNvXsc_NtNtCs6sq8b9ugfBC_4core3fmt5floatC3f16NtB7_8LowerExp3fmt, symObjAddr: 0x1BF74, symBinAddr: 0x10028A898, symSize: 0x34 }
  - { offset: 0x198098, size: 0x8, addend: 0x0, symName: __RNvXsd_NtNtCs6sq8b9ugfBC_4core3fmt5floatC3f16NtB7_8UpperExp3fmt, symObjAddr: 0x1C644, symBinAddr: 0x10028AF68, symSize: 0x34 }
  - { offset: 0x198133, size: 0x8, addend: 0x0, symName: __RNvMsa_NtCs6sq8b9ugfBC_4core3fmtNtB5_9Formatter10debug_list, symObjAddr: 0x7528, symBinAddr: 0x100276804, symSize: 0x48 }
  - { offset: 0x198175, size: 0x8, addend: 0x0, symName: __RNvMsa_NtCs6sq8b9ugfBC_4core3fmtNtB5_9Formatter11debug_tuple, symObjAddr: 0x7570, symBinAddr: 0x10027684C, symSize: 0x50 }
  - { offset: 0x1981C5, size: 0x8, addend: 0x0, symName: __RNvMsa_NtCs6sq8b9ugfBC_4core3fmtNtB5_9Formatter12debug_struct, symObjAddr: 0x75C0, symBinAddr: 0x10027689C, symSize: 0x3C }
  - { offset: 0x198214, size: 0x8, addend: 0x0, symName: __RNvMsa_NtCs6sq8b9ugfBC_4core3fmtNtB5_9Formatter12pad_integral, symObjAddr: 0x75FC, symBinAddr: 0x1002768D8, symSize: 0x3B0 }
  - { offset: 0x198577, size: 0x8, addend: 0x0, symName: __RNvMsa_NtCs6sq8b9ugfBC_4core3fmtNtB5_9Formatter19pad_formatted_parts, symObjAddr: 0x79AC, symBinAddr: 0x100276C88, symSize: 0x22C }
  - { offset: 0x198815, size: 0x8, addend: 0x0, symName: __RNvMsa_NtCs6sq8b9ugfBC_4core3fmtNtB5_9Formatter21write_formatted_parts, symObjAddr: 0x7BD8, symBinAddr: 0x100276EB4, symSize: 0x274 }
  - { offset: 0x198999, size: 0x8, addend: 0x0, symName: __RNvMsa_NtCs6sq8b9ugfBC_4core3fmtNtB5_9Formatter25debug_tuple_field1_finish, symObjAddr: 0x7E4C, symBinAddr: 0x100277128, symSize: 0x168 }
  - { offset: 0x198BAD, size: 0x8, addend: 0x0, symName: __RNvMsa_NtCs6sq8b9ugfBC_4core3fmtNtB5_9Formatter25debug_tuple_field2_finish, symObjAddr: 0x7FB4, symBinAddr: 0x100277290, symSize: 0x1D8 }
  - { offset: 0x198ECB, size: 0x8, addend: 0x0, symName: __RNvMsa_NtCs6sq8b9ugfBC_4core3fmtNtB5_9Formatter25debug_tuple_field3_finish, symObjAddr: 0x818C, symBinAddr: 0x100277468, symSize: 0x27C }
  - { offset: 0x199318, size: 0x8, addend: 0x0, symName: __RNvMsa_NtCs6sq8b9ugfBC_4core3fmtNtB5_9Formatter25debug_tuple_field4_finish, symObjAddr: 0x8408, symBinAddr: 0x1002776E4, symSize: 0x31C }
  - { offset: 0x199894, size: 0x8, addend: 0x0, symName: __RNvMsa_NtCs6sq8b9ugfBC_4core3fmtNtB5_9Formatter25debug_tuple_field5_finish, symObjAddr: 0x8724, symBinAddr: 0x100277A00, symSize: 0x3BC }
  - { offset: 0x199F3F, size: 0x8, addend: 0x0, symName: __RNvMsa_NtCs6sq8b9ugfBC_4core3fmtNtB5_9Formatter25debug_tuple_fields_finish, symObjAddr: 0x8AE0, symBinAddr: 0x100277DBC, symSize: 0x260 }
  - { offset: 0x19A145, size: 0x8, addend: 0x0, symName: __RNvMsa_NtCs6sq8b9ugfBC_4core3fmtNtB5_9Formatter26debug_struct_field1_finish, symObjAddr: 0x8D40, symBinAddr: 0x10027801C, symSize: 0xD0 }
  - { offset: 0x19A21D, size: 0x8, addend: 0x0, symName: __RNvMsa_NtCs6sq8b9ugfBC_4core3fmtNtB5_9Formatter26debug_struct_field2_finish, symObjAddr: 0x8E10, symBinAddr: 0x1002780EC, symSize: 0x104 }
  - { offset: 0x19A2FC, size: 0x8, addend: 0x0, symName: __RNvMsa_NtCs6sq8b9ugfBC_4core3fmtNtB5_9Formatter26debug_struct_field3_finish, symObjAddr: 0x8F14, symBinAddr: 0x1002781F0, symSize: 0x12C }
  - { offset: 0x19A3DB, size: 0x8, addend: 0x0, symName: __RNvMsa_NtCs6sq8b9ugfBC_4core3fmtNtB5_9Formatter26debug_struct_field4_finish, symObjAddr: 0x9040, symBinAddr: 0x10027831C, symSize: 0x15C }
  - { offset: 0x19A4BA, size: 0x8, addend: 0x0, symName: __RNvMsa_NtCs6sq8b9ugfBC_4core3fmtNtB5_9Formatter26debug_struct_field5_finish, symObjAddr: 0x919C, symBinAddr: 0x100278478, symSize: 0x180 }
  - { offset: 0x19A599, size: 0x8, addend: 0x0, symName: __RNvMsa_NtCs6sq8b9ugfBC_4core3fmtNtB5_9Formatter26debug_struct_fields_finish, symObjAddr: 0x931C, symBinAddr: 0x1002785F8, symSize: 0x108 }
  - { offset: 0x19A695, size: 0x8, addend: 0x0, symName: __RNvMsa_NtCs6sq8b9ugfBC_4core3fmtNtB5_9Formatter3pad, symObjAddr: 0x9424, symBinAddr: 0x100278700, symSize: 0x310 }
  - { offset: 0x19A9C1, size: 0x8, addend: 0x0, symName: __RNvMsa_NtCs6sq8b9ugfBC_4core3fmtNtB5_9Formatter4fill, symObjAddr: 0x9734, symBinAddr: 0x100278A10, symSize: 0xC }
  - { offset: 0x19A9E0, size: 0x8, addend: 0x0, symName: __RNvMsa_NtCs6sq8b9ugfBC_4core3fmtNtB5_9Formatter4fill, symObjAddr: 0x9734, symBinAddr: 0x100278A10, symSize: 0xC }
  - { offset: 0x19A9F3, size: 0x8, addend: 0x0, symName: __RNvMsa_NtCs6sq8b9ugfBC_4core3fmtNtB5_9Formatter9debug_map, symObjAddr: 0x9740, symBinAddr: 0x100278A1C, symSize: 0x58 }
  - { offset: 0x19AA3C, size: 0x8, addend: 0x0, symName: __RNvMsa_NtCs6sq8b9ugfBC_4core3fmtNtB5_9Formatter9debug_set, symObjAddr: 0x9798, symBinAddr: 0x100278A74, symSize: 0x48 }
  - { offset: 0x19AA85, size: 0x8, addend: 0x0, symName: __RNvMsa_NtCs6sq8b9ugfBC_4core3fmtNtB5_9Formatter9write_str, symObjAddr: 0x97E0, symBinAddr: 0x100278ABC, symSize: 0x10 }
  - { offset: 0x19AE85, size: 0x8, addend: 0x0, symName: __RNvMs0_NtNtCs6sq8b9ugfBC_4core3fmt3numo10__fmt_inner, symObjAddr: 0x44E4, symBinAddr: 0x1002737C0, symSize: 0x4E0 }
  - { offset: 0x19B059, size: 0x8, addend: 0x0, symName: __RNvMs0_NtNtCs6sq8b9ugfBC_4core3fmt3numo11format_into, symObjAddr: 0x49C4, symBinAddr: 0x100273CA0, symSize: 0x34 }
  - { offset: 0x19B158, size: 0x8, addend: 0x0, symName: __RNvMs0_NtNtCs6sq8b9ugfBC_4core3fmt3numo4__fmt, symObjAddr: 0x49F8, symBinAddr: 0x100273CD4, symSize: 0x2C }
  - { offset: 0x19B205, size: 0x8, addend: 0x0, symName: __RNvMs0_NtNtNtCs6sq8b9ugfBC_4core3fmt3num3imph4__fmt, symObjAddr: 0x4A24, symBinAddr: 0x100273D00, symSize: 0x84 }
  - { offset: 0x19B2AE, size: 0x8, addend: 0x0, symName: __RNvMs1_NtNtNtCs6sq8b9ugfBC_4core3fmt3num3impa11format_into, symObjAddr: 0x4E70, symBinAddr: 0x10027414C, symSize: 0x120 }
  - { offset: 0x19B3C2, size: 0x8, addend: 0x0, symName: __RNvMs2_NtNtNtCs6sq8b9ugfBC_4core3fmt3num3imph11format_into, symObjAddr: 0x524C, symBinAddr: 0x100274528, symSize: 0x98 }
  - { offset: 0x19B474, size: 0x8, addend: 0x0, symName: __RNvMs5_NtNtNtCs6sq8b9ugfBC_4core3fmt3num3impt4__fmt, symObjAddr: 0x63C8, symBinAddr: 0x1002756A4, symSize: 0xFC }
  - { offset: 0x19B55B, size: 0x8, addend: 0x0, symName: __RNvMs6_NtNtNtCs6sq8b9ugfBC_4core3fmt3num3imps11format_into, symObjAddr: 0x69BC, symBinAddr: 0x100275C98, symSize: 0x1F0 }
  - { offset: 0x19B687, size: 0x8, addend: 0x0, symName: __RNvMs7_NtNtNtCs6sq8b9ugfBC_4core3fmt3num3impt11format_into, symObjAddr: 0x6C18, symBinAddr: 0x100275EF4, symSize: 0xF8 }
  - { offset: 0x19B745, size: 0x8, addend: 0x0, symName: __RNvMsa_NtNtNtCs6sq8b9ugfBC_4core3fmt3num3impm4__fmt, symObjAddr: 0x97F0, symBinAddr: 0x100278ACC, symSize: 0xF4 }
  - { offset: 0x19B818, size: 0x8, addend: 0x0, symName: __RNvMsb_NtNtNtCs6sq8b9ugfBC_4core3fmt3num3impl11format_into, symObjAddr: 0x98E4, symBinAddr: 0x100278BC0, symSize: 0x21C }
  - { offset: 0x19B9A8, size: 0x8, addend: 0x0, symName: __RNvMsc_NtNtNtCs6sq8b9ugfBC_4core3fmt3num3impm11format_into, symObjAddr: 0x9B00, symBinAddr: 0x100278DDC, symSize: 0x10C }
  - { offset: 0x19BA84, size: 0x8, addend: 0x0, symName: __RNvMsf_NtNtNtCs6sq8b9ugfBC_4core3fmt3num3impy4__fmt, symObjAddr: 0x9C0C, symBinAddr: 0x100278EE8, symSize: 0xFC }
  - { offset: 0x19BB57, size: 0x8, addend: 0x0, symName: __RNvMsg_NtNtNtCs6sq8b9ugfBC_4core3fmt3num3impx11format_into, symObjAddr: 0x9D08, symBinAddr: 0x100278FE4, symSize: 0x22C }
  - { offset: 0x19BCE7, size: 0x8, addend: 0x0, symName: __RNvMsh_NtNtNtCs6sq8b9ugfBC_4core3fmt3num3impy11format_into, symObjAddr: 0x9F34, symBinAddr: 0x100279210, symSize: 0x114 }
  - { offset: 0x19BDB0, size: 0x8, addend: 0x0, symName: __RNvNtNtNtCs6sq8b9ugfBC_4core3fmt3num3imp7exp_u64, symObjAddr: 0xD3EC, symBinAddr: 0x10027BE80, symSize: 0x4C8 }
  - { offset: 0x19C01E, size: 0x8, addend: 0x0, symName: __RNvXNtNtNtCs6sq8b9ugfBC_4core3fmt3num3imphNtB6_7Display3fmt, symObjAddr: 0x122AC, symBinAddr: 0x100280BD0, symSize: 0xB0 }
  - { offset: 0x19C11A, size: 0x8, addend: 0x0, symName: __RNvXs8_NtNtNtCs6sq8b9ugfBC_4core3fmt3num3impmNtB9_7Display3fmt, symObjAddr: 0x19420, symBinAddr: 0x100287D44, symSize: 0x130 }
  - { offset: 0x19C25B, size: 0x8, addend: 0x0, symName: __RNvXs3_NtNtNtCs6sq8b9ugfBC_4core3fmt3num3imptNtB9_7Display3fmt, symObjAddr: 0x182F0, symBinAddr: 0x100286C14, symSize: 0xFC }
  - { offset: 0x19C34E, size: 0x8, addend: 0x0, symName: __RNvXs4_NtNtNtCs6sq8b9ugfBC_4core3fmt3num3impsNtB9_7Display3fmt, symObjAddr: 0x186F4, symBinAddr: 0x100287018, symSize: 0x118 }
  - { offset: 0x19C44D, size: 0x8, addend: 0x0, symName: __RNvXs9_NtNtNtCs6sq8b9ugfBC_4core3fmt3num3implNtB9_7Display3fmt, symObjAddr: 0x19748, symBinAddr: 0x10028806C, symSize: 0x138 }
  - { offset: 0x19C563, size: 0x8, addend: 0x0, symName: __RNvXsA_NtNtNtCs6sq8b9ugfBC_4core3fmt3num3impyNtB9_8LowerExp3fmt, symObjAddr: 0x19988, symBinAddr: 0x1002882AC, symSize: 0x18 }
  - { offset: 0x19C585, size: 0x8, addend: 0x0, symName: __RNvXsB_NtNtNtCs6sq8b9ugfBC_4core3fmt3num3impxNtB9_8UpperExp3fmt, symObjAddr: 0x199A0, symBinAddr: 0x1002882C4, symSize: 0x24 }
  - { offset: 0x19C5D5, size: 0x8, addend: 0x0, symName: __RNvXsC_NtNtNtCs6sq8b9ugfBC_4core3fmt3num3impyNtB9_8UpperExp3fmt, symObjAddr: 0x199C4, symBinAddr: 0x1002882E8, symSize: 0x18 }
  - { offset: 0x19C5F7, size: 0x8, addend: 0x0, symName: __RNvXsD_NtNtNtCs6sq8b9ugfBC_4core3fmt3num3impiNtB9_8LowerExp3fmt, symObjAddr: 0x199DC, symBinAddr: 0x100288300, symSize: 0x24 }
  - { offset: 0x19C654, size: 0x8, addend: 0x0, symName: __RNvXs_NtNtNtCs6sq8b9ugfBC_4core3fmt3num3impaNtB8_7Display3fmt, symObjAddr: 0x1B914, symBinAddr: 0x10028A238, symSize: 0xD0 }
  - { offset: 0x19C747, size: 0x8, addend: 0x0, symName: __RNvXsd_NtNtNtCs6sq8b9ugfBC_4core3fmt3num3impyNtB9_7Display3fmt, symObjAddr: 0x1C840, symBinAddr: 0x10028B164, symSize: 0x13C }
  - { offset: 0x19C853, size: 0x8, addend: 0x0, symName: __RNvXse_NtNtNtCs6sq8b9ugfBC_4core3fmt3num3impxNtB9_7Display3fmt, symObjAddr: 0x1CAC0, symBinAddr: 0x10028B3E4, symSize: 0x144 }
  - { offset: 0x19C969, size: 0x8, addend: 0x0, symName: __RNvXsn_NtNtNtCs6sq8b9ugfBC_4core3fmt3num3impaNtB9_8LowerExp3fmt, symObjAddr: 0x1DD98, symBinAddr: 0x10028C6BC, symSize: 0x24 }
  - { offset: 0x19C9B9, size: 0x8, addend: 0x0, symName: __RNvXso_NtNtNtCs6sq8b9ugfBC_4core3fmt3num3imphNtB9_8LowerExp3fmt, symObjAddr: 0x1DE38, symBinAddr: 0x10028C75C, symSize: 0x18 }
  - { offset: 0x19C9DB, size: 0x8, addend: 0x0, symName: __RNvXsp_NtNtNtCs6sq8b9ugfBC_4core3fmt3num3impaNtB9_8UpperExp3fmt, symObjAddr: 0x1DF78, symBinAddr: 0x10028C89C, symSize: 0x24 }
  - { offset: 0x19CA2B, size: 0x8, addend: 0x0, symName: __RNvXsq_NtNtNtCs6sq8b9ugfBC_4core3fmt3num3imphNtB9_8UpperExp3fmt, symObjAddr: 0x1E024, symBinAddr: 0x10028C948, symSize: 0x18 }
  - { offset: 0x19CA4D, size: 0x8, addend: 0x0, symName: __RNvXsr_NtNtNtCs6sq8b9ugfBC_4core3fmt3num3impsNtB9_8LowerExp3fmt, symObjAddr: 0x1E0C4, symBinAddr: 0x10028C9E8, symSize: 0x24 }
  - { offset: 0x19CA9D, size: 0x8, addend: 0x0, symName: __RNvXss_NtNtNtCs6sq8b9ugfBC_4core3fmt3num3imptNtB9_8LowerExp3fmt, symObjAddr: 0x1E15C, symBinAddr: 0x10028CA80, symSize: 0x18 }
  - { offset: 0x19CABF, size: 0x8, addend: 0x0, symName: __RNvXst_NtNtNtCs6sq8b9ugfBC_4core3fmt3num3impsNtB9_8UpperExp3fmt, symObjAddr: 0x1E1E8, symBinAddr: 0x10028CB0C, symSize: 0x24 }
  - { offset: 0x19CB0F, size: 0x8, addend: 0x0, symName: __RNvXsu_NtNtNtCs6sq8b9ugfBC_4core3fmt3num3imptNtB9_8UpperExp3fmt, symObjAddr: 0x1E280, symBinAddr: 0x10028CBA4, symSize: 0x18 }
  - { offset: 0x19CB31, size: 0x8, addend: 0x0, symName: __RNvXsv_NtNtNtCs6sq8b9ugfBC_4core3fmt3num3implNtB9_8LowerExp3fmt, symObjAddr: 0x1E30C, symBinAddr: 0x10028CC30, symSize: 0x24 }
  - { offset: 0x19CB81, size: 0x8, addend: 0x0, symName: __RNvXsw_NtNtNtCs6sq8b9ugfBC_4core3fmt3num3impmNtB9_8LowerExp3fmt, symObjAddr: 0x1E3AC, symBinAddr: 0x10028CCD0, symSize: 0x18 }
  - { offset: 0x19CBA3, size: 0x8, addend: 0x0, symName: __RNvXsx_NtNtNtCs6sq8b9ugfBC_4core3fmt3num3implNtB9_8UpperExp3fmt, symObjAddr: 0x1E438, symBinAddr: 0x10028CD5C, symSize: 0x24 }
  - { offset: 0x19CBF3, size: 0x8, addend: 0x0, symName: __RNvXsy_NtNtNtCs6sq8b9ugfBC_4core3fmt3num3impmNtB9_8UpperExp3fmt, symObjAddr: 0x1E45C, symBinAddr: 0x10028CD80, symSize: 0x18 }
  - { offset: 0x19CC16, size: 0x8, addend: 0x0, symName: __RNvMs1_NtNtCs6sq8b9ugfBC_4core3fmt3numn11format_into, symObjAddr: 0x4AA8, symBinAddr: 0x100273D84, symSize: 0x60 }
  - { offset: 0x19CD55, size: 0x8, addend: 0x0, symName: __RNvXs6_NtNtCs6sq8b9ugfBC_4core3fmt3numjNtB7_8LowerHex3fmt, symObjAddr: 0x18AD8, symBinAddr: 0x1002873FC, symSize: 0x70 }
  - { offset: 0x19CDB9, size: 0x8, addend: 0x0, symName: __RNvNtNtCs6sq8b9ugfBC_4core3fmt3num8exp_u128, symObjAddr: 0xB424, symBinAddr: 0x10027A1F4, symSize: 0x888 }
  - { offset: 0x19D010, size: 0x8, addend: 0x0, symName: __RNvXNtNtCs6sq8b9ugfBC_4core3fmt3numoNtB4_7Display3fmt, symObjAddr: 0x12208, symBinAddr: 0x100280B2C, symSize: 0x60 }
  - { offset: 0x19D0C2, size: 0x8, addend: 0x0, symName: __RNvXs10_NtNtCs6sq8b9ugfBC_4core3fmt3numnNtB8_8LowerExp3fmt, symObjAddr: 0x130D4, symBinAddr: 0x1002819F8, symSize: 0x30 }
  - { offset: 0x19D112, size: 0x8, addend: 0x0, symName: __RNvXs11_NtNtCs6sq8b9ugfBC_4core3fmt3numoNtB8_8LowerExp3fmt, symObjAddr: 0x13104, symBinAddr: 0x100281A28, symSize: 0x18 }
  - { offset: 0x19D155, size: 0x8, addend: 0x0, symName: __RNvXsu_NtNtCs6sq8b9ugfBC_4core3fmt3nummNtB7_8LowerHex3fmt, symObjAddr: 0x1E20C, symBinAddr: 0x10028CB30, symSize: 0x74 }
  - { offset: 0x19D1CC, size: 0x8, addend: 0x0, symName: __RNvXsv_NtNtCs6sq8b9ugfBC_4core3fmt3numlNtB7_8LowerHex3fmt, symObjAddr: 0x1E298, symBinAddr: 0x10028CBBC, symSize: 0x74 }
  - { offset: 0x19D259, size: 0x8, addend: 0x0, symName: __RNvXsw_NtNtCs6sq8b9ugfBC_4core3fmt3nummNtB7_8UpperHex3fmt, symObjAddr: 0x1E330, symBinAddr: 0x10028CC54, symSize: 0x74 }
  - { offset: 0x19D2D0, size: 0x8, addend: 0x0, symName: __RNvXsx_NtNtCs6sq8b9ugfBC_4core3fmt3numlNtB7_8UpperHex3fmt, symObjAddr: 0x1E3C4, symBinAddr: 0x10028CCE8, symSize: 0x74 }
  - { offset: 0x19D350, size: 0x8, addend: 0x0, symName: __RNvXs12_NtNtCs6sq8b9ugfBC_4core3fmt3numnNtB8_8UpperExp3fmt, symObjAddr: 0x13358, symBinAddr: 0x100281C7C, symSize: 0x30 }
  - { offset: 0x19D3A0, size: 0x8, addend: 0x0, symName: __RNvXs13_NtNtCs6sq8b9ugfBC_4core3fmt3numoNtB8_8UpperExp3fmt, symObjAddr: 0x13390, symBinAddr: 0x100281CB4, symSize: 0x18 }
  - { offset: 0x19D3CF, size: 0x8, addend: 0x0, symName: __RNvXsW_NtNtCs6sq8b9ugfBC_4core3fmt3nummNtB7_5Debug3fmt, symObjAddr: 0x1A998, symBinAddr: 0x1002892BC, symSize: 0xC4 }
  - { offset: 0x19D4DB, size: 0x8, addend: 0x0, symName: __RNvXs7_NtNtCs6sq8b9ugfBC_4core3fmt3numiNtB7_8LowerHex3fmt, symObjAddr: 0x19000, symBinAddr: 0x100287924, symSize: 0x70 }
  - { offset: 0x19D568, size: 0x8, addend: 0x0, symName: __RNvXs8_NtNtCs6sq8b9ugfBC_4core3fmt3numjNtB7_8UpperHex3fmt, symObjAddr: 0x19134, symBinAddr: 0x100287A58, symSize: 0x70 }
  - { offset: 0x19D5DF, size: 0x8, addend: 0x0, symName: __RNvXs9_NtNtCs6sq8b9ugfBC_4core3fmt3numiNtB7_8UpperHex3fmt, symObjAddr: 0x19588, symBinAddr: 0x100287EAC, symSize: 0x70 }
  - { offset: 0x19D66C, size: 0x8, addend: 0x0, symName: __RNvXsm_NtNtCs6sq8b9ugfBC_4core3fmt3numtNtB7_8LowerHex3fmt, symObjAddr: 0x1DCB0, symBinAddr: 0x10028C5D4, symSize: 0x74 }
  - { offset: 0x19D6D6, size: 0x8, addend: 0x0, symName: __RNvXs2_NtNtCs6sq8b9ugfBC_4core3fmt3numjNtB7_6Binary3fmt, symObjAddr: 0x16DC4, symBinAddr: 0x1002856E8, symSize: 0x70 }
  - { offset: 0x19D74D, size: 0x8, addend: 0x0, symName: __RNvXs3_NtNtCs6sq8b9ugfBC_4core3fmt3numiNtB7_6Binary3fmt, symObjAddr: 0x1809C, symBinAddr: 0x1002869C0, symSize: 0x70 }
  - { offset: 0x19D7D3, size: 0x8, addend: 0x0, symName: __RNvXs4_NtNtCs6sq8b9ugfBC_4core3fmt3numjNtB7_5Octal3fmt, symObjAddr: 0x184F8, symBinAddr: 0x100286E1C, symSize: 0x70 }
  - { offset: 0x19D84A, size: 0x8, addend: 0x0, symName: __RNvXs5_NtNtCs6sq8b9ugfBC_4core3fmt3numiNtB7_5Octal3fmt, symObjAddr: 0x18840, symBinAddr: 0x100287164, symSize: 0x70 }
  - { offset: 0x19D8D0, size: 0x8, addend: 0x0, symName: __RNvXsG_NtNtCs6sq8b9ugfBC_4core3fmt3numoNtB7_6Binary3fmt, symObjAddr: 0x19CD0, symBinAddr: 0x1002885F4, symSize: 0x78 }
  - { offset: 0x19D947, size: 0x8, addend: 0x0, symName: __RNvXsH_NtNtCs6sq8b9ugfBC_4core3fmt3numnNtB7_6Binary3fmt, symObjAddr: 0x19D48, symBinAddr: 0x10028866C, symSize: 0x78 }
  - { offset: 0x19D9CD, size: 0x8, addend: 0x0, symName: __RNvXsI_NtNtCs6sq8b9ugfBC_4core3fmt3numoNtB7_5Octal3fmt, symObjAddr: 0x19DC0, symBinAddr: 0x1002886E4, symSize: 0x78 }
  - { offset: 0x19DA44, size: 0x8, addend: 0x0, symName: __RNvXsJ_NtNtCs6sq8b9ugfBC_4core3fmt3numnNtB7_5Octal3fmt, symObjAddr: 0x19E38, symBinAddr: 0x10028875C, symSize: 0x78 }
  - { offset: 0x19DACA, size: 0x8, addend: 0x0, symName: __RNvXsK_NtNtCs6sq8b9ugfBC_4core3fmt3numoNtB7_8LowerHex3fmt, symObjAddr: 0x19EC8, symBinAddr: 0x1002887EC, symSize: 0x78 }
  - { offset: 0x19DB41, size: 0x8, addend: 0x0, symName: __RNvXsL_NtNtCs6sq8b9ugfBC_4core3fmt3numnNtB7_8LowerHex3fmt, symObjAddr: 0x19F40, symBinAddr: 0x100288864, symSize: 0x78 }
  - { offset: 0x19DBCE, size: 0x8, addend: 0x0, symName: __RNvXsM_NtNtCs6sq8b9ugfBC_4core3fmt3numoNtB7_8UpperHex3fmt, symObjAddr: 0x19FC0, symBinAddr: 0x1002888E4, symSize: 0x78 }
  - { offset: 0x19DC45, size: 0x8, addend: 0x0, symName: __RNvXsN_NtNtCs6sq8b9ugfBC_4core3fmt3numnNtB7_8UpperHex3fmt, symObjAddr: 0x1A040, symBinAddr: 0x100288964, symSize: 0x78 }
  - { offset: 0x19DCDF, size: 0x8, addend: 0x0, symName: __RNvXse_NtNtCs6sq8b9ugfBC_4core3fmt3numhNtB7_8LowerHex3fmt, symObjAddr: 0x1CA4C, symBinAddr: 0x10028B370, symSize: 0x74 }
  - { offset: 0x19DD56, size: 0x8, addend: 0x0, symName: __RNvXsf_NtNtCs6sq8b9ugfBC_4core3fmt3numaNtB7_8LowerHex3fmt, symObjAddr: 0x1CC84, symBinAddr: 0x10028B5A8, symSize: 0x74 }
  - { offset: 0x19DDE3, size: 0x8, addend: 0x0, symName: __RNvXsg_NtNtCs6sq8b9ugfBC_4core3fmt3numhNtB7_8UpperHex3fmt, symObjAddr: 0x1CE18, symBinAddr: 0x10028B73C, symSize: 0x74 }
  - { offset: 0x19DE5A, size: 0x8, addend: 0x0, symName: __RNvXsh_NtNtCs6sq8b9ugfBC_4core3fmt3numaNtB7_8UpperHex3fmt, symObjAddr: 0x1D214, symBinAddr: 0x10028BB38, symSize: 0x74 }
  - { offset: 0x19DEDA, size: 0x8, addend: 0x0, symName: __RNvXsO_NtNtCs6sq8b9ugfBC_4core3fmt3numaNtB7_5Debug3fmt, symObjAddr: 0x1A124, symBinAddr: 0x100288A48, symSize: 0x164 }
  - { offset: 0x19E0C9, size: 0x8, addend: 0x0, symName: __RNvXsn_NtNtCs6sq8b9ugfBC_4core3fmt3numsNtB7_8LowerHex3fmt, symObjAddr: 0x1DD24, symBinAddr: 0x10028C648, symSize: 0x74 }
  - { offset: 0x19E156, size: 0x8, addend: 0x0, symName: __RNvXso_NtNtCs6sq8b9ugfBC_4core3fmt3numtNtB7_8UpperHex3fmt, symObjAddr: 0x1DDBC, symBinAddr: 0x10028C6E0, symSize: 0x74 }
  - { offset: 0x19E1CD, size: 0x8, addend: 0x0, symName: __RNvXsp_NtNtCs6sq8b9ugfBC_4core3fmt3numsNtB7_8UpperHex3fmt, symObjAddr: 0x1DF04, symBinAddr: 0x10028C828, symSize: 0x74 }
  - { offset: 0x19E24D, size: 0x8, addend: 0x0, symName: __RNvXsP_NtNtCs6sq8b9ugfBC_4core3fmt3numsNtB7_5Debug3fmt, symObjAddr: 0x1A288, symBinAddr: 0x100288BAC, symSize: 0x1C0 }
  - { offset: 0x19E449, size: 0x8, addend: 0x0, symName: __RNvXs_NtNtCs6sq8b9ugfBC_4core3fmt3numnNtB6_7Display3fmt, symObjAddr: 0x1AF0C, symBinAddr: 0x100289830, symSize: 0x78 }
  - { offset: 0x19E4F2, size: 0x8, addend: 0x0, symName: __RNvXsS_NtNtCs6sq8b9ugfBC_4core3fmt3numnNtB7_5Debug3fmt, symObjAddr: 0x1A450, symBinAddr: 0x100288D74, symSize: 0x11C }
  - { offset: 0x19E64E, size: 0x8, addend: 0x0, symName: __RNvXsU_NtNtCs6sq8b9ugfBC_4core3fmt3numhNtB7_5Debug3fmt, symObjAddr: 0x1A574, symBinAddr: 0x100288E98, symSize: 0x14C }
  - { offset: 0x19E7F8, size: 0x8, addend: 0x0, symName: __RNvXsV_NtNtCs6sq8b9ugfBC_4core3fmt3numtNtB7_5Debug3fmt, symObjAddr: 0x1A7EC, symBinAddr: 0x100289110, symSize: 0x1AC }
  - { offset: 0x19E9AE, size: 0x8, addend: 0x0, symName: __RNvXsX_NtNtCs6sq8b9ugfBC_4core3fmt3numyNtB7_5Debug3fmt, symObjAddr: 0x1AA5C, symBinAddr: 0x100289380, symSize: 0x1C4 }
  - { offset: 0x19EB29, size: 0x8, addend: 0x0, symName: __RNvXsY_NtNtCs6sq8b9ugfBC_4core3fmt3numoNtB7_5Debug3fmt, symObjAddr: 0x1AC28, symBinAddr: 0x10028954C, symSize: 0xFC }
  - { offset: 0x19EC54, size: 0x8, addend: 0x0, symName: __RNvXsZ_NtNtCs6sq8b9ugfBC_4core3fmt3numjNtB7_5Debug3fmt, symObjAddr: 0x1AD24, symBinAddr: 0x100289648, symSize: 0x1D0 }
  - { offset: 0x19EDCF, size: 0x8, addend: 0x0, symName: __RNvXsa_NtNtCs6sq8b9ugfBC_4core3fmt3numhNtB7_6Binary3fmt, symObjAddr: 0x1BC68, symBinAddr: 0x10028A58C, symSize: 0x74 }
  - { offset: 0x19EE46, size: 0x8, addend: 0x0, symName: __RNvXsb_NtNtCs6sq8b9ugfBC_4core3fmt3numaNtB7_6Binary3fmt, symObjAddr: 0x1BDC4, symBinAddr: 0x10028A6E8, symSize: 0x74 }
  - { offset: 0x19EECC, size: 0x8, addend: 0x0, symName: __RNvXsc_NtNtCs6sq8b9ugfBC_4core3fmt3numhNtB7_5Octal3fmt, symObjAddr: 0x1BF00, symBinAddr: 0x10028A824, symSize: 0x74 }
  - { offset: 0x19EF43, size: 0x8, addend: 0x0, symName: __RNvXsd_NtNtCs6sq8b9ugfBC_4core3fmt3numaNtB7_5Octal3fmt, symObjAddr: 0x1C5D0, symBinAddr: 0x10028AEF4, symSize: 0x74 }
  - { offset: 0x19EFC9, size: 0x8, addend: 0x0, symName: __RNvXsi_NtNtCs6sq8b9ugfBC_4core3fmt3numtNtB7_6Binary3fmt, symObjAddr: 0x1D29C, symBinAddr: 0x10028BBC0, symSize: 0x74 }
  - { offset: 0x19F040, size: 0x8, addend: 0x0, symName: __RNvXsj_NtNtCs6sq8b9ugfBC_4core3fmt3numsNtB7_6Binary3fmt, symObjAddr: 0x1D3B8, symBinAddr: 0x10028BCDC, symSize: 0x74 }
  - { offset: 0x19F0C6, size: 0x8, addend: 0x0, symName: __RNvXsk_NtNtCs6sq8b9ugfBC_4core3fmt3numtNtB7_5Octal3fmt, symObjAddr: 0x1DBB0, symBinAddr: 0x10028C4D4, symSize: 0x74 }
  - { offset: 0x19F13D, size: 0x8, addend: 0x0, symName: __RNvXsl_NtNtCs6sq8b9ugfBC_4core3fmt3numsNtB7_5Octal3fmt, symObjAddr: 0x1DC28, symBinAddr: 0x10028C54C, symSize: 0x74 }
  - { offset: 0x19F1C3, size: 0x8, addend: 0x0, symName: __RNvXsq_NtNtCs6sq8b9ugfBC_4core3fmt3nummNtB7_6Binary3fmt, symObjAddr: 0x1DFB0, symBinAddr: 0x10028C8D4, symSize: 0x74 }
  - { offset: 0x19F23A, size: 0x8, addend: 0x0, symName: __RNvXsr_NtNtCs6sq8b9ugfBC_4core3fmt3numlNtB7_6Binary3fmt, symObjAddr: 0x1E050, symBinAddr: 0x10028C974, symSize: 0x74 }
  - { offset: 0x19F2C0, size: 0x8, addend: 0x0, symName: __RNvXss_NtNtCs6sq8b9ugfBC_4core3fmt3nummNtB7_5Octal3fmt, symObjAddr: 0x1E0E8, symBinAddr: 0x10028CA0C, symSize: 0x74 }
  - { offset: 0x19F337, size: 0x8, addend: 0x0, symName: __RNvXst_NtNtCs6sq8b9ugfBC_4core3fmt3numlNtB7_5Octal3fmt, symObjAddr: 0x1E174, symBinAddr: 0x10028CA98, symSize: 0x74 }
  - { offset: 0x19F4A4, size: 0x8, addend: 0x0, symName: __RNvMs_NtNtCs6sq8b9ugfBC_4core3fmt8buildersNtB4_10PadAdapter4wrap, symObjAddr: 0x6E78, symBinAddr: 0x100276154, symSize: 0x24 }
  - { offset: 0x19F4BC, size: 0x8, addend: 0x0, symName: __RNvMs_NtNtCs6sq8b9ugfBC_4core3fmt8buildersNtB4_10PadAdapter4wrap, symObjAddr: 0x6E78, symBinAddr: 0x100276154, symSize: 0x24 }
  - { offset: 0x19F51D, size: 0x8, addend: 0x0, symName: __RNvMs1_NtNtCs6sq8b9ugfBC_4core3fmt8buildersNtB5_11DebugStruct21finish_non_exhaustive, symObjAddr: 0x4B08, symBinAddr: 0x100273DE4, symSize: 0xC4 }
  - { offset: 0x19F653, size: 0x8, addend: 0x0, symName: __RNvMs1_NtNtCs6sq8b9ugfBC_4core3fmt8buildersNtB5_11DebugStruct5field, symObjAddr: 0x4BCC, symBinAddr: 0x100273EA8, symSize: 0x1B4 }
  - { offset: 0x19F878, size: 0x8, addend: 0x0, symName: __RNvMs1_NtNtCs6sq8b9ugfBC_4core3fmt8buildersNtB5_11DebugStruct6finish, symObjAddr: 0x4D80, symBinAddr: 0x10027405C, symSize: 0x7C }
  - { offset: 0x19F989, size: 0x8, addend: 0x0, symName: __RNvMs2_NtNtCs6sq8b9ugfBC_4core3fmt8buildersNtB5_10DebugTuple21finish_non_exhaustive, symObjAddr: 0x4F90, symBinAddr: 0x10027426C, symSize: 0xC0 }
  - { offset: 0x19FAD8, size: 0x8, addend: 0x0, symName: __RNvMs2_NtNtCs6sq8b9ugfBC_4core3fmt8buildersNtB5_10DebugTuple5field, symObjAddr: 0x5050, symBinAddr: 0x10027432C, symSize: 0x148 }
  - { offset: 0x19FC67, size: 0x8, addend: 0x0, symName: __RNvMs2_NtNtCs6sq8b9ugfBC_4core3fmt8buildersNtB5_10DebugTuple6finish, symObjAddr: 0x5198, symBinAddr: 0x100274474, symSize: 0xB4 }
  - { offset: 0x19FD55, size: 0x8, addend: 0x0, symName: __RNvMs4_NtNtCs6sq8b9ugfBC_4core3fmt8buildersNtB5_8DebugSet21finish_non_exhaustive, symObjAddr: 0x5F78, symBinAddr: 0x100275254, symSize: 0xC4 }
  - { offset: 0x19FE80, size: 0x8, addend: 0x0, symName: __RNvMs4_NtNtCs6sq8b9ugfBC_4core3fmt8buildersNtB5_8DebugSet5entry, symObjAddr: 0x603C, symBinAddr: 0x100275318, symSize: 0x148 }
  - { offset: 0x1A0016, size: 0x8, addend: 0x0, symName: __RNvMs4_NtNtCs6sq8b9ugfBC_4core3fmt8buildersNtB5_8DebugSet6finish, symObjAddr: 0x6184, symBinAddr: 0x100275460, symSize: 0x4C }
  - { offset: 0x1A0116, size: 0x8, addend: 0x0, symName: __RNvMs5_NtNtCs6sq8b9ugfBC_4core3fmt8buildersNtB5_9DebugList21finish_non_exhaustive, symObjAddr: 0x61D0, symBinAddr: 0x1002754AC, symSize: 0xC8 }
  - { offset: 0x1A0249, size: 0x8, addend: 0x0, symName: __RNvMs5_NtNtCs6sq8b9ugfBC_4core3fmt8buildersNtB5_9DebugList6finish, symObjAddr: 0x6298, symBinAddr: 0x100275574, symSize: 0x4C }
  - { offset: 0x1A035E, size: 0x8, addend: 0x0, symName: __RNvMs6_NtNtCs6sq8b9ugfBC_4core3fmt8buildersNtB5_8DebugMap21finish_non_exhaustive, symObjAddr: 0x64C4, symBinAddr: 0x1002757A0, symSize: 0xE4 }
  - { offset: 0x1A04A5, size: 0x8, addend: 0x0, symName: __RNvMs6_NtNtCs6sq8b9ugfBC_4core3fmt8buildersNtB5_8DebugMap3key, symObjAddr: 0x65A8, symBinAddr: 0x100275884, symSize: 0x1B4 }
  - { offset: 0x1A0687, size: 0x8, addend: 0x0, symName: __RNvMs6_NtNtCs6sq8b9ugfBC_4core3fmt8buildersNtB5_8DebugMap5entry, symObjAddr: 0x675C, symBinAddr: 0x100275A38, symSize: 0xFC }
  - { offset: 0x1A07D2, size: 0x8, addend: 0x0, symName: __RNvMs6_NtNtCs6sq8b9ugfBC_4core3fmt8buildersNtB5_8DebugMap5value, symObjAddr: 0x6858, symBinAddr: 0x100275B34, symSize: 0xF4 }
  - { offset: 0x1A0907, size: 0x8, addend: 0x0, symName: __RNvMs6_NtNtCs6sq8b9ugfBC_4core3fmt8buildersNtB5_8DebugMap6finish, symObjAddr: 0x694C, symBinAddr: 0x100275C28, symSize: 0x70 }
  - { offset: 0x1A09A3, size: 0x8, addend: 0x0, symName: __RNvXs0_NtNtCs6sq8b9ugfBC_4core3fmt8buildersNtB5_10PadAdapterNtB7_5Write10write_char, symObjAddr: 0x12470, symBinAddr: 0x100280D94, symSize: 0x80 }
  - { offset: 0x1A09CD, size: 0x8, addend: 0x0, symName: __RNvXs0_NtNtCs6sq8b9ugfBC_4core3fmt8buildersNtB5_10PadAdapterNtB7_5Write9write_str, symObjAddr: 0x124F0, symBinAddr: 0x100280E14, symSize: 0x240 }
  - { offset: 0x1A0CEE, size: 0x8, addend: 0x0, symName: __RNvMs_NtCs6sq8b9ugfBC_4core3fmtNtB4_17FormattingOptions8get_fill, symObjAddr: 0x6E6C, symBinAddr: 0x100276148, symSize: 0xC }
  - { offset: 0x1A0E43, size: 0x8, addend: 0x0, symName: __RNvNvMsa_NtCs6sq8b9ugfBC_4core3fmtNtB7_9Formatter12pad_integral12write_prefix, symObjAddr: 0x113F8, symBinAddr: 0x10027FD54, symSize: 0x7C }
  - { offset: 0x1A0E8B, size: 0x8, addend: 0x0, symName: __RNvXs1g_NtCs6sq8b9ugfBC_4core3fmtRDNtB6_5DebugEL_Bx_3fmtB8_, symObjAddr: 0x14FE8, symBinAddr: 0x10028390C, symSize: 0x10 }
  - { offset: 0x1A0EAD, size: 0x8, addend: 0x0, symName: __RNvXs1g_NtCs6sq8b9ugfBC_4core3fmtRINtNtB8_6option6OptionjENtB6_5Debug3fmtB8_, symObjAddr: 0x14FF8, symBinAddr: 0x10028391C, symSize: 0x164 }
  - { offset: 0x1A10EE, size: 0x8, addend: 0x0, symName: __RNvXs1g_NtCs6sq8b9ugfBC_4core3fmtRNtNtNtB8_4task4wake5WakerNtB6_5Debug3fmtB8_, symObjAddr: 0x1515C, symBinAddr: 0x100283A80, symSize: 0x8 }
  - { offset: 0x1A1109, size: 0x8, addend: 0x0, symName: __RNvXs1g_NtCs6sq8b9ugfBC_4core3fmtRPNtNtB8_3ffi6c_voidNtB6_5Debug3fmtB8_, symObjAddr: 0x15164, symBinAddr: 0x100283A88, symSize: 0xB8 }
  - { offset: 0x1A1211, size: 0x8, addend: 0x0, symName: __RNvXs1g_NtCs6sq8b9ugfBC_4core3fmtReNtB6_5Debug3fmtB8_, symObjAddr: 0x1521C, symBinAddr: 0x100283B40, symSize: 0x10 }
  - { offset: 0x1A122C, size: 0x8, addend: 0x0, symName: __RNvXs1g_NtCs6sq8b9ugfBC_4core3fmtRjNtB6_5Debug3fmtB8_, symObjAddr: 0x1522C, symBinAddr: 0x100283B50, symSize: 0x8 }
  - { offset: 0x1A1240, size: 0x8, addend: 0x0, symName: __RNvXs1g_NtCs6sq8b9ugfBC_4core3fmtRyNtB6_5Debug3fmtB8_, symObjAddr: 0x15234, symBinAddr: 0x100283B58, symSize: 0xC }
  - { offset: 0x1A126A, size: 0x8, addend: 0x0, symName: __RNvNtCs6sq8b9ugfBC_4core3fmt17pointer_fmt_inner, symObjAddr: 0xA8D0, symBinAddr: 0x100279BAC, symSize: 0xB0 }
  - { offset: 0x1A1373, size: 0x8, addend: 0x0, symName: __RNvNtCs6sq8b9ugfBC_4core3fmt5write, symObjAddr: 0xA980, symBinAddr: 0x100279C5C, symSize: 0x1B4 }
  - { offset: 0x1A161A, size: 0x8, addend: 0x0, symName: __RNvXsb_NtCs6sq8b9ugfBC_4core3fmtNtB5_9FormatterNtB5_5Write10write_char, symObjAddr: 0x1BD50, symBinAddr: 0x10028A674, symSize: 0x10 }
  - { offset: 0x1A1643, size: 0x8, addend: 0x0, symName: __RNvXsi_NtCs6sq8b9ugfBC_4core3fmteNtB5_7Display3fmt, symObjAddr: 0x1D288, symBinAddr: 0x10028BBAC, symSize: 0x14 }
  - { offset: 0x1A169D, size: 0x8, addend: 0x0, symName: __RNvXsp_NtCs6sq8b9ugfBC_4core3fmtPNtNtNtB7_4task4wake14RawWakerVTableNtB5_5Debug3fmtB7_, symObjAddr: 0x1DE50, symBinAddr: 0x10028C774, symSize: 0xB4 }
  - { offset: 0x1A1795, size: 0x8, addend: 0x0, symName: __RNvXs1i_NtCs6sq8b9ugfBC_4core3fmtRNtNtNtB8_3net7ip_addr8Ipv4AddrNtB6_7Display3fmtB8_, symObjAddr: 0x1524C, symBinAddr: 0x100283B70, symSize: 0x8 }
  - { offset: 0x1A17B0, size: 0x8, addend: 0x0, symName: __RNvXs1i_NtCs6sq8b9ugfBC_4core3fmtRNtNtNtB8_3net7ip_addr8Ipv6AddrNtB6_7Display3fmtB8_, symObjAddr: 0x15254, symBinAddr: 0x100283B78, symSize: 0x8 }
  - { offset: 0x1A17CB, size: 0x8, addend: 0x0, symName: __RNvXs1i_NtCs6sq8b9ugfBC_4core3fmtReNtB6_7Display3fmtB8_, symObjAddr: 0x1525C, symBinAddr: 0x100283B80, symSize: 0x10 }
  - { offset: 0x1A17FD, size: 0x8, addend: 0x0, symName: __RNvXs1i_NtCs6sq8b9ugfBC_4core3fmtRjNtB6_7Display3fmtB8_, symObjAddr: 0x1526C, symBinAddr: 0x100283B90, symSize: 0x140 }
  - { offset: 0x1A1927, size: 0x8, addend: 0x0, symName: __RNvXs1o_NtCs6sq8b9ugfBC_4core3fmtRtNtB6_8LowerHex3fmtB8_, symObjAddr: 0x15628, symBinAddr: 0x100283F4C, symSize: 0x78 }
  - { offset: 0x1A19BD, size: 0x8, addend: 0x0, symName: __RNvXsj_NtCs6sq8b9ugfBC_4core3fmtcNtB5_5Debug3fmt, symObjAddr: 0x1D310, symBinAddr: 0x10028BC34, symSize: 0xA8 }
  - { offset: 0x1A1B7C, size: 0x8, addend: 0x0, symName: __RNvYINtNtNtCs6sq8b9ugfBC_4core3net14display_buffer13DisplayBufferKj15_ENtNtB9_3fmt5Write10write_charB9_, symObjAddr: 0x1E474, symBinAddr: 0x10028CD98, symSize: 0x134 }
  - { offset: 0x1A1C81, size: 0x8, addend: 0x0, symName: __RNvYINtNtNtCs6sq8b9ugfBC_4core3net14display_buffer13DisplayBufferKj15_ENtNtB9_3fmt5Write9write_fmtB9_, symObjAddr: 0x1E5A8, symBinAddr: 0x10028CECC, symSize: 0x14 }
  - { offset: 0x1A1CB1, size: 0x8, addend: 0x0, symName: __RNvYINtNtNtCs6sq8b9ugfBC_4core3net14display_buffer13DisplayBufferKj27_ENtNtB9_3fmt5Write10write_charB9_, symObjAddr: 0x1E5BC, symBinAddr: 0x10028CEE0, symSize: 0x134 }
  - { offset: 0x1A1DB6, size: 0x8, addend: 0x0, symName: __RNvYINtNtNtCs6sq8b9ugfBC_4core3net14display_buffer13DisplayBufferKj27_ENtNtB9_3fmt5Write9write_fmtB9_, symObjAddr: 0x1E6F0, symBinAddr: 0x10028D014, symSize: 0x14 }
  - { offset: 0x1A1DE6, size: 0x8, addend: 0x0, symName: __RNvYINtNtNtCs6sq8b9ugfBC_4core3net14display_buffer13DisplayBufferKj3a_ENtNtB9_3fmt5Write10write_charB9_, symObjAddr: 0x1E704, symBinAddr: 0x10028D028, symSize: 0x134 }
  - { offset: 0x1A1EEB, size: 0x8, addend: 0x0, symName: __RNvYINtNtNtCs6sq8b9ugfBC_4core3net14display_buffer13DisplayBufferKj3a_ENtNtB9_3fmt5Write9write_fmtB9_, symObjAddr: 0x1E838, symBinAddr: 0x10028D15C, symSize: 0x14 }
  - { offset: 0x1A1F1B, size: 0x8, addend: 0x0, symName: __RNvYINtNtNtCs6sq8b9ugfBC_4core3net14display_buffer13DisplayBufferKjf_ENtNtB9_3fmt5Write10write_charB9_, symObjAddr: 0x1E84C, symBinAddr: 0x10028D170, symSize: 0x134 }
  - { offset: 0x1A2020, size: 0x8, addend: 0x0, symName: __RNvYINtNtNtCs6sq8b9ugfBC_4core3net14display_buffer13DisplayBufferKjf_ENtNtB9_3fmt5Write9write_fmtB9_, symObjAddr: 0x1E980, symBinAddr: 0x10028D2A4, symSize: 0x14 }
  - { offset: 0x1A2050, size: 0x8, addend: 0x0, symName: __RNvYNtNtNtCs6sq8b9ugfBC_4core3fmt8builders10PadAdapterNtB6_5Write9write_fmtB8_, symObjAddr: 0x1E9BC, symBinAddr: 0x10028D2E0, symSize: 0x14 }
  - { offset: 0x1A2095, size: 0x8, addend: 0x0, symName: __RNvXsg_NtCs6sq8b9ugfBC_4core3fmtbNtB5_7Display3fmt, symObjAddr: 0x1CDE4, symBinAddr: 0x10028B708, symSize: 0x34 }
  - { offset: 0x1A20EB, size: 0x8, addend: 0x0, symName: __RNvXsf_NtCs6sq8b9ugfBC_4core3fmtbNtB5_5Debug3fmt, symObjAddr: 0x1CC04, symBinAddr: 0x10028B528, symSize: 0x34 }
  - { offset: 0x1A215F, size: 0x8, addend: 0x0, symName: __RNvXs8_NtCs6sq8b9ugfBC_4core3fmtNtB5_9ArgumentsNtB5_7Display3fmt, symObjAddr: 0x190A8, symBinAddr: 0x1002879CC, symSize: 0x10 }
  - { offset: 0x1A217A, size: 0x8, addend: 0x0, symName: __RNvXs7_NtCs6sq8b9ugfBC_4core3fmtNtB5_9ArgumentsNtB5_5Debug3fmt, symObjAddr: 0x18FC8, symBinAddr: 0x1002878EC, symSize: 0x10 }
  - { offset: 0x1A2199, size: 0x8, addend: 0x0, symName: __RNvXs7_NtCs6sq8b9ugfBC_4core3fmtNtB5_9ArgumentsNtB5_5Debug3fmt, symObjAddr: 0x18FC8, symBinAddr: 0x1002878EC, symSize: 0x10 }
  - { offset: 0x1A21B3, size: 0x8, addend: 0x0, symName: __RNvXsK_NtCs6sq8b9ugfBC_4core3fmtNtB5_5ErrorNtB5_5Debug3fmt, symObjAddr: 0x19EB0, symBinAddr: 0x1002887D4, symSize: 0x18 }
  - { offset: 0x1A21D1, size: 0x8, addend: 0x0, symName: __RNvXsK_NtCs6sq8b9ugfBC_4core3fmtNtB5_5ErrorNtB5_5Debug3fmt, symObjAddr: 0x19EB0, symBinAddr: 0x1002887D4, symSize: 0x18 }
  - { offset: 0x1A21EA, size: 0x8, addend: 0x0, symName: __RNvXsc_NtCs6sq8b9ugfBC_4core3fmtNtB5_5ErrorNtB5_7Display3fmt, symObjAddr: 0x1BE90, symBinAddr: 0x10028A7B4, symSize: 0x14 }
  - { offset: 0x1A2246, size: 0x8, addend: 0x0, symName: __RNvXsh_NtCs6sq8b9ugfBC_4core3fmteNtB5_5Debug3fmt, symObjAddr: 0x1CE8C, symBinAddr: 0x10028B7B0, symSize: 0x388 }
  - { offset: 0x1A2731, size: 0x8, addend: 0x0, symName: __RNvXsk_NtCs6sq8b9ugfBC_4core3fmtcNtB5_7Display3fmt, symObjAddr: 0x1DADC, symBinAddr: 0x10028C400, symSize: 0xD4 }
  - { offset: 0x1A31BC, size: 0x8, addend: 0x0, symName: __RNvNtNtCs6sq8b9ugfBC_4core5slice5index16slice_index_fail, symObjAddr: 0xCB70, symBinAddr: 0x100310B34, symSize: 0xB4 }
  - { offset: 0x1A3741, size: 0x8, addend: 0x0, symName: __RNvNvMNtCs6sq8b9ugfBC_4core5sliceSp16align_to_offsets3gcd, symObjAddr: 0x1120C, symBinAddr: 0x10027FB68, symSize: 0x1C }
  - { offset: 0x1A3CC9, size: 0x8, addend: 0x0, symName: __RNvNtNtCs6sq8b9ugfBC_4core5slice6memchr14memchr_aligned, symObjAddr: 0xCC24, symBinAddr: 0x10027B920, symSize: 0xDC }
  - { offset: 0x1A3CE1, size: 0x8, addend: 0x0, symName: __RNvNtNtCs6sq8b9ugfBC_4core5slice6memchr14memchr_aligned, symObjAddr: 0xCC24, symBinAddr: 0x10027B920, symSize: 0xDC }
  - { offset: 0x1A3CF7, size: 0x8, addend: 0x0, symName: __RNvNtNtCs6sq8b9ugfBC_4core5slice6memchr14memchr_aligned, symObjAddr: 0xCC24, symBinAddr: 0x10027B920, symSize: 0xDC }
  - { offset: 0x1A3D0C, size: 0x8, addend: 0x0, symName: __RNvNtNtCs6sq8b9ugfBC_4core5slice6memchr14memchr_aligned, symObjAddr: 0xCC24, symBinAddr: 0x10027B920, symSize: 0xDC }
  - { offset: 0x1A3D22, size: 0x8, addend: 0x0, symName: __RNvNtNtCs6sq8b9ugfBC_4core5slice6memchr14memchr_aligned, symObjAddr: 0xCC24, symBinAddr: 0x10027B920, symSize: 0xDC }
  - { offset: 0x1A3DD8, size: 0x8, addend: 0x0, symName: __RNvNtNtCs6sq8b9ugfBC_4core5slice6memchr7memrchr, symObjAddr: 0xCD00, symBinAddr: 0x10027B9FC, symSize: 0x120 }
  - { offset: 0x1A406A, size: 0x8, addend: 0x0, symName: __RNvNtNtNtNtCs6sq8b9ugfBC_4core5slice4sort6shared9smallsort22panic_on_ord_violation, symObjAddr: 0xEFA4, symBinAddr: 0x100310F68, symSize: 0x20 }
  - { offset: 0x1A4093, size: 0x8, addend: 0x0, symName: __RNvNtNtNtNtCs6sq8b9ugfBC_4core5slice4sort6stable5drift11sqrt_approx, symObjAddr: 0xEFC4, symBinAddr: 0x10027D920, symSize: 0x2C }
  - { offset: 0x1A414F, size: 0x8, addend: 0x0, symName: __RNvNvNtCs6sq8b9ugfBC_4core5slice20copy_from_slice_impl17len_mismatch_fail, symObjAddr: 0x11474, symBinAddr: 0x100310F88, symSize: 0x38 }
  - { offset: 0x1A41CC, size: 0x8, addend: 0x0, symName: __RNvXs0_NtNtCs6sq8b9ugfBC_4core5slice5asciiNtB5_11EscapeAsciiNtNtNtNtB9_4iter6traits12double_ended19DoubleEndedIterator9next_back, symObjAddr: 0x12FAC, symBinAddr: 0x1002818D0, symSize: 0x128 }
  - { offset: 0x1A44D0, size: 0x8, addend: 0x0, symName: __RNvXs2_NtNtCs6sq8b9ugfBC_4core5slice5asciiNtB5_11EscapeAsciiNtNtB9_3fmt7Display3fmt, symObjAddr: 0x17578, symBinAddr: 0x100285E9C, symSize: 0x23C }
  - { offset: 0x1A4A51, size: 0x8, addend: 0x0, symName: __RNvXs3_NtNtCs6sq8b9ugfBC_4core5slice5asciiNtB5_11EscapeAsciiNtNtB9_3fmt5Debug3fmt, symObjAddr: 0x18284, symBinAddr: 0x100286BA8, symSize: 0x6C }
  - { offset: 0x1A4B01, size: 0x8, addend: 0x0, symName: __RNvXs9_NtCs6sq8b9ugfBC_4core5sliceNtB5_19GetDisjointMutErrorNtNtB7_3fmt7Display3fmt, symObjAddr: 0x19550, symBinAddr: 0x100287E74, symSize: 0x38 }
  - { offset: 0x1A4C14, size: 0x8, addend: 0x0, symName: __RNvMNtNtCs6sq8b9ugfBC_4core3net6parserNtB2_6Parser14read_ipv4_addr, symObjAddr: 0x2DD8, symBinAddr: 0x1002720B4, symSize: 0x39C }
  - { offset: 0x1A4DF7, size: 0x8, addend: 0x0, symName: __RNvMNtNtCs6sq8b9ugfBC_4core3net6parserNtB2_6Parser14read_ipv6_addr, symObjAddr: 0x3174, symBinAddr: 0x100272450, symSize: 0x140 }
  - { offset: 0x1A5180, size: 0x8, addend: 0x0, symName: __RNvMNtNtCs6sq8b9ugfBC_4core3net6parserNtB2_6Parser19read_socket_addr_v6, symObjAddr: 0x32B4, symBinAddr: 0x100272590, symSize: 0x1B4 }
  - { offset: 0x1A5791, size: 0x8, addend: 0x0, symName: __RNCINvMNtNtCs6sq8b9ugfBC_4core3net6parserNtB5_6Parser11read_numbertE0B9_, symObjAddr: 0x2898, symBinAddr: 0x100271B74, symSize: 0x290 }
  - { offset: 0x1A5A26, size: 0x8, addend: 0x0, symName: __RNvNvMNtNtCs6sq8b9ugfBC_4core3net6parserNtB4_6Parser14read_ipv6_addr11read_groups, symObjAddr: 0x11228, symBinAddr: 0x10027FB84, symSize: 0x1D0 }
  - { offset: 0x1A5E1F, size: 0x8, addend: 0x0, symName: __RNvXs0_NtNtCs6sq8b9ugfBC_4core3net6parserNtNtB7_7ip_addr6IpAddrNtNtNtB9_3str6traits7FromStr8from_str, symObjAddr: 0x12730, symBinAddr: 0x100281054, symSize: 0xB8 }
  - { offset: 0x1A5F07, size: 0x8, addend: 0x0, symName: __RNvXs2_NtNtCs6sq8b9ugfBC_4core3net6parserNtNtB7_7ip_addr8Ipv4AddrNtNtNtB9_3str6traits7FromStr8from_str, symObjAddr: 0x16EAC, symBinAddr: 0x1002857D0, symSize: 0x74 }
  - { offset: 0x1A5F7B, size: 0x8, addend: 0x0, symName: __RNvXs4_NtNtCs6sq8b9ugfBC_4core3net6parserNtNtB7_7ip_addr8Ipv6AddrNtNtNtB9_3str6traits7FromStr8from_str, symObjAddr: 0x185B8, symBinAddr: 0x100286EDC, symSize: 0x70 }
  - { offset: 0x1A6004, size: 0x8, addend: 0x0, symName: __RNvXs6_NtNtCs6sq8b9ugfBC_4core3net6parserNtNtB7_11socket_addr12SocketAddrV4NtNtNtB9_3str6traits7FromStr8from_str, symObjAddr: 0x18CEC, symBinAddr: 0x100287610, symSize: 0xE4 }
  - { offset: 0x1A61B5, size: 0x8, addend: 0x0, symName: __RNvXs8_NtNtCs6sq8b9ugfBC_4core3net6parserNtNtB7_11socket_addr12SocketAddrV6NtNtNtB9_3str6traits7FromStr8from_str, symObjAddr: 0x193B4, symBinAddr: 0x100287CD8, symSize: 0x6C }
  - { offset: 0x1A6230, size: 0x8, addend: 0x0, symName: __RNvXsa_NtNtCs6sq8b9ugfBC_4core3net6parserNtNtB7_11socket_addr10SocketAddrNtNtNtB9_3str6traits7FromStr8from_str, symObjAddr: 0x1BD4C, symBinAddr: 0x10028A670, symSize: 0x4 }
  - { offset: 0x1A6252, size: 0x8, addend: 0x0, symName: __RNvXsb_NtNtCs6sq8b9ugfBC_4core3net6parserNtB5_14AddrParseErrorNtNtB9_3fmt7Display3fmt, symObjAddr: 0x1BE68, symBinAddr: 0x10028A78C, symSize: 0x28 }
  - { offset: 0x1A62A0, size: 0x8, addend: 0x0, symName: __RNvMs3_NtNtCs6sq8b9ugfBC_4core3net6parserNtNtB7_7ip_addr8Ipv6Addr11parse_ascii, symObjAddr: 0x5F08, symBinAddr: 0x1002751E4, symSize: 0x70 }
  - { offset: 0x1A6358, size: 0x8, addend: 0x0, symName: __RNvMs1_NtNtCs6sq8b9ugfBC_4core3net6parserNtNtB7_7ip_addr8Ipv4Addr11parse_ascii, symObjAddr: 0x4DFC, symBinAddr: 0x1002740D8, symSize: 0x74 }
  - { offset: 0x1A63D2, size: 0x8, addend: 0x0, symName: __RNvMs_NtNtCs6sq8b9ugfBC_4core3net6parserNtNtB6_7ip_addr6IpAddr11parse_ascii, symObjAddr: 0x6E9C, symBinAddr: 0x100276178, symSize: 0xB8 }
  - { offset: 0x1A64BF, size: 0x8, addend: 0x0, symName: __RNvXs17_NtNtCs6sq8b9ugfBC_4core3net7ip_addrNtB6_8Ipv4AddrINtNtNtBa_3ops3bit12BitAndAssignRBF_E13bitand_assign, symObjAddr: 0x13570, symBinAddr: 0x100281E94, symSize: 0x2C }
  - { offset: 0x1A6524, size: 0x8, addend: 0x0, symName: __RNvXs1d_NtNtCs6sq8b9ugfBC_4core3net7ip_addrNtB6_8Ipv4AddrINtNtNtBa_3ops3bit11BitOrAssignRBF_E12bitor_assign, symObjAddr: 0x14E7C, symBinAddr: 0x1002837A0, symSize: 0x2C }
  - { offset: 0x1A6589, size: 0x8, addend: 0x0, symName: __RNvXs1j_NtNtCs6sq8b9ugfBC_4core3net7ip_addrNtB6_8Ipv6AddrINtNtNtBa_3ops3bit12BitAndAssignRBF_E13bitand_assign, symObjAddr: 0x15474, symBinAddr: 0x100283D98, symSize: 0x14 }
  - { offset: 0x1A65A8, size: 0x8, addend: 0x0, symName: __RNvXs1j_NtNtCs6sq8b9ugfBC_4core3net7ip_addrNtB6_8Ipv6AddrINtNtNtBa_3ops3bit12BitAndAssignRBF_E13bitand_assign, symObjAddr: 0x15474, symBinAddr: 0x100283D98, symSize: 0x14 }
  - { offset: 0x1A65EE, size: 0x8, addend: 0x0, symName: __RNvXs1p_NtNtCs6sq8b9ugfBC_4core3net7ip_addrNtB6_8Ipv6AddrINtNtNtBa_3ops3bit11BitOrAssignRBF_E12bitor_assign, symObjAddr: 0x156A0, symBinAddr: 0x100283FC4, symSize: 0x14 }
  - { offset: 0x1A660D, size: 0x8, addend: 0x0, symName: __RNvXs1p_NtNtCs6sq8b9ugfBC_4core3net7ip_addrNtB6_8Ipv6AddrINtNtNtBa_3ops3bit11BitOrAssignRBF_E12bitor_assign, symObjAddr: 0x156A0, symBinAddr: 0x100283FC4, symSize: 0x14 }
  - { offset: 0x1A663E, size: 0x8, addend: 0x0, symName: __RNvXs2_NtNtCs6sq8b9ugfBC_4core3net7ip_addrNtB5_6IpAddrNtNtB9_3fmt7Display3fmt, symObjAddr: 0x16F20, symBinAddr: 0x100285844, symSize: 0x14 }
  - { offset: 0x1A6667, size: 0x8, addend: 0x0, symName: __RNvXs3_NtNtCs6sq8b9ugfBC_4core3net7ip_addrNtB5_6IpAddrNtNtB9_3fmt5Debug3fmt, symObjAddr: 0x1813C, symBinAddr: 0x100286A60, symSize: 0x14 }
  - { offset: 0x1A6686, size: 0x8, addend: 0x0, symName: __RNvXs3_NtNtCs6sq8b9ugfBC_4core3net7ip_addrNtB5_6IpAddrNtNtB9_3fmt5Debug3fmt, symObjAddr: 0x1813C, symBinAddr: 0x100286A60, symSize: 0x14 }
  - { offset: 0x1A66A0, size: 0x8, addend: 0x0, symName: __RNvXs6_NtNtCs6sq8b9ugfBC_4core3net7ip_addrNtB5_8Ipv4AddrNtNtB9_3fmt7Display3fmt, symObjAddr: 0x18DD0, symBinAddr: 0x1002876F4, symSize: 0x11C }
  - { offset: 0x1A67AD, size: 0x8, addend: 0x0, symName: __RNvXs7_NtNtCs6sq8b9ugfBC_4core3net7ip_addrNtB5_8Ipv4AddrNtNtB9_3fmt5Debug3fmt, symObjAddr: 0x190A4, symBinAddr: 0x1002879C8, symSize: 0x4 }
  - { offset: 0x1A67E4, size: 0x8, addend: 0x0, symName: __RNvXsj_NtNtCs6sq8b9ugfBC_4core3net7ip_addrNtB5_8Ipv6AddrNtNtB9_3fmt7Display3fmt, symObjAddr: 0x1D42C, symBinAddr: 0x10028BD50, symSize: 0x6B0 }
  - { offset: 0x1A6BC3, size: 0x8, addend: 0x0, symName: __RNvXsk_NtNtCs6sq8b9ugfBC_4core3net7ip_addrNtB5_8Ipv6AddrNtNtB9_3fmt5Debug3fmt, symObjAddr: 0x1DC24, symBinAddr: 0x10028C548, symSize: 0x4 }
  - { offset: 0x1A6BFA, size: 0x8, addend: 0x0, symName: __RNvMs7_NtNtCs6sq8b9ugfBC_4core3net6parserNtNtB7_11socket_addr12SocketAddrV611parse_ascii, symObjAddr: 0x6BAC, symBinAddr: 0x100275E88, symSize: 0x6C }
  - { offset: 0x1A6C8F, size: 0x8, addend: 0x0, symName: __RNvMs5_NtNtCs6sq8b9ugfBC_4core3net6parserNtNtB7_11socket_addr12SocketAddrV411parse_ascii, symObjAddr: 0x62E4, symBinAddr: 0x1002755C0, symSize: 0xE4 }
  - { offset: 0x1A6E60, size: 0x8, addend: 0x0, symName: __RNvMs9_NtNtCs6sq8b9ugfBC_4core3net6parserNtNtB7_11socket_addr10SocketAddr11parse_ascii, symObjAddr: 0x6D10, symBinAddr: 0x100275FEC, symSize: 0x15C }
  - { offset: 0x1A7049, size: 0x8, addend: 0x0, symName: __RNvXs4_NtNtCs6sq8b9ugfBC_4core3net11socket_addrNtB5_10SocketAddrNtNtB9_3fmt7Display3fmt, symObjAddr: 0x1859C, symBinAddr: 0x100286EC0, symSize: 0x1C }
  - { offset: 0x1A7072, size: 0x8, addend: 0x0, symName: __RNvXs5_NtNtCs6sq8b9ugfBC_4core3net11socket_addrNtB5_10SocketAddrNtNtB9_3fmt5Debug3fmt, symObjAddr: 0x188E4, symBinAddr: 0x100287208, symSize: 0x1C }
  - { offset: 0x1A7091, size: 0x8, addend: 0x0, symName: __RNvXs5_NtNtCs6sq8b9ugfBC_4core3net11socket_addrNtB5_10SocketAddrNtNtB9_3fmt5Debug3fmt, symObjAddr: 0x188E4, symBinAddr: 0x100287208, symSize: 0x1C }
  - { offset: 0x1A70AB, size: 0x8, addend: 0x0, symName: __RNvXs6_NtNtCs6sq8b9ugfBC_4core3net11socket_addrNtB5_12SocketAddrV4NtNtB9_3fmt7Display3fmt, symObjAddr: 0x18BD0, symBinAddr: 0x1002874F4, symSize: 0x11C }
  - { offset: 0x1A71FA, size: 0x8, addend: 0x0, symName: __RNvXs7_NtNtCs6sq8b9ugfBC_4core3net11socket_addrNtB5_12SocketAddrV4NtNtB9_3fmt5Debug3fmt, symObjAddr: 0x190A0, symBinAddr: 0x1002879C4, symSize: 0x4 }
  - { offset: 0x1A721C, size: 0x8, addend: 0x0, symName: __RNvXs8_NtNtCs6sq8b9ugfBC_4core3net11socket_addrNtB5_12SocketAddrV6NtNtB9_3fmt7Display3fmt, symObjAddr: 0x191D8, symBinAddr: 0x100287AFC, symSize: 0x1DC }
  - { offset: 0x1A744B, size: 0x8, addend: 0x0, symName: __RNvXs9_NtNtCs6sq8b9ugfBC_4core3net11socket_addrNtB5_12SocketAddrV6NtNtB9_3fmt5Debug3fmt, symObjAddr: 0x1962C, symBinAddr: 0x100287F50, symSize: 0x4 }
  - { offset: 0x1A74E3, size: 0x8, addend: 0x0, symName: __RNvXs_NtNtCs6sq8b9ugfBC_4core3net14display_bufferINtB4_13DisplayBufferKj15_ENtNtB8_3fmt5Write9write_strB8_, symObjAddr: 0x1AFE4, symBinAddr: 0x100289908, symSize: 0x50 }
  - { offset: 0x1A759B, size: 0x8, addend: 0x0, symName: __RNvXs_NtNtCs6sq8b9ugfBC_4core3net14display_bufferINtB4_13DisplayBufferKj27_ENtNtB8_3fmt5Write9write_strB8_, symObjAddr: 0x1B034, symBinAddr: 0x100289958, symSize: 0x50 }
  - { offset: 0x1A7653, size: 0x8, addend: 0x0, symName: __RNvXs_NtNtCs6sq8b9ugfBC_4core3net14display_bufferINtB4_13DisplayBufferKj3a_ENtNtB8_3fmt5Write9write_strB8_, symObjAddr: 0x1B084, symBinAddr: 0x1002899A8, symSize: 0x50 }
  - { offset: 0x1A770B, size: 0x8, addend: 0x0, symName: __RNvXs_NtNtCs6sq8b9ugfBC_4core3net14display_bufferINtB4_13DisplayBufferKjf_ENtNtB8_3fmt5Write9write_strB8_, symObjAddr: 0x1B0D4, symBinAddr: 0x1002899F8, symSize: 0x50 }
  - { offset: 0x1A7B48, size: 0x8, addend: 0x0, symName: __RNvNtCs6sq8b9ugfBC_4core6option13expect_failed, symObjAddr: 0xB0F8, symBinAddr: 0x1003107E8, symSize: 0x30 }
  - { offset: 0x1A7B7A, size: 0x8, addend: 0x0, symName: __RNvNtCs6sq8b9ugfBC_4core6option13unwrap_failed, symObjAddr: 0xB128, symBinAddr: 0x100310818, symSize: 0x1C }
  - { offset: 0x1A7EBF, size: 0x8, addend: 0x0, symName: __RNvMNtNtCs6sq8b9ugfBC_4core4char7methodsc16escape_debug_ext, symObjAddr: 0x3468, symBinAddr: 0x100272744, symSize: 0x28C }
  - { offset: 0x1A824E, size: 0x8, addend: 0x0, symName: __RNvXs6_NtNtCs6sq8b9ugfBC_4core4char7convertNtB5_14ParseCharErrorNtNtB9_3fmt7Display3fmt, symObjAddr: 0x18EEC, symBinAddr: 0x100287810, symSize: 0x38 }
  - { offset: 0x1A829C, size: 0x8, addend: 0x0, symName: __RNvXs9_NtNtCs6sq8b9ugfBC_4core4char7convertNtB5_16CharTryFromErrorNtNtB9_3fmt7Display3fmt, symObjAddr: 0x19630, symBinAddr: 0x100287F54, symSize: 0x14 }
  - { offset: 0x1A82FF, size: 0x8, addend: 0x0, symName: __RNvXs1_NtNtCs6sq8b9ugfBC_4core4char6decodeNtB5_16DecodeUtf16ErrorNtNtB9_3fmt7Display3fmt, symObjAddr: 0x14AB0, symBinAddr: 0x1002833D4, symSize: 0x38 }
  - { offset: 0x1A83E0, size: 0x8, addend: 0x0, symName: __RNvXsc_NtCs6sq8b9ugfBC_4core4charNtB5_11EscapeDebugNtNtB7_3fmt7Display3fmt, symObjAddr: 0x1BECC, symBinAddr: 0x10028A7F0, symSize: 0x34 }
  - { offset: 0x1A84A5, size: 0x8, addend: 0x0, symName: __RNvXs2_NtCs6sq8b9ugfBC_4core4charNtB5_13EscapeUnicodeNtNtB7_3fmt7Display3fmt, symObjAddr: 0x16BB0, symBinAddr: 0x1002854D4, symSize: 0x20 }
  - { offset: 0x1A8574, size: 0x8, addend: 0x0, symName: __RNvXse_NtCs6sq8b9ugfBC_4core4charNtB5_15CaseMappingIterNtNtNtNtB7_4iter6traits8iterator8Iterator10advance_by, symObjAddr: 0x1C9AC, symBinAddr: 0x10028B2D0, symSize: 0x20 }
  - { offset: 0x1A858C, size: 0x8, addend: 0x0, symName: __RNvXse_NtCs6sq8b9ugfBC_4core4charNtB5_15CaseMappingIterNtNtNtNtB7_4iter6traits8iterator8Iterator10advance_by, symObjAddr: 0x1C9AC, symBinAddr: 0x10028B2D0, symSize: 0x20 }
  - { offset: 0x1A85A2, size: 0x8, addend: 0x0, symName: __RNvXse_NtCs6sq8b9ugfBC_4core4charNtB5_15CaseMappingIterNtNtNtNtB7_4iter6traits8iterator8Iterator10advance_by, symObjAddr: 0x1C9AC, symBinAddr: 0x10028B2D0, symSize: 0x20 }
  - { offset: 0x1A85B8, size: 0x8, addend: 0x0, symName: __RNvXse_NtCs6sq8b9ugfBC_4core4charNtB5_15CaseMappingIterNtNtNtNtB7_4iter6traits8iterator8Iterator10advance_by, symObjAddr: 0x1C9AC, symBinAddr: 0x10028B2D0, symSize: 0x20 }
  - { offset: 0x1A85F6, size: 0x8, addend: 0x0, symName: __RNvXse_NtCs6sq8b9ugfBC_4core4charNtB5_15CaseMappingIterNtNtNtNtB7_4iter6traits8iterator8Iterator24___iterator_get_unchecked, symObjAddr: 0x1C9CC, symBinAddr: 0x10028B2F0, symSize: 0x14 }
  - { offset: 0x1A860E, size: 0x8, addend: 0x0, symName: __RNvXse_NtCs6sq8b9ugfBC_4core4charNtB5_15CaseMappingIterNtNtNtNtB7_4iter6traits8iterator8Iterator24___iterator_get_unchecked, symObjAddr: 0x1C9CC, symBinAddr: 0x10028B2F0, symSize: 0x14 }
  - { offset: 0x1A8624, size: 0x8, addend: 0x0, symName: __RNvXse_NtCs6sq8b9ugfBC_4core4charNtB5_15CaseMappingIterNtNtNtNtB7_4iter6traits8iterator8Iterator24___iterator_get_unchecked, symObjAddr: 0x1C9CC, symBinAddr: 0x10028B2F0, symSize: 0x14 }
  - { offset: 0x1A863A, size: 0x8, addend: 0x0, symName: __RNvXse_NtCs6sq8b9ugfBC_4core4charNtB5_15CaseMappingIterNtNtNtNtB7_4iter6traits8iterator8Iterator24___iterator_get_unchecked, symObjAddr: 0x1C9CC, symBinAddr: 0x10028B2F0, symSize: 0x14 }
  - { offset: 0x1A864F, size: 0x8, addend: 0x0, symName: __RNvXse_NtCs6sq8b9ugfBC_4core4charNtB5_15CaseMappingIterNtNtNtNtB7_4iter6traits8iterator8Iterator24___iterator_get_unchecked, symObjAddr: 0x1C9CC, symBinAddr: 0x10028B2F0, symSize: 0x14 }
  - { offset: 0x1A86BD, size: 0x8, addend: 0x0, symName: __RNvXse_NtCs6sq8b9ugfBC_4core4charNtB5_15CaseMappingIterNtNtNtNtB7_4iter6traits8iterator8Iterator4last, symObjAddr: 0x1C9E0, symBinAddr: 0x10028B304, symSize: 0x38 }
  - { offset: 0x1A8809, size: 0x8, addend: 0x0, symName: __RNvXse_NtCs6sq8b9ugfBC_4core4charNtB5_15CaseMappingIterNtNtNtNtB7_4iter6traits8iterator8Iterator4next, symObjAddr: 0x1CA18, symBinAddr: 0x10028B33C, symSize: 0x28 }
  - { offset: 0x1A8849, size: 0x8, addend: 0x0, symName: __RNvXse_NtCs6sq8b9ugfBC_4core4charNtB5_15CaseMappingIterNtNtNtNtB7_4iter6traits8iterator8Iterator4next, symObjAddr: 0x1CA18, symBinAddr: 0x10028B33C, symSize: 0x28 }
  - { offset: 0x1A885E, size: 0x8, addend: 0x0, symName: __RNvXse_NtCs6sq8b9ugfBC_4core4charNtB5_15CaseMappingIterNtNtNtNtB7_4iter6traits8iterator8Iterator4next, symObjAddr: 0x1CA18, symBinAddr: 0x10028B33C, symSize: 0x28 }
  - { offset: 0x1A8873, size: 0x8, addend: 0x0, symName: __RNvXse_NtCs6sq8b9ugfBC_4core4charNtB5_15CaseMappingIterNtNtNtNtB7_4iter6traits8iterator8Iterator4next, symObjAddr: 0x1CA18, symBinAddr: 0x10028B33C, symSize: 0x28 }
  - { offset: 0x1A8925, size: 0x8, addend: 0x0, symName: __RNvXse_NtCs6sq8b9ugfBC_4core4charNtB5_15CaseMappingIterNtNtNtNtB7_4iter6traits8iterator8Iterator5count, symObjAddr: 0x1CA40, symBinAddr: 0x10028B364, symSize: 0xC }
  - { offset: 0x1A899B, size: 0x8, addend: 0x0, symName: __RNvXsE_NtCs6sq8b9ugfBC_4core4charNtB5_11ToTitlecaseNtNtNtNtB7_4iter6traits8iterator8Iterator10advance_by, symObjAddr: 0x19A00, symBinAddr: 0x100288324, symSize: 0x20 }
  - { offset: 0x1A89BA, size: 0x8, addend: 0x0, symName: __RNvXsE_NtCs6sq8b9ugfBC_4core4charNtB5_11ToTitlecaseNtNtNtNtB7_4iter6traits8iterator8Iterator10advance_by, symObjAddr: 0x19A00, symBinAddr: 0x100288324, symSize: 0x20 }
  - { offset: 0x1A89D0, size: 0x8, addend: 0x0, symName: __RNvXsE_NtCs6sq8b9ugfBC_4core4charNtB5_11ToTitlecaseNtNtNtNtB7_4iter6traits8iterator8Iterator10advance_by, symObjAddr: 0x19A00, symBinAddr: 0x100288324, symSize: 0x20 }
  - { offset: 0x1A89E6, size: 0x8, addend: 0x0, symName: __RNvXsE_NtCs6sq8b9ugfBC_4core4charNtB5_11ToTitlecaseNtNtNtNtB7_4iter6traits8iterator8Iterator10advance_by, symObjAddr: 0x19A00, symBinAddr: 0x100288324, symSize: 0x20 }
  - { offset: 0x1A89FC, size: 0x8, addend: 0x0, symName: __RNvXsE_NtCs6sq8b9ugfBC_4core4charNtB5_11ToTitlecaseNtNtNtNtB7_4iter6traits8iterator8Iterator10advance_by, symObjAddr: 0x19A00, symBinAddr: 0x100288324, symSize: 0x20 }
  - { offset: 0x1A8A3B, size: 0x8, addend: 0x0, symName: __RNvXsE_NtCs6sq8b9ugfBC_4core4charNtB5_11ToTitlecaseNtNtNtNtB7_4iter6traits8iterator8Iterator24___iterator_get_unchecked, symObjAddr: 0x19A20, symBinAddr: 0x100288344, symSize: 0x14 }
  - { offset: 0x1A8A5A, size: 0x8, addend: 0x0, symName: __RNvXsE_NtCs6sq8b9ugfBC_4core4charNtB5_11ToTitlecaseNtNtNtNtB7_4iter6traits8iterator8Iterator24___iterator_get_unchecked, symObjAddr: 0x19A20, symBinAddr: 0x100288344, symSize: 0x14 }
  - { offset: 0x1A8A70, size: 0x8, addend: 0x0, symName: __RNvXsE_NtCs6sq8b9ugfBC_4core4charNtB5_11ToTitlecaseNtNtNtNtB7_4iter6traits8iterator8Iterator24___iterator_get_unchecked, symObjAddr: 0x19A20, symBinAddr: 0x100288344, symSize: 0x14 }
  - { offset: 0x1A8A86, size: 0x8, addend: 0x0, symName: __RNvXsE_NtCs6sq8b9ugfBC_4core4charNtB5_11ToTitlecaseNtNtNtNtB7_4iter6traits8iterator8Iterator24___iterator_get_unchecked, symObjAddr: 0x19A20, symBinAddr: 0x100288344, symSize: 0x14 }
  - { offset: 0x1A8A9C, size: 0x8, addend: 0x0, symName: __RNvXsE_NtCs6sq8b9ugfBC_4core4charNtB5_11ToTitlecaseNtNtNtNtB7_4iter6traits8iterator8Iterator24___iterator_get_unchecked, symObjAddr: 0x19A20, symBinAddr: 0x100288344, symSize: 0x14 }
  - { offset: 0x1A8AB1, size: 0x8, addend: 0x0, symName: __RNvXsE_NtCs6sq8b9ugfBC_4core4charNtB5_11ToTitlecaseNtNtNtNtB7_4iter6traits8iterator8Iterator24___iterator_get_unchecked, symObjAddr: 0x19A20, symBinAddr: 0x100288344, symSize: 0x14 }
  - { offset: 0x1A8B20, size: 0x8, addend: 0x0, symName: __RNvXsE_NtCs6sq8b9ugfBC_4core4charNtB5_11ToTitlecaseNtNtNtNtB7_4iter6traits8iterator8Iterator4last, symObjAddr: 0x19A34, symBinAddr: 0x100288358, symSize: 0x38 }
  - { offset: 0x1A8B3F, size: 0x8, addend: 0x0, symName: __RNvXsE_NtCs6sq8b9ugfBC_4core4charNtB5_11ToTitlecaseNtNtNtNtB7_4iter6traits8iterator8Iterator4last, symObjAddr: 0x19A34, symBinAddr: 0x100288358, symSize: 0x38 }
  - { offset: 0x1A8C8A, size: 0x8, addend: 0x0, symName: __RNvXsE_NtCs6sq8b9ugfBC_4core4charNtB5_11ToTitlecaseNtNtNtNtB7_4iter6traits8iterator8Iterator4next, symObjAddr: 0x19A6C, symBinAddr: 0x100288390, symSize: 0x28 }
  - { offset: 0x1A8CDF, size: 0x8, addend: 0x0, symName: __RNvXsE_NtCs6sq8b9ugfBC_4core4charNtB5_11ToTitlecaseNtNtNtNtB7_4iter6traits8iterator8Iterator4next, symObjAddr: 0x19A6C, symBinAddr: 0x100288390, symSize: 0x28 }
  - { offset: 0x1A8CF4, size: 0x8, addend: 0x0, symName: __RNvXsE_NtCs6sq8b9ugfBC_4core4charNtB5_11ToTitlecaseNtNtNtNtB7_4iter6traits8iterator8Iterator4next, symObjAddr: 0x19A6C, symBinAddr: 0x100288390, symSize: 0x28 }
  - { offset: 0x1A8D09, size: 0x8, addend: 0x0, symName: __RNvXsE_NtCs6sq8b9ugfBC_4core4charNtB5_11ToTitlecaseNtNtNtNtB7_4iter6traits8iterator8Iterator4next, symObjAddr: 0x19A6C, symBinAddr: 0x100288390, symSize: 0x28 }
  - { offset: 0x1A8DBC, size: 0x8, addend: 0x0, symName: __RNvXsE_NtCs6sq8b9ugfBC_4core4charNtB5_11ToTitlecaseNtNtNtNtB7_4iter6traits8iterator8Iterator5count, symObjAddr: 0x19A94, symBinAddr: 0x1002883B8, symSize: 0xC }
  - { offset: 0x1A8DDB, size: 0x8, addend: 0x0, symName: __RNvXsE_NtCs6sq8b9ugfBC_4core4charNtB5_11ToTitlecaseNtNtNtNtB7_4iter6traits8iterator8Iterator5count, symObjAddr: 0x19A94, symBinAddr: 0x1002883B8, symSize: 0xC }
  - { offset: 0x1A8E6C, size: 0x8, addend: 0x0, symName: __RNvXsf_NtCs6sq8b9ugfBC_4core4charNtB5_15CaseMappingIterNtNtNtNtB7_4iter6traits12double_ended19DoubleEndedIterator15advance_back_by, symObjAddr: 0x1CC38, symBinAddr: 0x10028B55C, symSize: 0x24 }
  - { offset: 0x1A8E84, size: 0x8, addend: 0x0, symName: __RNvXsf_NtCs6sq8b9ugfBC_4core4charNtB5_15CaseMappingIterNtNtNtNtB7_4iter6traits12double_ended19DoubleEndedIterator15advance_back_by, symObjAddr: 0x1CC38, symBinAddr: 0x10028B55C, symSize: 0x24 }
  - { offset: 0x1A8E9A, size: 0x8, addend: 0x0, symName: __RNvXsf_NtCs6sq8b9ugfBC_4core4charNtB5_15CaseMappingIterNtNtNtNtB7_4iter6traits12double_ended19DoubleEndedIterator15advance_back_by, symObjAddr: 0x1CC38, symBinAddr: 0x10028B55C, symSize: 0x24 }
  - { offset: 0x1A8EB0, size: 0x8, addend: 0x0, symName: __RNvXsf_NtCs6sq8b9ugfBC_4core4charNtB5_15CaseMappingIterNtNtNtNtB7_4iter6traits12double_ended19DoubleEndedIterator15advance_back_by, symObjAddr: 0x1CC38, symBinAddr: 0x10028B55C, symSize: 0x24 }
  - { offset: 0x1A8F03, size: 0x8, addend: 0x0, symName: __RNvXsf_NtCs6sq8b9ugfBC_4core4charNtB5_15CaseMappingIterNtNtNtNtB7_4iter6traits12double_ended19DoubleEndedIterator9next_back, symObjAddr: 0x1CC5C, symBinAddr: 0x10028B580, symSize: 0x28 }
  - { offset: 0x1A8F44, size: 0x8, addend: 0x0, symName: __RNvXsf_NtCs6sq8b9ugfBC_4core4charNtB5_15CaseMappingIterNtNtNtNtB7_4iter6traits12double_ended19DoubleEndedIterator9next_back, symObjAddr: 0x1CC5C, symBinAddr: 0x10028B580, symSize: 0x28 }
  - { offset: 0x1A8F59, size: 0x8, addend: 0x0, symName: __RNvXsf_NtCs6sq8b9ugfBC_4core4charNtB5_15CaseMappingIterNtNtNtNtB7_4iter6traits12double_ended19DoubleEndedIterator9next_back, symObjAddr: 0x1CC5C, symBinAddr: 0x10028B580, symSize: 0x28 }
  - { offset: 0x1A8F6E, size: 0x8, addend: 0x0, symName: __RNvXsf_NtCs6sq8b9ugfBC_4core4charNtB5_15CaseMappingIterNtNtNtNtB7_4iter6traits12double_ended19DoubleEndedIterator9next_back, symObjAddr: 0x1CC5C, symBinAddr: 0x10028B580, symSize: 0x28 }
  - { offset: 0x1A9027, size: 0x8, addend: 0x0, symName: __RNvXsF_NtCs6sq8b9ugfBC_4core4charNtB5_11ToTitlecaseNtNtNtNtB7_4iter6traits12double_ended19DoubleEndedIterator15advance_back_by, symObjAddr: 0x19C5C, symBinAddr: 0x100288580, symSize: 0x24 }
  - { offset: 0x1A9046, size: 0x8, addend: 0x0, symName: __RNvXsF_NtCs6sq8b9ugfBC_4core4charNtB5_11ToTitlecaseNtNtNtNtB7_4iter6traits12double_ended19DoubleEndedIterator15advance_back_by, symObjAddr: 0x19C5C, symBinAddr: 0x100288580, symSize: 0x24 }
  - { offset: 0x1A905C, size: 0x8, addend: 0x0, symName: __RNvXsF_NtCs6sq8b9ugfBC_4core4charNtB5_11ToTitlecaseNtNtNtNtB7_4iter6traits12double_ended19DoubleEndedIterator15advance_back_by, symObjAddr: 0x19C5C, symBinAddr: 0x100288580, symSize: 0x24 }
  - { offset: 0x1A9072, size: 0x8, addend: 0x0, symName: __RNvXsF_NtCs6sq8b9ugfBC_4core4charNtB5_11ToTitlecaseNtNtNtNtB7_4iter6traits12double_ended19DoubleEndedIterator15advance_back_by, symObjAddr: 0x19C5C, symBinAddr: 0x100288580, symSize: 0x24 }
  - { offset: 0x1A9088, size: 0x8, addend: 0x0, symName: __RNvXsF_NtCs6sq8b9ugfBC_4core4charNtB5_11ToTitlecaseNtNtNtNtB7_4iter6traits12double_ended19DoubleEndedIterator15advance_back_by, symObjAddr: 0x19C5C, symBinAddr: 0x100288580, symSize: 0x24 }
  - { offset: 0x1A90DC, size: 0x8, addend: 0x0, symName: __RNvXsF_NtCs6sq8b9ugfBC_4core4charNtB5_11ToTitlecaseNtNtNtNtB7_4iter6traits12double_ended19DoubleEndedIterator9next_back, symObjAddr: 0x19C80, symBinAddr: 0x1002885A4, symSize: 0x28 }
  - { offset: 0x1A9132, size: 0x8, addend: 0x0, symName: __RNvXsF_NtCs6sq8b9ugfBC_4core4charNtB5_11ToTitlecaseNtNtNtNtB7_4iter6traits12double_ended19DoubleEndedIterator9next_back, symObjAddr: 0x19C80, symBinAddr: 0x1002885A4, symSize: 0x28 }
  - { offset: 0x1A9147, size: 0x8, addend: 0x0, symName: __RNvXsF_NtCs6sq8b9ugfBC_4core4charNtB5_11ToTitlecaseNtNtNtNtB7_4iter6traits12double_ended19DoubleEndedIterator9next_back, symObjAddr: 0x19C80, symBinAddr: 0x1002885A4, symSize: 0x28 }
  - { offset: 0x1A915C, size: 0x8, addend: 0x0, symName: __RNvXsF_NtCs6sq8b9ugfBC_4core4charNtB5_11ToTitlecaseNtNtNtNtB7_4iter6traits12double_ended19DoubleEndedIterator9next_back, symObjAddr: 0x19C80, symBinAddr: 0x1002885A4, symSize: 0x28 }
  - { offset: 0x1A9216, size: 0x8, addend: 0x0, symName: __RNvXsm_NtCs6sq8b9ugfBC_4core4charNtB5_16TryFromCharErrorNtNtB7_3fmt7Display3fmt, symObjAddr: 0x1DC9C, symBinAddr: 0x10028C5C0, symSize: 0x14 }
  - { offset: 0x1A96E1, size: 0x8, addend: 0x0, symName: __RNvNtCs6sq8b9ugfBC_4core6result13unwrap_failed, symObjAddr: 0xB144, symBinAddr: 0x100310834, symSize: 0x48 }
  - { offset: 0x1A99FE, size: 0x8, addend: 0x0, symName: __RNvNtNtCs6sq8b9ugfBC_4core3str8converts13from_utf8_mut, symObjAddr: 0xC668, symBinAddr: 0x10027B438, symSize: 0x274 }
  - { offset: 0x1A9A1C, size: 0x8, addend: 0x0, symName: __RNvNtNtCs6sq8b9ugfBC_4core3str8converts13from_utf8_mut, symObjAddr: 0xC668, symBinAddr: 0x10027B438, symSize: 0x274 }
  - { offset: 0x1A9A83, size: 0x8, addend: 0x0, symName: __RNvNtNtCs6sq8b9ugfBC_4core3str8converts9from_utf8, symObjAddr: 0xC8DC, symBinAddr: 0x10027B6AC, symSize: 0x274 }
  - { offset: 0x1A9AA1, size: 0x8, addend: 0x0, symName: __RNvNtNtCs6sq8b9ugfBC_4core3str8converts9from_utf8, symObjAddr: 0xC8DC, symBinAddr: 0x10027B6AC, symSize: 0x274 }
  - { offset: 0x1A9C4B, size: 0x8, addend: 0x0, symName: __RNvXs20_NtNtCs6sq8b9ugfBC_4core3str4iterNtB6_11EscapeDebugNtNtBa_3fmt7Display3fmt, symObjAddr: 0x156E8, symBinAddr: 0x10028400C, symSize: 0x7D4 }
  - { offset: 0x1AA746, size: 0x8, addend: 0x0, symName: __RNvXs23_NtNtCs6sq8b9ugfBC_4core3str4iterNtB6_13EscapeDefaultNtNtBa_3fmt7Display3fmt, symObjAddr: 0x15EBC, symBinAddr: 0x1002847E0, symSize: 0x4A8 }
  - { offset: 0x1AAD26, size: 0x8, addend: 0x0, symName: __RNvXs26_NtNtCs6sq8b9ugfBC_4core3str4iterNtB6_13EscapeUnicodeNtNtBa_3fmt7Display3fmt, symObjAddr: 0x1652C, symBinAddr: 0x100284E50, symSize: 0x35C }
  - { offset: 0x1AB2B2, size: 0x8, addend: 0x0, symName: __RNvXsN_NtNtCs6sq8b9ugfBC_4core3str4iterNtB5_11EncodeUtf16NtNtB9_3fmt5Debug3fmt, symObjAddr: 0x1A0B8, symBinAddr: 0x1002889DC, symSize: 0x6C }
  - { offset: 0x1AB375, size: 0x8, addend: 0x0, symName: __RNvXs_NtNtCs6sq8b9ugfBC_4core3str4iterNtB4_5CharsNtNtB8_3fmt5Debug3fmt, symObjAddr: 0x1B1B8, symBinAddr: 0x100289ADC, symSize: 0x5FC }
  - { offset: 0x1AB8F3, size: 0x8, addend: 0x0, symName: __RNvMNtCs6sq8b9ugfBC_4core3stre12escape_debug, symObjAddr: 0x2CAC, symBinAddr: 0x100271F88, symSize: 0xE4 }
  - { offset: 0x1ABA51, size: 0x8, addend: 0x0, symName: __RNvMNtCs6sq8b9ugfBC_4core3stre12substr_range, symObjAddr: 0x2D90, symBinAddr: 0x10027206C, symSize: 0x2C }
  - { offset: 0x1ABA7E, size: 0x8, addend: 0x0, symName: __RNvMNtCs6sq8b9ugfBC_4core3stre12substr_range, symObjAddr: 0x2D90, symBinAddr: 0x10027206C, symSize: 0x2C }
  - { offset: 0x1ABAA8, size: 0x8, addend: 0x0, symName: __RNvMNtCs6sq8b9ugfBC_4core3stre13from_utf8_mut, symObjAddr: 0x2DBC, symBinAddr: 0x100272098, symSize: 0x4 }
  - { offset: 0x1ABAC3, size: 0x8, addend: 0x0, symName: __RNvMNtCs6sq8b9ugfBC_4core3stre22split_at_mut_unchecked, symObjAddr: 0x2DC0, symBinAddr: 0x10027209C, symSize: 0x14 }
  - { offset: 0x1ABAE2, size: 0x8, addend: 0x0, symName: __RNvMNtCs6sq8b9ugfBC_4core3stre22split_at_mut_unchecked, symObjAddr: 0x2DC0, symBinAddr: 0x10027209C, symSize: 0x14 }
  - { offset: 0x1ABAF5, size: 0x8, addend: 0x0, symName: __RNvMNtCs6sq8b9ugfBC_4core3stre9from_utf8, symObjAddr: 0x2DD4, symBinAddr: 0x1002720B0, symSize: 0x4 }
  - { offset: 0x1ABC12, size: 0x8, addend: 0x0, symName: __RNvNtNtCs6sq8b9ugfBC_4core3str5count14do_count_chars, symObjAddr: 0xBCAC, symBinAddr: 0x10027AA7C, symSize: 0x714 }
  - { offset: 0x1AC050, size: 0x8, addend: 0x0, symName: __RNvNtNtCs6sq8b9ugfBC_4core3str5count23char_count_general_case, symObjAddr: 0xC3C0, symBinAddr: 0x10027B190, symSize: 0x2A8 }
  - { offset: 0x1AC169, size: 0x8, addend: 0x0, symName: __RNvMsu_NtNtCs6sq8b9ugfBC_4core3str7patternNtB5_11StrSearcher3new, symObjAddr: 0xA048, symBinAddr: 0x100279324, symSize: 0x888 }
  - { offset: 0x1AC447, size: 0x8, addend: 0x0, symName: __RNvNtCs6sq8b9ugfBC_4core3str16slice_error_fail, symObjAddr: 0xAB68, symBinAddr: 0x10031063C, symSize: 0xC }
  - { offset: 0x1AC461, size: 0x8, addend: 0x0, symName: __RNvNtCs6sq8b9ugfBC_4core3str19slice_error_fail_ct, symObjAddr: 0xAB74, symBinAddr: 0x100310648, symSize: 0x1C }
  - { offset: 0x1AC572, size: 0x8, addend: 0x0, symName: __RNvNtCs6sq8b9ugfBC_4core3str19slice_error_fail_rt, symObjAddr: 0xAB90, symBinAddr: 0x100279E10, symSize: 0x370 }
  - { offset: 0x1AC7E2, size: 0x8, addend: 0x0, symName: __RNvXs0_NtNtCs6sq8b9ugfBC_4core3str5lossyNtB5_5DebugNtNtB9_3fmt5Debug3fmt, symObjAddr: 0x12C64, symBinAddr: 0x100281588, symSize: 0x31C }
  - { offset: 0x1ACB41, size: 0x8, addend: 0x0, symName: __RNvXs2_NtNtCs6sq8b9ugfBC_4core3str5lossyNtB5_10Utf8ChunksNtNtNtNtB9_4iter6traits8iterator8Iterator4next, symObjAddr: 0x173B8, symBinAddr: 0x100285CDC, symSize: 0x1C0 }
  - { offset: 0x1ACD8A, size: 0x8, addend: 0x0, symName: __RNvXs4_NtNtCs6sq8b9ugfBC_4core3str5lossyNtB5_10Utf8ChunksNtNtB9_3fmt5Debug3fmt, symObjAddr: 0x18628, symBinAddr: 0x100286F4C, symSize: 0xCC }
  - { offset: 0x1ACEA4, size: 0x8, addend: 0x0, symName: __RNvXs1_NtNtCs6sq8b9ugfBC_4core3str5errorNtB5_14ParseBoolErrorNtNtB9_3fmt7Display3fmt, symObjAddr: 0x14A9C, symBinAddr: 0x1002833C0, symSize: 0x14 }
  - { offset: 0x1ACEDB, size: 0x8, addend: 0x0, symName: __RNvXs_NtNtCs6sq8b9ugfBC_4core3str5errorNtB4_9Utf8ErrorNtNtB8_3fmt7Display3fmt, symObjAddr: 0x1B7B4, symBinAddr: 0x10028A0D8, symSize: 0x78 }
  - { offset: 0x1ACFCD, size: 0x8, addend: 0x0, symName: __RNCNvNvXsa_NtCs6sq8b9ugfBC_4core4timeNtB9_8DurationNtNtBb_3fmt5Debug3fmt11fmt_decimals_0Bb_, symObjAddr: 0x2B28, symBinAddr: 0x100271E04, symSize: 0x184 }
  - { offset: 0x1AD0EA, size: 0x8, addend: 0x0, symName: __RNvNvXsa_NtCs6sq8b9ugfBC_4core4timeNtB7_8DurationNtNtB9_3fmt5Debug3fmt11fmt_decimal, symObjAddr: 0x11830, symBinAddr: 0x100280154, symSize: 0x59C }
  - { offset: 0x1AD423, size: 0x8, addend: 0x0, symName: __RNvXsa_NtCs6sq8b9ugfBC_4core4timeNtB5_8DurationNtNtB7_3fmt5Debug3fmt, symObjAddr: 0x1BA54, symBinAddr: 0x10028A378, symSize: 0xE4 }
  - { offset: 0x1AD45C, size: 0x8, addend: 0x0, symName: __RNvXsb_NtCs6sq8b9ugfBC_4core4timeNtB5_21TryFromFloatSecsErrorNtNtB7_3fmt7Display3fmt, symObjAddr: 0x1BD8C, symBinAddr: 0x10028A6B0, symSize: 0x38 }
  - { offset: 0x1ADA13, size: 0x8, addend: 0x0, symName: __RNvNtNtNtCs6sq8b9ugfBC_4core7unicode12unicode_data15grapheme_extend11lookup_slow, symObjAddr: 0xE274, symBinAddr: 0x10027CBF0, symSize: 0x108 }
  - { offset: 0x1ADCBB, size: 0x8, addend: 0x0, symName: __RNvNtNtNtCs6sq8b9ugfBC_4core7unicode12unicode_data10alphabetic11lookup_slow, symObjAddr: 0xDD54, symBinAddr: 0x10027C6D0, symSize: 0x108 }
  - { offset: 0x1ADE73, size: 0x8, addend: 0x0, symName: __RNvNtNtNtCs6sq8b9ugfBC_4core7unicode12unicode_data11conversions6lookup, symObjAddr: 0xDE5C, symBinAddr: 0x10027C7D8, symSize: 0x130 }
  - { offset: 0x1AE0E1, size: 0x8, addend: 0x0, symName: __RNvNtNtNtCs6sq8b9ugfBC_4core7unicode12unicode_data11conversions8to_lower, symObjAddr: 0xDF8C, symBinAddr: 0x10027C908, symSize: 0x84 }
  - { offset: 0x1AE145, size: 0x8, addend: 0x0, symName: __RNvNtNtNtCs6sq8b9ugfBC_4core7unicode12unicode_data11conversions8to_title, symObjAddr: 0xE010, symBinAddr: 0x10027C98C, symSize: 0xD0 }
  - { offset: 0x1AE1B1, size: 0x8, addend: 0x0, symName: __RNvNtNtNtCs6sq8b9ugfBC_4core7unicode12unicode_data11conversions8to_upper, symObjAddr: 0xE0E0, symBinAddr: 0x10027CA5C, symSize: 0x88 }
  - { offset: 0x1AE214, size: 0x8, addend: 0x0, symName: __RNvNtNtNtCs6sq8b9ugfBC_4core7unicode12unicode_data14case_ignorable11lookup_slow, symObjAddr: 0xE168, symBinAddr: 0x10027CAE4, symSize: 0x10C }
  - { offset: 0x1AE3B7, size: 0x8, addend: 0x0, symName: __RNvNtNtNtCs6sq8b9ugfBC_4core7unicode12unicode_data1n11lookup_slow, symObjAddr: 0xE37C, symBinAddr: 0x10027CCF8, symSize: 0x108 }
  - { offset: 0x1AE54D, size: 0x8, addend: 0x0, symName: __RNvNtNtNtCs6sq8b9ugfBC_4core7unicode12unicode_data5cased11lookup_slow, symObjAddr: 0xE484, symBinAddr: 0x10027CE00, symSize: 0xF4 }
  - { offset: 0x1AE56C, size: 0x8, addend: 0x0, symName: __RNvNtNtNtCs6sq8b9ugfBC_4core7unicode12unicode_data5cased11lookup_slow, symObjAddr: 0xE484, symBinAddr: 0x10027CE00, symSize: 0xF4 }
  - { offset: 0x1AE6E3, size: 0x8, addend: 0x0, symName: __RNvNtNtNtCs6sq8b9ugfBC_4core7unicode12unicode_data9lowercase6lookup, symObjAddr: 0xE578, symBinAddr: 0x10027CEF4, symSize: 0xF8 }
  - { offset: 0x1AE74E, size: 0x8, addend: 0x0, symName: __RNvNtNtNtCs6sq8b9ugfBC_4core7unicode12unicode_data9uppercase6lookup, symObjAddr: 0xE670, symBinAddr: 0x10027CFEC, symSize: 0xF8 }
  - { offset: 0x1AE7BA, size: 0x8, addend: 0x0, symName: __RNvNtNtCs6sq8b9ugfBC_4core7unicode9printable12is_printable, symObjAddr: 0xCE20, symBinAddr: 0x10027BB1C, symSize: 0x364 }
  - { offset: 0x1AFD1E, size: 0x8, addend: 0x0, symName: __RNvXs1_NtNtCs6sq8b9ugfBC_4core3mem15transmutabilityNtB5_6AssumeNtNtNtB9_3ops5arith3Sub3sub, symObjAddr: 0x145D8, symBinAddr: 0x100282EFC, symSize: 0x2C }
  - { offset: 0x1AFD3D, size: 0x8, addend: 0x0, symName: __RNvXs1_NtNtCs6sq8b9ugfBC_4core3mem15transmutabilityNtB5_6AssumeNtNtNtB9_3ops5arith3Sub3sub, symObjAddr: 0x145D8, symBinAddr: 0x100282EFC, symSize: 0x2C }
  - { offset: 0x1AFD7F, size: 0x8, addend: 0x0, symName: __RNvXs_NtNtCs6sq8b9ugfBC_4core3mem9alignmentNtB4_9AlignmentNtNtB8_3fmt5Debug3fmt, symObjAddr: 0x1AF84, symBinAddr: 0x1002898A8, symSize: 0x60 }
  - { offset: 0x1AFE08, size: 0x8, addend: 0x0, symName: __RNvMs3_NtNtCs6sq8b9ugfBC_4core3ffi5c_strNtB5_4CStr19from_bytes_with_nul, symObjAddr: 0x5D34, symBinAddr: 0x100275010, symSize: 0xF0 }
  - { offset: 0x1AFE27, size: 0x8, addend: 0x0, symName: __RNvMs3_NtNtCs6sq8b9ugfBC_4core3ffi5c_strNtB5_4CStr19from_bytes_with_nul, symObjAddr: 0x5D34, symBinAddr: 0x100275010, symSize: 0xF0 }
  - { offset: 0x1AFF12, size: 0x8, addend: 0x0, symName: __RNvMs3_NtNtCs6sq8b9ugfBC_4core3ffi5c_strNtB5_4CStr20from_bytes_until_nul, symObjAddr: 0x5E24, symBinAddr: 0x100275100, symSize: 0xDC }
  - { offset: 0x1B0022, size: 0x8, addend: 0x0, symName: __RNvMs3_NtNtCs6sq8b9ugfBC_4core3ffi5c_strNtB5_4CStr6to_str, symObjAddr: 0x5F00, symBinAddr: 0x1002751DC, symSize: 0x8 }
  - { offset: 0x1B0041, size: 0x8, addend: 0x0, symName: __RNvMs3_NtNtCs6sq8b9ugfBC_4core3ffi5c_strNtB5_4CStr6to_str, symObjAddr: 0x5F00, symBinAddr: 0x1002751DC, symSize: 0x8 }
  - { offset: 0x1B0069, size: 0x8, addend: 0x0, symName: __RNvXNtNtCs6sq8b9ugfBC_4core3ffi5c_strNtB2_21FromBytesWithNulErrorNtNtB6_3fmt7Display3fmt, symObjAddr: 0x11F30, symBinAddr: 0x100280854, symSize: 0x64 }
  - { offset: 0x1B00B8, size: 0x8, addend: 0x0, symName: __RNvXs0_NtNtCs6sq8b9ugfBC_4core3ffi5c_strNtB5_22FromBytesUntilNulErrorNtNtB9_3fmt7Display3fmt, symObjAddr: 0x12458, symBinAddr: 0x100280D7C, symSize: 0x18 }
  - { offset: 0x1B00D6, size: 0x8, addend: 0x0, symName: __RNvXs0_NtNtCs6sq8b9ugfBC_4core3ffi5c_strNtB5_22FromBytesUntilNulErrorNtNtB9_3fmt7Display3fmt, symObjAddr: 0x12458, symBinAddr: 0x100280D7C, symSize: 0x18 }
  - { offset: 0x1B00F0, size: 0x8, addend: 0x0, symName: __RNvXs1_NtNtCs6sq8b9ugfBC_4core3ffi5c_strNtB5_4CStrNtNtB9_3fmt5Debug3fmt, symObjAddr: 0x145D0, symBinAddr: 0x100282EF4, symSize: 0x8 }
  - { offset: 0x1B010E, size: 0x8, addend: 0x0, symName: __RNvXs1_NtNtCs6sq8b9ugfBC_4core3ffi5c_strNtB5_4CStrNtNtB9_3fmt5Debug3fmt, symObjAddr: 0x145D0, symBinAddr: 0x100282EF4, symSize: 0x8 }
  - { offset: 0x1B0128, size: 0x8, addend: 0x0, symName: __RNvXNtCs6sq8b9ugfBC_4core3ffiNtB2_6c_voidNtNtB4_3fmt5Debug3fmt, symObjAddr: 0x11DCC, symBinAddr: 0x1002806F0, symSize: 0x18 }
  - { offset: 0x1B0146, size: 0x8, addend: 0x0, symName: __RNvXNtCs6sq8b9ugfBC_4core3ffiNtB2_6c_voidNtNtB4_3fmt5Debug3fmt, symObjAddr: 0x11DCC, symBinAddr: 0x1002806F0, symSize: 0x18 }
  - { offset: 0x1B015B, size: 0x8, addend: 0x0, symName: __RNvXNtCs6sq8b9ugfBC_4core3ffiNtB2_6c_voidNtNtB4_3fmt5Debug3fmt, symObjAddr: 0x11DCC, symBinAddr: 0x1002806F0, symSize: 0x18 }
  - { offset: 0x1B0171, size: 0x8, addend: 0x0, symName: __RNvXNtCs6sq8b9ugfBC_4core3ffiNtB2_6c_voidNtNtB4_3fmt5Debug3fmt, symObjAddr: 0x11DCC, symBinAddr: 0x1002806F0, symSize: 0x18 }
  - { offset: 0x1B01A6, size: 0x8, addend: 0x0, symName: __RNvXNtNtCs6sq8b9ugfBC_4core3ffi7va_listNtB2_6VaListNtNtB6_3fmt5Debug3fmt, symObjAddr: 0x11F94, symBinAddr: 0x1002808B8, symSize: 0x274 }
  - { offset: 0x1B0538, size: 0x8, addend: 0x0, symName: __RNvNtCs6sq8b9ugfBC_4core4cell22panic_already_borrowed, symObjAddr: 0xAF00, symBinAddr: 0x100310664, symSize: 0x30 }
  - { offset: 0x1B05A9, size: 0x8, addend: 0x0, symName: __RNvNtCs6sq8b9ugfBC_4core4cell30panic_already_mutably_borrowed, symObjAddr: 0xAF30, symBinAddr: 0x100310694, symSize: 0x30 }
  - { offset: 0x1B05F7, size: 0x8, addend: 0x0, symName: __RNvNtNtCs6sq8b9ugfBC_4core4cell4lazy14panic_poisoned, symObjAddr: 0xCB50, symBinAddr: 0x100310B14, symSize: 0x20 }
  - { offset: 0x1B0619, size: 0x8, addend: 0x0, symName: __RNvXsq_NtCs6sq8b9ugfBC_4core4cellNtB5_11BorrowErrorNtNtB7_3fmt7Display3fmt, symObjAddr: 0x1DF9C, symBinAddr: 0x10028C8C0, symSize: 0x14 }
  - { offset: 0x1B0652, size: 0x8, addend: 0x0, symName: __RNvXsr_NtCs6sq8b9ugfBC_4core4cellNtB5_14BorrowMutErrorNtNtB7_3fmt7Display3fmt, symObjAddr: 0x1E03C, symBinAddr: 0x10028C960, symSize: 0x14 }
  - { offset: 0x1B06BC, size: 0x8, addend: 0x0, symName: __RNvNtCs6sq8b9ugfBC_4core4wtf816slice_error_fail, symObjAddr: 0xAF60, symBinAddr: 0x1003106C4, symSize: 0x124 }
  - { offset: 0x1B0724, size: 0x8, addend: 0x0, symName: __RNvNvXs1_NtCs6sq8b9ugfBC_4core4wtf8NtB7_4Wtf8NtNtB9_3fmt5Debug3fmt17write_str_escaped, symObjAddr: 0x11688, symBinAddr: 0x10027FFAC, symSize: 0x1A8 }
  - { offset: 0x1B0972, size: 0x8, addend: 0x0, symName: __RNvXs1_NtCs6sq8b9ugfBC_4core4wtf8NtB5_4Wtf8NtNtB7_3fmt5Debug3fmt, symObjAddr: 0x143C8, symBinAddr: 0x100282CEC, symSize: 0x1F4 }
  - { offset: 0x1B0B9E, size: 0x8, addend: 0x0, symName: __RNvXNvXsd_NtCs6sq8b9ugfBC_4core4wtf8NtB8_10EncodeWideNtNtBa_3fmt5Debug3fmtNtB2_8CodeUnitBP_3fmt, symObjAddr: 0x12370, symBinAddr: 0x100280C94, symSize: 0x7C }
  - { offset: 0x1B0C49, size: 0x8, addend: 0x0, symName: __RNvXsd_NtCs6sq8b9ugfBC_4core4wtf8NtB5_10EncodeWideNtNtB7_3fmt5Debug3fmt, symObjAddr: 0x1BFD0, symBinAddr: 0x10028A8F4, symSize: 0x600 }
  - { offset: 0x1B105A, size: 0x8, addend: 0x0, symName: __RNvXs2_NtCs6sq8b9ugfBC_4core4wtf8NtB5_4Wtf8NtNtB7_3fmt7Display3fmt, symObjAddr: 0x16BD0, symBinAddr: 0x1002854F4, symSize: 0x1F4 }
  - { offset: 0x1B122E, size: 0x8, addend: 0x0, symName: __RNvXsa_NtCs6sq8b9ugfBC_4core4wtf8NtB5_14Wtf8CodePointsNtNtB7_3fmt5Debug3fmt, symObjAddr: 0x1BB38, symBinAddr: 0x10028A45C, symSize: 0x130 }
  - { offset: 0x1B14E7, size: 0x8, addend: 0x0, symName: __RNvNtCs6sq8b9ugfBC_4core5ascii14escape_default, symObjAddr: 0xB084, symBinAddr: 0x10027A180, symSize: 0x74 }
  - { offset: 0x1B155C, size: 0x8, addend: 0x0, symName: __RNvXs0_NtNtCs6sq8b9ugfBC_4core5ascii10ascii_charNtB5_9AsciiCharNtNtB9_3fmt7Display3fmt, symObjAddr: 0x12F98, symBinAddr: 0x1002818BC, symSize: 0x14 }
  - { offset: 0x1B1595, size: 0x8, addend: 0x0, symName: __RNvXs1_NtNtCs6sq8b9ugfBC_4core5ascii10ascii_charNtB5_9AsciiCharNtNtB9_3fmt5Debug3fmt, symObjAddr: 0x14BAC, symBinAddr: 0x1002834D0, symSize: 0x160 }
  - { offset: 0x1B163B, size: 0x8, addend: 0x0, symName: __RNvXs3_NtCs6sq8b9ugfBC_4core5asciiNtB5_13EscapeDefaultNtNtB7_3fmt7Display3fmt, symObjAddr: 0x1807C, symBinAddr: 0x1002869A0, symSize: 0x20 }
  - { offset: 0x1B16BE, size: 0x8, addend: 0x0, symName: __RNvXs4_NtCs6sq8b9ugfBC_4core5asciiNtB5_13EscapeDefaultNtNtB7_3fmt5Debug3fmt, symObjAddr: 0x18420, symBinAddr: 0x100286D44, symSize: 0x6C }
  - { offset: 0x1B1798, size: 0x8, addend: 0x0, symName: __RNvXs_NtNtCs6sq8b9ugfBC_4core5panic10panic_infoNtB4_9PanicInfoNtNtB8_3fmt7Display3fmt, symObjAddr: 0x1B82C, symBinAddr: 0x10028A150, symSize: 0xD0 }
  - { offset: 0x1B18FA, size: 0x8, addend: 0x0, symName: __RNvXs1_NtNtCs6sq8b9ugfBC_4core5panic8locationNtB5_8LocationNtNtB9_3cmp10PartialOrd11partial_cmp, symObjAddr: 0x14D0C, symBinAddr: 0x100283630, symSize: 0x9C }
  - { offset: 0x1B1A56, size: 0x8, addend: 0x0, symName: __RNvXs3_NtNtCs6sq8b9ugfBC_4core5panic8locationNtB5_8LocationNtNtB9_3fmt5Debug3fmt, symObjAddr: 0x18178, symBinAddr: 0x100286A9C, symSize: 0x10C }
  - { offset: 0x1B1BF9, size: 0x8, addend: 0x0, symName: __RNvXs1_NtCs6sq8b9ugfBC_4core5cloneNtNtNtB7_3ffi5c_str4CStrNtB5_13CloneToUninit15clone_to_uninit, symObjAddr: 0x145BC, symBinAddr: 0x100282EE0, symSize: 0x14 }
  - { offset: 0x1B1C7B, size: 0x8, addend: 0x0, symName: __RNvXNtCs6sq8b9ugfBC_4core3patcNtB2_12RangePattern7sub_one, symObjAddr: 0x11DE4, symBinAddr: 0x100280708, symSize: 0x40 }
  - { offset: 0x1B1CDE, size: 0x8, addend: 0x0, symName: __RNvXs4_NtCs6sq8b9ugfBC_4core3pataNtB5_12RangePattern7sub_one, symObjAddr: 0x183EC, symBinAddr: 0x100286D10, symSize: 0x34 }
  - { offset: 0x1B1D42, size: 0x8, addend: 0x0, symName: __RNvXs5_NtCs6sq8b9ugfBC_4core3patsNtB5_12RangePattern7sub_one, symObjAddr: 0x1880C, symBinAddr: 0x100287130, symSize: 0x34 }
  - { offset: 0x1B1DA6, size: 0x8, addend: 0x0, symName: __RNvXs6_NtCs6sq8b9ugfBC_4core3patlNtB5_12RangePattern7sub_one, symObjAddr: 0x18AB0, symBinAddr: 0x1002873D4, symSize: 0x28 }
  - { offset: 0x1B1DC4, size: 0x8, addend: 0x0, symName: __RNvXs6_NtCs6sq8b9ugfBC_4core3patlNtB5_12RangePattern7sub_one, symObjAddr: 0x18AB0, symBinAddr: 0x1002873D4, symSize: 0x28 }
  - { offset: 0x1B1DD9, size: 0x8, addend: 0x0, symName: __RNvXs6_NtCs6sq8b9ugfBC_4core3patlNtB5_12RangePattern7sub_one, symObjAddr: 0x18AB0, symBinAddr: 0x1002873D4, symSize: 0x28 }
  - { offset: 0x1B1E0A, size: 0x8, addend: 0x0, symName: __RNvXs7_NtCs6sq8b9ugfBC_4core3patxNtB5_12RangePattern7sub_one, symObjAddr: 0x18FD8, symBinAddr: 0x1002878FC, symSize: 0x28 }
  - { offset: 0x1B1E28, size: 0x8, addend: 0x0, symName: __RNvXs7_NtCs6sq8b9ugfBC_4core3patxNtB5_12RangePattern7sub_one, symObjAddr: 0x18FD8, symBinAddr: 0x1002878FC, symSize: 0x28 }
  - { offset: 0x1B1E3D, size: 0x8, addend: 0x0, symName: __RNvXs7_NtCs6sq8b9ugfBC_4core3patxNtB5_12RangePattern7sub_one, symObjAddr: 0x18FD8, symBinAddr: 0x1002878FC, symSize: 0x28 }
  - { offset: 0x1B1E6E, size: 0x8, addend: 0x0, symName: __RNvXs8_NtCs6sq8b9ugfBC_4core3patnNtB5_12RangePattern7sub_one, symObjAddr: 0x190B8, symBinAddr: 0x1002879DC, symSize: 0x30 }
  - { offset: 0x1B1E8C, size: 0x8, addend: 0x0, symName: __RNvXs8_NtCs6sq8b9ugfBC_4core3patnNtB5_12RangePattern7sub_one, symObjAddr: 0x190B8, symBinAddr: 0x1002879DC, symSize: 0x30 }
  - { offset: 0x1B1EA1, size: 0x8, addend: 0x0, symName: __RNvXs8_NtCs6sq8b9ugfBC_4core3patnNtB5_12RangePattern7sub_one, symObjAddr: 0x190B8, symBinAddr: 0x1002879DC, symSize: 0x30 }
  - { offset: 0x1B1ED2, size: 0x8, addend: 0x0, symName: __RNvXsa_NtCs6sq8b9ugfBC_4core3pathNtB5_12RangePattern7sub_one, symObjAddr: 0x1BA28, symBinAddr: 0x10028A34C, symSize: 0x2C }
  - { offset: 0x1B1F09, size: 0x8, addend: 0x0, symName: __RNvXsb_NtCs6sq8b9ugfBC_4core3pattNtB5_12RangePattern7sub_one, symObjAddr: 0x1BD60, symBinAddr: 0x10028A684, symSize: 0x2C }
  - { offset: 0x1B1F40, size: 0x8, addend: 0x0, symName: __RNvXsc_NtCs6sq8b9ugfBC_4core3patmNtB5_12RangePattern7sub_one, symObjAddr: 0x1BEA4, symBinAddr: 0x10028A7C8, symSize: 0x28 }
  - { offset: 0x1B1F5E, size: 0x8, addend: 0x0, symName: __RNvXsc_NtCs6sq8b9ugfBC_4core3patmNtB5_12RangePattern7sub_one, symObjAddr: 0x1BEA4, symBinAddr: 0x10028A7C8, symSize: 0x28 }
  - { offset: 0x1B1F77, size: 0x8, addend: 0x0, symName: __RNvXsd_NtCs6sq8b9ugfBC_4core3patyNtB5_12RangePattern7sub_one, symObjAddr: 0x1BFA8, symBinAddr: 0x10028A8CC, symSize: 0x28 }
  - { offset: 0x1B1F95, size: 0x8, addend: 0x0, symName: __RNvXsd_NtCs6sq8b9ugfBC_4core3patyNtB5_12RangePattern7sub_one, symObjAddr: 0x1BFA8, symBinAddr: 0x10028A8CC, symSize: 0x28 }
  - { offset: 0x1B1FAE, size: 0x8, addend: 0x0, symName: __RNvXse_NtCs6sq8b9ugfBC_4core3patoNtB5_12RangePattern7sub_one, symObjAddr: 0x1C97C, symBinAddr: 0x10028B2A0, symSize: 0x30 }
  - { offset: 0x1B1FCC, size: 0x8, addend: 0x0, symName: __RNvXse_NtCs6sq8b9ugfBC_4core3patoNtB5_12RangePattern7sub_one, symObjAddr: 0x1C97C, symBinAddr: 0x10028B2A0, symSize: 0x30 }
  - { offset: 0x1B2006, size: 0x8, addend: 0x0, symName: __RNvXNtNtCs6sq8b9ugfBC_4core2io12borrowed_bufNtB2_11BorrowedBufNtNtB6_3fmt5Debug3fmt, symObjAddr: 0x11E24, symBinAddr: 0x100280748, symSize: 0x10C }
  - { offset: 0x1B2129, size: 0x8, addend: 0x0, symName: __RNvXNtNtNtCs6sq8b9ugfBC_4core2os6darwin4objcNtB2_10objc_classNtNtB8_3fmt5Debug3fmt, symObjAddr: 0x12294, symBinAddr: 0x100280BB8, symSize: 0x18 }
  - { offset: 0x1B2147, size: 0x8, addend: 0x0, symName: __RNvXNtNtNtCs6sq8b9ugfBC_4core2os6darwin4objcNtB2_10objc_classNtNtB8_3fmt5Debug3fmt, symObjAddr: 0x12294, symBinAddr: 0x100280BB8, symSize: 0x18 }
  - { offset: 0x1B215C, size: 0x8, addend: 0x0, symName: __RNvXNtNtNtCs6sq8b9ugfBC_4core2os6darwin4objcNtB2_10objc_classNtNtB8_3fmt5Debug3fmt, symObjAddr: 0x12294, symBinAddr: 0x100280BB8, symSize: 0x18 }
  - { offset: 0x1B2172, size: 0x8, addend: 0x0, symName: __RNvXNtNtNtCs6sq8b9ugfBC_4core2os6darwin4objcNtB2_10objc_classNtNtB8_3fmt5Debug3fmt, symObjAddr: 0x12294, symBinAddr: 0x100280BB8, symSize: 0x18 }
  - { offset: 0x1B218D, size: 0x8, addend: 0x0, symName: __RNvXs_NtNtNtCs6sq8b9ugfBC_4core2os6darwin4objcNtB4_13objc_selectorNtNtBa_3fmt5Debug3fmt, symObjAddr: 0x1B8FC, symBinAddr: 0x10028A220, symSize: 0x18 }
  - { offset: 0x1B21AB, size: 0x8, addend: 0x0, symName: __RNvXs_NtNtNtCs6sq8b9ugfBC_4core2os6darwin4objcNtB4_13objc_selectorNtNtBa_3fmt5Debug3fmt, symObjAddr: 0x1B8FC, symBinAddr: 0x10028A220, symSize: 0x18 }
  - { offset: 0x1B21C0, size: 0x8, addend: 0x0, symName: __RNvXs_NtNtNtCs6sq8b9ugfBC_4core2os6darwin4objcNtB4_13objc_selectorNtNtBa_3fmt5Debug3fmt, symObjAddr: 0x1B8FC, symBinAddr: 0x10028A220, symSize: 0x18 }
  - { offset: 0x1B21D6, size: 0x8, addend: 0x0, symName: __RNvXs_NtNtNtCs6sq8b9ugfBC_4core2os6darwin4objcNtB4_13objc_selectorNtNtBa_3fmt5Debug3fmt, symObjAddr: 0x1B8FC, symBinAddr: 0x10028A220, symSize: 0x18 }
  - { offset: 0x1B21FA, size: 0x8, addend: 0x0, symName: __RNvXs0_NtCs6sq8b9ugfBC_4core3anyDNtB5_3AnyNtNtB7_6marker4SendEL_NtNtB7_3fmt5Debug3fmt, symObjAddr: 0x123EC, symBinAddr: 0x100280D10, symSize: 0x6C }
  - { offset: 0x1B22A6, size: 0x8, addend: 0x0, symName: __RNvXsa_NtCs6sq8b9ugfBC_4core3anyNtB5_6TypeIdNtNtB7_3fmt5Debug3fmt, symObjAddr: 0x1B9E4, symBinAddr: 0x10028A308, symSize: 0x44 }
  - { offset: 0x1B22EC, size: 0x8, addend: 0x0, symName: __RNvXs0_NtNtCs6sq8b9ugfBC_4core5alloc6layoutNtB5_11LayoutErrorNtNtB9_3fmt7Display3fmt, symObjAddr: 0x12F80, symBinAddr: 0x1002818A4, symSize: 0x18 }
  - { offset: 0x1B230B, size: 0x8, addend: 0x0, symName: __RNvXs0_NtNtCs6sq8b9ugfBC_4core5alloc6layoutNtB5_11LayoutErrorNtNtB9_3fmt7Display3fmt, symObjAddr: 0x12F80, symBinAddr: 0x1002818A4, symSize: 0x18 }
  - { offset: 0x1B2326, size: 0x8, addend: 0x0, symName: __RNvXs_NtCs6sq8b9ugfBC_4core5allocNtB4_10AllocErrorNtNtB6_3fmt7Display3fmt, symObjAddr: 0x1AEF4, symBinAddr: 0x100289818, symSize: 0x18 }
  - { offset: 0x1B2344, size: 0x8, addend: 0x0, symName: __RNvXs_NtCs6sq8b9ugfBC_4core5allocNtB4_10AllocErrorNtNtB6_3fmt7Display3fmt, symObjAddr: 0x1AEF4, symBinAddr: 0x100289818, symSize: 0x18 }
  - { offset: 0x1B2427, size: 0x8, addend: 0x0, symName: __RNvXs11_NtNtCs6sq8b9ugfBC_4core4sync6atomicINtB6_6AtomiclENtNtBa_3fmt5Debug3fmt, symObjAddr: 0x13290, symBinAddr: 0x100281BB4, symSize: 0xC8 }
  - { offset: 0x1B2533, size: 0x8, addend: 0x0, symName: __RNvXs15_NtNtCs6sq8b9ugfBC_4core4sync6atomicINtB6_6AtomicmENtNtBa_3fmt5Debug3fmt, symObjAddr: 0x133A8, symBinAddr: 0x100281CCC, symSize: 0x1C8 }
  - { offset: 0x1B2701, size: 0x8, addend: 0x0, symName: __RNvXs19_NtNtCs6sq8b9ugfBC_4core4sync6atomicINtB6_6AtomicxENtNtBa_3fmt5Debug3fmt, symObjAddr: 0x13780, symBinAddr: 0x1002820A4, symSize: 0xBC }
  - { offset: 0x1B280D, size: 0x8, addend: 0x0, symName: __RNvXs1d_NtNtCs6sq8b9ugfBC_4core4sync6atomicINtB6_6AtomicyENtNtBa_3fmt5Debug3fmt, symObjAddr: 0x14EA8, symBinAddr: 0x1002837CC, symSize: 0x8 }
  - { offset: 0x1B282C, size: 0x8, addend: 0x0, symName: __RNvXs1d_NtNtCs6sq8b9ugfBC_4core4sync6atomicINtB6_6AtomicyENtNtBa_3fmt5Debug3fmt, symObjAddr: 0x14EA8, symBinAddr: 0x1002837CC, symSize: 0x8 }
  - { offset: 0x1B2842, size: 0x8, addend: 0x0, symName: __RNvXs1d_NtNtCs6sq8b9ugfBC_4core4sync6atomicINtB6_6AtomicyENtNtBa_3fmt5Debug3fmt, symObjAddr: 0x14EA8, symBinAddr: 0x1002837CC, symSize: 0x8 }
  - { offset: 0x1B286B, size: 0x8, addend: 0x0, symName: __RNvXs1h_NtNtCs6sq8b9ugfBC_4core4sync6atomicINtB6_6AtomicnENtNtBa_3fmt5Debug3fmt, symObjAddr: 0x15240, symBinAddr: 0x100283B64, symSize: 0xC }
  - { offset: 0x1B28C9, size: 0x8, addend: 0x0, symName: __RNvXs1l_NtNtCs6sq8b9ugfBC_4core4sync6atomicINtB6_6AtomicoENtNtBa_3fmt5Debug3fmt, symObjAddr: 0x15488, symBinAddr: 0x100283DAC, symSize: 0xC }
  - { offset: 0x1B2927, size: 0x8, addend: 0x0, symName: __RNvXs1t_NtNtCs6sq8b9ugfBC_4core4sync6atomicINtB6_6AtomicjENtNtBa_3fmt5Debug3fmt, symObjAddr: 0x156B4, symBinAddr: 0x100283FD8, symSize: 0x28 }
  - { offset: 0x1B2985, size: 0x8, addend: 0x0, symName: __RNvXs6_NtNtCs6sq8b9ugfBC_4core4sync6atomicINtB5_6AtomicbENtNtB9_3fmt5Debug3fmt, symObjAddr: 0x18F24, symBinAddr: 0x100287848, symSize: 0x34 }
  - { offset: 0x1B2A3D, size: 0x8, addend: 0x0, symName: __RNvXsL_NtNtCs6sq8b9ugfBC_4core4sync6atomicINtB5_6AtomicaENtNtB9_3fmt5Debug3fmt, symObjAddr: 0x19FB8, symBinAddr: 0x1002888DC, symSize: 0x8 }
  - { offset: 0x1B2A5C, size: 0x8, addend: 0x0, symName: __RNvXsL_NtNtCs6sq8b9ugfBC_4core4sync6atomicINtB5_6AtomicaENtNtB9_3fmt5Debug3fmt, symObjAddr: 0x19FB8, symBinAddr: 0x1002888DC, symSize: 0x8 }
  - { offset: 0x1B2A72, size: 0x8, addend: 0x0, symName: __RNvXsL_NtNtCs6sq8b9ugfBC_4core4sync6atomicINtB5_6AtomicaENtNtB9_3fmt5Debug3fmt, symObjAddr: 0x19FB8, symBinAddr: 0x1002888DC, symSize: 0x8 }
  - { offset: 0x1B2A8D, size: 0x8, addend: 0x0, symName: __RNvXsP_NtNtCs6sq8b9ugfBC_4core4sync6atomicINtB5_6AtomichENtNtB9_3fmt5Debug3fmt, symObjAddr: 0x1A448, symBinAddr: 0x100288D6C, symSize: 0x8 }
  - { offset: 0x1B2AAC, size: 0x8, addend: 0x0, symName: __RNvXsP_NtNtCs6sq8b9ugfBC_4core4sync6atomicINtB5_6AtomichENtNtB9_3fmt5Debug3fmt, symObjAddr: 0x1A448, symBinAddr: 0x100288D6C, symSize: 0x8 }
  - { offset: 0x1B2AC2, size: 0x8, addend: 0x0, symName: __RNvXsP_NtNtCs6sq8b9ugfBC_4core4sync6atomicINtB5_6AtomichENtNtB9_3fmt5Debug3fmt, symObjAddr: 0x1A448, symBinAddr: 0x100288D6C, symSize: 0x8 }
  - { offset: 0x1B2AEB, size: 0x8, addend: 0x0, symName: __RNvXsT_NtNtCs6sq8b9ugfBC_4core4sync6atomicINtB5_6AtomicsENtNtB9_3fmt5Debug3fmt, symObjAddr: 0x1A56C, symBinAddr: 0x100288E90, symSize: 0x8 }
  - { offset: 0x1B2B0A, size: 0x8, addend: 0x0, symName: __RNvXsT_NtNtCs6sq8b9ugfBC_4core4sync6atomicINtB5_6AtomicsENtNtB9_3fmt5Debug3fmt, symObjAddr: 0x1A56C, symBinAddr: 0x100288E90, symSize: 0x8 }
  - { offset: 0x1B2B20, size: 0x8, addend: 0x0, symName: __RNvXsT_NtNtCs6sq8b9ugfBC_4core4sync6atomicINtB5_6AtomicsENtNtB9_3fmt5Debug3fmt, symObjAddr: 0x1A56C, symBinAddr: 0x100288E90, symSize: 0x8 }
  - { offset: 0x1B2B49, size: 0x8, addend: 0x0, symName: __RNvXsX_NtNtCs6sq8b9ugfBC_4core4sync6atomicINtB5_6AtomictENtNtB9_3fmt5Debug3fmt, symObjAddr: 0x1AC20, symBinAddr: 0x100289544, symSize: 0x8 }
  - { offset: 0x1B2B68, size: 0x8, addend: 0x0, symName: __RNvXsX_NtNtCs6sq8b9ugfBC_4core4sync6atomicINtB5_6AtomictENtNtB9_3fmt5Debug3fmt, symObjAddr: 0x1AC20, symBinAddr: 0x100289544, symSize: 0x8 }
  - { offset: 0x1B2B7E, size: 0x8, addend: 0x0, symName: __RNvXsX_NtNtCs6sq8b9ugfBC_4core4sync6atomicINtB5_6AtomictENtNtB9_3fmt5Debug3fmt, symObjAddr: 0x1AC20, symBinAddr: 0x100289544, symSize: 0x8 }
  - { offset: 0x1B2BA7, size: 0x8, addend: 0x0, symName: __RNvXs1_NtNtCs6sq8b9ugfBC_4core4task4wakeNtB5_7ContextNtNtB9_3fmt5Debug3fmt, symObjAddr: 0x14AE8, symBinAddr: 0x10028340C, symSize: 0xC4 }
  - { offset: 0x1B2CA4, size: 0x8, addend: 0x0, symName: __RNvXs9_NtNtCs6sq8b9ugfBC_4core4task4wakeNtB5_5WakerNtNtB9_3fmt5Debug3fmt, symObjAddr: 0x19644, symBinAddr: 0x100287F68, symSize: 0xEC }
  - { offset: 0x1B2DA1, size: 0x8, addend: 0x0, symName: __RNvXsf_NtNtCs6sq8b9ugfBC_4core4task4wakeNtB5_10LocalWakerNtNtB9_3fmt5Debug3fmt, symObjAddr: 0x1CCF8, symBinAddr: 0x10028B61C, symSize: 0xEC }
  - { offset: 0x1B2F00, size: 0x8, addend: 0x0, symName: __RNvXs1_NtNtCs6sq8b9ugfBC_4core6marker8varianceNtB5_24PhantomCovariantLifetimeNtNtB9_3fmt5Debug3fmt, symObjAddr: 0x14DA8, symBinAddr: 0x1002836CC, symSize: 0x18 }
  - { offset: 0x1B2F1E, size: 0x8, addend: 0x0, symName: __RNvXs1_NtNtCs6sq8b9ugfBC_4core6marker8varianceNtB5_24PhantomCovariantLifetimeNtNtB9_3fmt5Debug3fmt, symObjAddr: 0x14DA8, symBinAddr: 0x1002836CC, symSize: 0x18 }
  - { offset: 0x1B2F38, size: 0x8, addend: 0x0, symName: __RNvXs5_NtNtCs6sq8b9ugfBC_4core6marker8varianceNtB5_28PhantomContravariantLifetimeNtNtB9_3fmt5Debug3fmt, symObjAddr: 0x18900, symBinAddr: 0x100287224, symSize: 0x18 }
  - { offset: 0x1B2F56, size: 0x8, addend: 0x0, symName: __RNvXs5_NtNtCs6sq8b9ugfBC_4core6marker8varianceNtB5_28PhantomContravariantLifetimeNtNtB9_3fmt5Debug3fmt, symObjAddr: 0x18900, symBinAddr: 0x100287224, symSize: 0x18 }
  - { offset: 0x1B2F70, size: 0x8, addend: 0x0, symName: __RNvXs9_NtNtCs6sq8b9ugfBC_4core6marker8varianceNtB5_24PhantomInvariantLifetimeNtNtB9_3fmt5Debug3fmt, symObjAddr: 0x19730, symBinAddr: 0x100288054, symSize: 0x18 }
  - { offset: 0x1B2F8E, size: 0x8, addend: 0x0, symName: __RNvXs9_NtNtCs6sq8b9ugfBC_4core6marker8varianceNtB5_24PhantomInvariantLifetimeNtNtB9_3fmt5Debug3fmt, symObjAddr: 0x19730, symBinAddr: 0x100288054, symSize: 0x18 }
  - { offset: 0x1B2FB0, size: 0x8, addend: 0x0, symName: __RNvXs2_NtCs6sq8b9ugfBC_4core4bstrNtB5_7ByteStrNtNtB7_3fmt5Debug3fmt, symObjAddr: 0x16938, symBinAddr: 0x10028525C, symSize: 0x278 }
  - { offset: 0x1B3284, size: 0x8, addend: 0x0, symName: __RNvXs3_NtCs6sq8b9ugfBC_4core4bstrNtB5_7ByteStrNtNtB7_3fmt7Display3fmt, symObjAddr: 0x17B94, symBinAddr: 0x1002864B8, symSize: 0x4E8 }
  - { offset: 0x1B38A9, size: 0x8, addend: 0x0, symName: __RNvXs4_NtCs6sq8b9ugfBC_4core5errorNtB5_7RequestNtNtB7_3fmt5Debug3fmt, symObjAddr: 0x1848C, symBinAddr: 0x100286DB0, symSize: 0x6C }
  - { offset: 0x1B3958, size: 0x8, addend: 0x0, symName: __RNvXs8_NtCs6sq8b9ugfBC_4core5errorNtB5_6SourceNtNtNtNtB7_4iter6traits8iterator8Iterator4next, symObjAddr: 0x190E8, symBinAddr: 0x100287A0C, symSize: 0x4C }
  - { offset: 0x1B39A4, size: 0x8, addend: 0x0, symName: _OUTLINED_FUNCTION_1, symObjAddr: 0x1E9E0, symBinAddr: 0x10028D2F4, symSize: 0x8 }
  - { offset: 0x1B39DA, size: 0x8, addend: 0x0, symName: __RINvNtNtCsc8ysn0H88rX_17compiler_builtins5float4conv18float_to_int_innerC4f128mNCINvB2_21float_to_unsigned_intC4f128mE0NCB1h_s_0EB6_, symObjAddr: 0x0, symBinAddr: 0x10028D2FC, symSize: 0x40 }
  - { offset: 0x1B3BE1, size: 0x8, addend: 0x0, symName: __RINvNtNtCsc8ysn0H88rX_17compiler_builtins5float4conv18float_to_int_innerC4f128mNCINvB2_21float_to_unsigned_intC4f128mE0NCB1h_s_0EB6_, symObjAddr: 0x0, symBinAddr: 0x10028D2FC, symSize: 0x40 }
  - { offset: 0x1B3C3F, size: 0x8, addend: 0x0, symName: __RINvNtNtCsc8ysn0H88rX_17compiler_builtins5float4conv18float_to_int_innerC4f128oNCINvB2_21float_to_unsigned_intC4f128oE0NCB1h_s_0EB6_, symObjAddr: 0x40, symBinAddr: 0x10028D33C, symSize: 0x80 }
  - { offset: 0x1B3CB3, size: 0x8, addend: 0x0, symName: __RINvNtNtCsc8ysn0H88rX_17compiler_builtins5float4conv18float_to_int_innerC4f128yNCINvB2_21float_to_unsigned_intC4f128yE0NCB1h_s_0EB6_, symObjAddr: 0xC0, symBinAddr: 0x10028D3BC, symSize: 0x40 }
  - { offset: 0x1B3E22, size: 0x8, addend: 0x0, symName: __RINvNtNtCsc8ysn0H88rX_17compiler_builtins5float4conv19float_to_signed_intC4f128lEB6_, symObjAddr: 0x100, symBinAddr: 0x10028D3FC, symSize: 0x68 }
  - { offset: 0x1B3EF5, size: 0x8, addend: 0x0, symName: __RINvNtNtCsc8ysn0H88rX_17compiler_builtins5float4conv19float_to_signed_intC4f128nEB6_, symObjAddr: 0x168, symBinAddr: 0x10028D464, symSize: 0xA8 }
  - { offset: 0x1B3FDE, size: 0x8, addend: 0x0, symName: __RINvNtNtCsc8ysn0H88rX_17compiler_builtins5float4conv19float_to_signed_intC4f128xEB6_, symObjAddr: 0x210, symBinAddr: 0x10028D50C, symSize: 0x68 }
  - { offset: 0x1B40A3, size: 0x8, addend: 0x0, symName: __RNvNtNtCsc8ysn0H88rX_17compiler_builtins5float4conv11___floatdidf, symObjAddr: 0x278, symBinAddr: 0x10028D574, symSize: 0x5C }
  - { offset: 0x1B41F8, size: 0x8, addend: 0x0, symName: __RNvNtNtCsc8ysn0H88rX_17compiler_builtins5float4conv11___floatdisf, symObjAddr: 0x2D4, symBinAddr: 0x10028D5D0, symSize: 0x58 }
  - { offset: 0x1B4217, size: 0x8, addend: 0x0, symName: __RNvNtNtCsc8ysn0H88rX_17compiler_builtins5float4conv11___floatdisf, symObjAddr: 0x2D4, symBinAddr: 0x10028D5D0, symSize: 0x58 }
  - { offset: 0x1B4396, size: 0x8, addend: 0x0, symName: __RNvNtNtCsc8ysn0H88rX_17compiler_builtins5float4conv11___floatsidf, symObjAddr: 0x32C, symBinAddr: 0x10028D628, symSize: 0x40 }
  - { offset: 0x1B43B5, size: 0x8, addend: 0x0, symName: __RNvNtNtCsc8ysn0H88rX_17compiler_builtins5float4conv11___floatsidf, symObjAddr: 0x32C, symBinAddr: 0x10028D628, symSize: 0x40 }
  - { offset: 0x1B43CB, size: 0x8, addend: 0x0, symName: __RNvNtNtCsc8ysn0H88rX_17compiler_builtins5float4conv11___floatsidf, symObjAddr: 0x32C, symBinAddr: 0x10028D628, symSize: 0x40 }
  - { offset: 0x1B43E0, size: 0x8, addend: 0x0, symName: __RNvNtNtCsc8ysn0H88rX_17compiler_builtins5float4conv11___floatsidf, symObjAddr: 0x32C, symBinAddr: 0x10028D628, symSize: 0x40 }
  - { offset: 0x1B43F6, size: 0x8, addend: 0x0, symName: __RNvNtNtCsc8ysn0H88rX_17compiler_builtins5float4conv11___floatsidf, symObjAddr: 0x32C, symBinAddr: 0x10028D628, symSize: 0x40 }
  - { offset: 0x1B450D, size: 0x8, addend: 0x0, symName: __RNvNtNtCsc8ysn0H88rX_17compiler_builtins5float4conv11___floatsisf, symObjAddr: 0x36C, symBinAddr: 0x10028D668, symSize: 0x5C }
  - { offset: 0x1B4662, size: 0x8, addend: 0x0, symName: __RNvNtNtCsc8ysn0H88rX_17compiler_builtins5float4conv11___floattidf, symObjAddr: 0x3C8, symBinAddr: 0x10028D6C4, symSize: 0x94 }
  - { offset: 0x1B4681, size: 0x8, addend: 0x0, symName: __RNvNtNtCsc8ysn0H88rX_17compiler_builtins5float4conv11___floattidf, symObjAddr: 0x3C8, symBinAddr: 0x10028D6C4, symSize: 0x94 }
  - { offset: 0x1B4697, size: 0x8, addend: 0x0, symName: __RNvNtNtCsc8ysn0H88rX_17compiler_builtins5float4conv11___floattidf, symObjAddr: 0x3C8, symBinAddr: 0x10028D6C4, symSize: 0x94 }
  - { offset: 0x1B4828, size: 0x8, addend: 0x0, symName: __RNvNtNtCsc8ysn0H88rX_17compiler_builtins5float4conv11___floattisf, symObjAddr: 0x45C, symBinAddr: 0x10028D758, symSize: 0xA4 }
  - { offset: 0x1B4847, size: 0x8, addend: 0x0, symName: __RNvNtNtCsc8ysn0H88rX_17compiler_builtins5float4conv11___floattisf, symObjAddr: 0x45C, symBinAddr: 0x10028D758, symSize: 0xA4 }
  - { offset: 0x1B485D, size: 0x8, addend: 0x0, symName: __RNvNtNtCsc8ysn0H88rX_17compiler_builtins5float4conv11___floattisf, symObjAddr: 0x45C, symBinAddr: 0x10028D758, symSize: 0xA4 }
  - { offset: 0x1B4A0A, size: 0x8, addend: 0x0, symName: __RNvNtNtCsc8ysn0H88rX_17compiler_builtins5float4conv12___fixunsdfdi, symObjAddr: 0x500, symBinAddr: 0x10028D7FC, symSize: 0x40 }
  - { offset: 0x1B4A29, size: 0x8, addend: 0x0, symName: __RNvNtNtCsc8ysn0H88rX_17compiler_builtins5float4conv12___fixunsdfdi, symObjAddr: 0x500, symBinAddr: 0x10028D7FC, symSize: 0x40 }
  - { offset: 0x1B4A3F, size: 0x8, addend: 0x0, symName: __RNvNtNtCsc8ysn0H88rX_17compiler_builtins5float4conv12___fixunsdfdi, symObjAddr: 0x500, symBinAddr: 0x10028D7FC, symSize: 0x40 }
  - { offset: 0x1B4A55, size: 0x8, addend: 0x0, symName: __RNvNtNtCsc8ysn0H88rX_17compiler_builtins5float4conv12___fixunsdfdi, symObjAddr: 0x500, symBinAddr: 0x10028D7FC, symSize: 0x40 }
  - { offset: 0x1B4ADE, size: 0x8, addend: 0x0, symName: __RNvNtNtCsc8ysn0H88rX_17compiler_builtins5float4conv12___fixunsdfsi, symObjAddr: 0x540, symBinAddr: 0x10028D83C, symSize: 0x40 }
  - { offset: 0x1B4AFD, size: 0x8, addend: 0x0, symName: __RNvNtNtCsc8ysn0H88rX_17compiler_builtins5float4conv12___fixunsdfsi, symObjAddr: 0x540, symBinAddr: 0x10028D83C, symSize: 0x40 }
  - { offset: 0x1B4B13, size: 0x8, addend: 0x0, symName: __RNvNtNtCsc8ysn0H88rX_17compiler_builtins5float4conv12___fixunsdfsi, symObjAddr: 0x540, symBinAddr: 0x10028D83C, symSize: 0x40 }
  - { offset: 0x1B4B29, size: 0x8, addend: 0x0, symName: __RNvNtNtCsc8ysn0H88rX_17compiler_builtins5float4conv12___fixunsdfsi, symObjAddr: 0x540, symBinAddr: 0x10028D83C, symSize: 0x40 }
  - { offset: 0x1B4BB2, size: 0x8, addend: 0x0, symName: __RNvNtNtCsc8ysn0H88rX_17compiler_builtins5float4conv12___fixunsdfti, symObjAddr: 0x580, symBinAddr: 0x10028D87C, symSize: 0x6C }
  - { offset: 0x1B4BDF, size: 0x8, addend: 0x0, symName: __RNvNtNtCsc8ysn0H88rX_17compiler_builtins5float4conv12___fixunsdfti, symObjAddr: 0x580, symBinAddr: 0x10028D87C, symSize: 0x6C }
  - { offset: 0x1B4BF5, size: 0x8, addend: 0x0, symName: __RNvNtNtCsc8ysn0H88rX_17compiler_builtins5float4conv12___fixunsdfti, symObjAddr: 0x580, symBinAddr: 0x10028D87C, symSize: 0x6C }
  - { offset: 0x1B4C76, size: 0x8, addend: 0x0, symName: __RNvNtNtCsc8ysn0H88rX_17compiler_builtins5float4conv12___fixunssfdi, symObjAddr: 0x5EC, symBinAddr: 0x10028D8E8, symSize: 0x3C }
  - { offset: 0x1B4C95, size: 0x8, addend: 0x0, symName: __RNvNtNtCsc8ysn0H88rX_17compiler_builtins5float4conv12___fixunssfdi, symObjAddr: 0x5EC, symBinAddr: 0x10028D8E8, symSize: 0x3C }
  - { offset: 0x1B4CAB, size: 0x8, addend: 0x0, symName: __RNvNtNtCsc8ysn0H88rX_17compiler_builtins5float4conv12___fixunssfdi, symObjAddr: 0x5EC, symBinAddr: 0x10028D8E8, symSize: 0x3C }
  - { offset: 0x1B4CC1, size: 0x8, addend: 0x0, symName: __RNvNtNtCsc8ysn0H88rX_17compiler_builtins5float4conv12___fixunssfdi, symObjAddr: 0x5EC, symBinAddr: 0x10028D8E8, symSize: 0x3C }
  - { offset: 0x1B4D4A, size: 0x8, addend: 0x0, symName: __RNvNtNtCsc8ysn0H88rX_17compiler_builtins5float4conv12___fixunssfsi, symObjAddr: 0x628, symBinAddr: 0x10028D924, symSize: 0x3C }
  - { offset: 0x1B4D69, size: 0x8, addend: 0x0, symName: __RNvNtNtCsc8ysn0H88rX_17compiler_builtins5float4conv12___fixunssfsi, symObjAddr: 0x628, symBinAddr: 0x10028D924, symSize: 0x3C }
  - { offset: 0x1B4D7F, size: 0x8, addend: 0x0, symName: __RNvNtNtCsc8ysn0H88rX_17compiler_builtins5float4conv12___fixunssfsi, symObjAddr: 0x628, symBinAddr: 0x10028D924, symSize: 0x3C }
  - { offset: 0x1B4D95, size: 0x8, addend: 0x0, symName: __RNvNtNtCsc8ysn0H88rX_17compiler_builtins5float4conv12___fixunssfsi, symObjAddr: 0x628, symBinAddr: 0x10028D924, symSize: 0x3C }
  - { offset: 0x1B4E1E, size: 0x8, addend: 0x0, symName: __RNvNtNtCsc8ysn0H88rX_17compiler_builtins5float4conv12___fixunssfti, symObjAddr: 0x664, symBinAddr: 0x10028D960, symSize: 0x64 }
  - { offset: 0x1B4E4B, size: 0x8, addend: 0x0, symName: __RNvNtNtCsc8ysn0H88rX_17compiler_builtins5float4conv12___fixunssfti, symObjAddr: 0x664, symBinAddr: 0x10028D960, symSize: 0x64 }
  - { offset: 0x1B4E61, size: 0x8, addend: 0x0, symName: __RNvNtNtCsc8ysn0H88rX_17compiler_builtins5float4conv12___fixunssfti, symObjAddr: 0x664, symBinAddr: 0x10028D960, symSize: 0x64 }
  - { offset: 0x1B4EC6, size: 0x8, addend: 0x0, symName: __RNvNtNtCsc8ysn0H88rX_17compiler_builtins5float4conv13___floatundidf, symObjAddr: 0x6C8, symBinAddr: 0x10028D9C4, symSize: 0x40 }
  - { offset: 0x1B4F9B, size: 0x8, addend: 0x0, symName: __RNvNtNtCsc8ysn0H88rX_17compiler_builtins5float4conv13___floatundisf, symObjAddr: 0x708, symBinAddr: 0x10028DA04, symSize: 0x44 }
  - { offset: 0x1B4FBA, size: 0x8, addend: 0x0, symName: __RNvNtNtCsc8ysn0H88rX_17compiler_builtins5float4conv13___floatundisf, symObjAddr: 0x708, symBinAddr: 0x10028DA04, symSize: 0x44 }
  - { offset: 0x1B4FCF, size: 0x8, addend: 0x0, symName: __RNvNtNtCsc8ysn0H88rX_17compiler_builtins5float4conv13___floatundisf, symObjAddr: 0x708, symBinAddr: 0x10028DA04, symSize: 0x44 }
  - { offset: 0x1B50B1, size: 0x8, addend: 0x0, symName: __RNvNtNtCsc8ysn0H88rX_17compiler_builtins5float4conv13___floatunsisf, symObjAddr: 0x74C, symBinAddr: 0x10028DA48, symSize: 0x40 }
  - { offset: 0x1B5186, size: 0x8, addend: 0x0, symName: __RNvNtNtCsc8ysn0H88rX_17compiler_builtins5float4conv13___floatuntidf, symObjAddr: 0x78C, symBinAddr: 0x10028DA88, symSize: 0x7C }
  - { offset: 0x1B51A5, size: 0x8, addend: 0x0, symName: __RNvNtNtCsc8ysn0H88rX_17compiler_builtins5float4conv13___floatuntidf, symObjAddr: 0x78C, symBinAddr: 0x10028DA88, symSize: 0x7C }
  - { offset: 0x1B51BA, size: 0x8, addend: 0x0, symName: __RNvNtNtCsc8ysn0H88rX_17compiler_builtins5float4conv13___floatuntidf, symObjAddr: 0x78C, symBinAddr: 0x10028DA88, symSize: 0x7C }
  - { offset: 0x1B529C, size: 0x8, addend: 0x0, symName: __RNvNtNtCsc8ysn0H88rX_17compiler_builtins5float4conv13___floatuntisf, symObjAddr: 0x808, symBinAddr: 0x10028DB04, symSize: 0x88 }
  - { offset: 0x1B52BB, size: 0x8, addend: 0x0, symName: __RNvNtNtCsc8ysn0H88rX_17compiler_builtins5float4conv13___floatuntisf, symObjAddr: 0x808, symBinAddr: 0x10028DB04, symSize: 0x88 }
  - { offset: 0x1B52D0, size: 0x8, addend: 0x0, symName: __RNvNtNtCsc8ysn0H88rX_17compiler_builtins5float4conv13___floatuntisf, symObjAddr: 0x808, symBinAddr: 0x10028DB04, symSize: 0x88 }
  - { offset: 0x1B53CE, size: 0x8, addend: 0x0, symName: __RNvNtNtCsc8ysn0H88rX_17compiler_builtins5float4conv9___fixdfdi, symObjAddr: 0x890, symBinAddr: 0x10028DB8C, symSize: 0x58 }
  - { offset: 0x1B54B8, size: 0x8, addend: 0x0, symName: __RNvNtNtCsc8ysn0H88rX_17compiler_builtins5float4conv9___fixdfsi, symObjAddr: 0x8E8, symBinAddr: 0x10028DBE4, symSize: 0x58 }
  - { offset: 0x1B55A2, size: 0x8, addend: 0x0, symName: __RNvNtNtCsc8ysn0H88rX_17compiler_builtins5float4conv9___fixdfti, symObjAddr: 0x940, symBinAddr: 0x10028DC3C, symSize: 0x98 }
  - { offset: 0x1B567C, size: 0x8, addend: 0x0, symName: __RNvNtNtCsc8ysn0H88rX_17compiler_builtins5float4conv9___fixsfdi, symObjAddr: 0x9D8, symBinAddr: 0x10028DCD4, symSize: 0x54 }
  - { offset: 0x1B5766, size: 0x8, addend: 0x0, symName: __RNvNtNtCsc8ysn0H88rX_17compiler_builtins5float4conv9___fixsfsi, symObjAddr: 0xA2C, symBinAddr: 0x10028DD28, symSize: 0x54 }
  - { offset: 0x1B5850, size: 0x8, addend: 0x0, symName: __RNvNtNtCsc8ysn0H88rX_17compiler_builtins5float4conv9___fixsfti, symObjAddr: 0xA80, symBinAddr: 0x10028DD7C, symSize: 0x94 }
  - { offset: 0x1B5EB4, size: 0x8, addend: 0x0, symName: __RINvNtNtCsc8ysn0H88rX_17compiler_builtins5float3div3divC4f128EB6_, symObjAddr: 0x0, symBinAddr: 0x10028DE10, symSize: 0x5A4 }
  - { offset: 0x1B655C, size: 0x8, addend: 0x0, symName: __RINvNtNtCsc8ysn0H88rX_17compiler_builtins5float3div3divC4f128EB6_, symObjAddr: 0x0, symBinAddr: 0x10028DE10, symSize: 0x5A4 }
  - { offset: 0x1B6D41, size: 0x8, addend: 0x0, symName: __RNvNtNtCsc8ysn0H88rX_17compiler_builtins5float3div8___divdf3, symObjAddr: 0x5A4, symBinAddr: 0x10028E3B4, symSize: 0x234 }
  - { offset: 0x1B6D6E, size: 0x8, addend: 0x0, symName: __RNvNtNtCsc8ysn0H88rX_17compiler_builtins5float3div8___divdf3, symObjAddr: 0x5A4, symBinAddr: 0x10028E3B4, symSize: 0x234 }
  - { offset: 0x1B6D83, size: 0x8, addend: 0x0, symName: __RNvNtNtCsc8ysn0H88rX_17compiler_builtins5float3div8___divdf3, symObjAddr: 0x5A4, symBinAddr: 0x10028E3B4, symSize: 0x234 }
  - { offset: 0x1B7408, size: 0x8, addend: 0x0, symName: __RNvNtNtCsc8ysn0H88rX_17compiler_builtins5float3div8___divsf3, symObjAddr: 0x7D8, symBinAddr: 0x10028E5E8, symSize: 0x204 }
  - { offset: 0x1B7435, size: 0x8, addend: 0x0, symName: __RNvNtNtCsc8ysn0H88rX_17compiler_builtins5float3div8___divsf3, symObjAddr: 0x7D8, symBinAddr: 0x10028E5E8, symSize: 0x204 }
  - { offset: 0x1B744A, size: 0x8, addend: 0x0, symName: __RNvNtNtCsc8ysn0H88rX_17compiler_builtins5float3div8___divsf3, symObjAddr: 0x7D8, symBinAddr: 0x10028E5E8, symSize: 0x204 }
  - { offset: 0x1B7B9A, size: 0x8, addend: 0x0, symName: __RINvNtNtCsc8ysn0H88rX_17compiler_builtins5float3add3addC3f16EB6_, symObjAddr: 0x0, symBinAddr: 0x10028E7EC, symSize: 0x21C }
  - { offset: 0x1B8228, size: 0x8, addend: 0x0, symName: __RINvNtNtCsc8ysn0H88rX_17compiler_builtins5float3add3addC3f16EB6_, symObjAddr: 0x0, symBinAddr: 0x10028E7EC, symSize: 0x21C }
  - { offset: 0x1B874E, size: 0x8, addend: 0x0, symName: __RINvNtNtCsc8ysn0H88rX_17compiler_builtins5float3add3addC4f128EB6_, symObjAddr: 0x21C, symBinAddr: 0x10028EA08, symSize: 0x3E4 }
  - { offset: 0x1B8C2D, size: 0x8, addend: 0x0, symName: __RNvNtNtCsc8ysn0H88rX_17compiler_builtins5float3add8___adddf3, symObjAddr: 0x600, symBinAddr: 0x10028EDEC, symSize: 0x1E8 }
  - { offset: 0x1B9130, size: 0x8, addend: 0x0, symName: __RNvNtNtCsc8ysn0H88rX_17compiler_builtins5float3add8___addsf3, symObjAddr: 0x7E8, symBinAddr: 0x10028EFD4, symSize: 0x1E4 }
  - { offset: 0x1B9726, size: 0x8, addend: 0x0, symName: __RINvNtNtCsc8ysn0H88rX_17compiler_builtins5float3mul3mulC3f16EB6_, symObjAddr: 0x0, symBinAddr: 0x10028F1B8, symSize: 0x1D4 }
  - { offset: 0x1B9E16, size: 0x8, addend: 0x0, symName: __RINvNtNtCsc8ysn0H88rX_17compiler_builtins5float3mul3mulC3f16EB6_, symObjAddr: 0x0, symBinAddr: 0x10028F1B8, symSize: 0x1D4 }
  - { offset: 0x1B9E34, size: 0x8, addend: 0x0, symName: __RINvNtNtCsc8ysn0H88rX_17compiler_builtins5float3mul3mulC3f16EB6_, symObjAddr: 0x0, symBinAddr: 0x10028F1B8, symSize: 0x1D4 }
  - { offset: 0x1B9E49, size: 0x8, addend: 0x0, symName: __RINvNtNtCsc8ysn0H88rX_17compiler_builtins5float3mul3mulC3f16EB6_, symObjAddr: 0x0, symBinAddr: 0x10028F1B8, symSize: 0x1D4 }
  - { offset: 0x1BA26B, size: 0x8, addend: 0x0, symName: __RINvNtNtCsc8ysn0H88rX_17compiler_builtins5float3mul3mulC4f128EB6_, symObjAddr: 0x1D4, symBinAddr: 0x10028F38C, symSize: 0x46C }
  - { offset: 0x1BA7DC, size: 0x8, addend: 0x0, symName: __RNvNtNtCsc8ysn0H88rX_17compiler_builtins5float3mul8___muldf3, symObjAddr: 0x640, symBinAddr: 0x10028F7F8, symSize: 0x1D4 }
  - { offset: 0x1BA808, size: 0x8, addend: 0x0, symName: __RNvNtNtCsc8ysn0H88rX_17compiler_builtins5float3mul8___muldf3, symObjAddr: 0x640, symBinAddr: 0x10028F7F8, symSize: 0x1D4 }
  - { offset: 0x1BA81D, size: 0x8, addend: 0x0, symName: __RNvNtNtCsc8ysn0H88rX_17compiler_builtins5float3mul8___muldf3, symObjAddr: 0x640, symBinAddr: 0x10028F7F8, symSize: 0x1D4 }
  - { offset: 0x1BAC10, size: 0x8, addend: 0x0, symName: __RNvNtNtCsc8ysn0H88rX_17compiler_builtins5float3mul8___mulsf3, symObjAddr: 0x814, symBinAddr: 0x10028F9CC, symSize: 0x1D4 }
  - { offset: 0x1BAC3C, size: 0x8, addend: 0x0, symName: __RNvNtNtCsc8ysn0H88rX_17compiler_builtins5float3mul8___mulsf3, symObjAddr: 0x814, symBinAddr: 0x10028F9CC, symSize: 0x1D4 }
  - { offset: 0x1BAC51, size: 0x8, addend: 0x0, symName: __RNvNtNtCsc8ysn0H88rX_17compiler_builtins5float3mul8___mulsf3, symObjAddr: 0x814, symBinAddr: 0x10028F9CC, symSize: 0x1D4 }
  - { offset: 0x1BB252, size: 0x8, addend: 0x0, symName: __RINvNtNtCsc8ysn0H88rX_17compiler_builtins5float5trunc5truncC4f128C3f16EB6_, symObjAddr: 0x0, symBinAddr: 0x10028FBA0, symSize: 0x1B8 }
  - { offset: 0x1BB6E0, size: 0x8, addend: 0x0, symName: __RINvNtNtCsc8ysn0H88rX_17compiler_builtins5float5trunc5truncC4f128C3f16EB6_, symObjAddr: 0x0, symBinAddr: 0x10028FBA0, symSize: 0x1B8 }
  - { offset: 0x1BB9BE, size: 0x8, addend: 0x0, symName: __RINvNtNtCsc8ysn0H88rX_17compiler_builtins5float5trunc5truncC4f128dEB6_, symObjAddr: 0x1B8, symBinAddr: 0x10028FD58, symSize: 0x188 }
  - { offset: 0x1BBC1E, size: 0x8, addend: 0x0, symName: __RINvNtNtCsc8ysn0H88rX_17compiler_builtins5float5trunc5truncC4f128fEB6_, symObjAddr: 0x340, symBinAddr: 0x10028FEE0, symSize: 0x1C0 }
  - { offset: 0x1BBEFC, size: 0x8, addend: 0x0, symName: __RINvNtNtCsc8ysn0H88rX_17compiler_builtins5float5trunc5truncdC3f16EB6_, symObjAddr: 0x500, symBinAddr: 0x1002900A0, symSize: 0x12C }
  - { offset: 0x1BC147, size: 0x8, addend: 0x0, symName: __RINvNtNtCsc8ysn0H88rX_17compiler_builtins5float5trunc5truncfC3f16EB6_, symObjAddr: 0x62C, symBinAddr: 0x1002901CC, symSize: 0xF8 }
  - { offset: 0x1BC37D, size: 0x8, addend: 0x0, symName: __RNvNtNtCsc8ysn0H88rX_17compiler_builtins5float5trunc12___truncdfsf2, symObjAddr: 0x724, symBinAddr: 0x1002902C4, symSize: 0x140 }
  - { offset: 0x1BC5F8, size: 0x8, addend: 0x0, symName: __RINvNtNtCsc8ysn0H88rX_17compiler_builtins5float6extend6extendC3f16C4f128EB6_, symObjAddr: 0x0, symBinAddr: 0x100290404, symSize: 0xA4 }
